

Microchip MPLAB XC8 Assembler V2.10 build 88905656 
                                                                                               Tue May 18 13:32:44 2021

Microchip MPLAB XC8 C Compiler v2.10 (Free license) build 20190730164152 Og1 
     1                           	processor	18F45K50
     2                           	fnconf	rparam,??,?,0
     3                           	opt	pw 120
     4                           	opt	flic
     5                           	psect	idataBANK1,global,class=CODE,delta=1,noexec
     6                           	psect	smallconst,global,reloc=2,class=SMALLCONST,delta=1,noexec
     7                           	psect	cinit,global,reloc=2,class=CODE,delta=1
     8                           	psect	bssCOMRAM,global,class=COMRAM,space=1,delta=1,noexec
     9                           	psect	bssBANK0,global,class=BANK0,space=1,delta=1,lowdata,noexec
    10                           	psect	bssBANK1,global,class=BANK1,space=1,delta=1,lowdata,noexec
    11                           	psect	dataBANK1,global,class=BANK1,space=1,delta=1,lowdata,noexec
    12                           	psect	cstackBANK1,global,class=BANK1,space=1,delta=1,noexec
    13                           	psect	cstackBANK0,global,class=BANK0,space=1,delta=1,noexec
    14                           	psect	cstackCOMRAM,global,class=COMRAM,space=1,delta=1,noexec
    15                           	psect	text0,global,reloc=2,class=CODE,delta=1
    16                           	psect	text1,global,reloc=2,class=CODE,delta=1
    17                           	psect	text2,global,reloc=2,class=CODE,delta=1
    18                           	psect	text3,global,reloc=2,class=CODE,delta=1
    19                           	psect	text4,global,reloc=2,class=CODE,delta=1
    20                           	psect	text5,global,reloc=2,class=CODE,delta=1
    21                           	psect	text6,global,reloc=2,class=CODE,delta=1
    22                           	psect	text7,global,reloc=2,class=CODE,delta=1
    23                           	psect	text8,global,reloc=2,class=CODE,delta=1
    24                           	psect	text9,global,reloc=2,class=CODE,delta=1
    25                           	psect	text10,global,reloc=2,class=CODE,delta=1
    26                           	psect	text11,global,reloc=2,class=CODE,delta=1,group=1
    27                           	psect	text12,global,reloc=2,class=CODE,delta=1
    28                           	psect	text13,global,reloc=2,class=CODE,delta=1,group=1
    29                           	psect	text14,global,reloc=2,class=CODE,delta=1,group=1
    30                           	psect	text15,global,reloc=2,class=CODE,delta=1
    31                           	psect	text16,global,reloc=2,class=CODE,delta=1
    32                           	psect	intcodelo,global,reloc=2,class=CODE,delta=1
    33                           	psect	intcode,global,reloc=2,class=CODE,delta=1
    34                           	psect	intcode_body,global,reloc=2,class=CODE,delta=1
    35                           	psect	text19,global,reloc=2,class=CODE,delta=1
    36                           	psect	text20,global,reloc=2,class=CODE,delta=1
    37                           	psect	text21,global,reloc=2,class=CODE,delta=1,group=2
    38                           	psect	text22,global,reloc=2,class=CODE,delta=1,group=2
    39                           	psect	text23,global,reloc=2,class=CODE,delta=1
    40                           	psect	text24,global,reloc=2,class=CODE,delta=1
    41                           	psect	text25,global,reloc=2,class=CODE,delta=1,group=2
    42                           	psect	text26,global,reloc=2,class=CODE,delta=1
    43                           	psect	text27,global,reloc=2,class=CODE,delta=1,group=2
    44                           	psect	text28,global,reloc=2,class=CODE,delta=1,group=2
    45                           	psect	text29,global,reloc=2,class=CODE,delta=1,group=2
    46                           	psect	text30,global,reloc=2,class=CODE,delta=1,group=2
    47                           	psect	text31,global,reloc=2,class=CODE,delta=1,group=2
    48                           	psect	text32,global,reloc=2,class=CODE,delta=1,group=1
    49                           	psect	text33,global,reloc=2,class=CODE,delta=1,group=1
    50                           	psect	text34,global,reloc=2,class=CODE,delta=1,group=1
    51                           	psect	text35,global,reloc=2,class=CODE,delta=1,group=1
    52                           	psect	text36,global,reloc=2,class=CODE,delta=1,group=1
    53                           	psect	text37,global,reloc=2,class=CODE,delta=1,group=1
    54                           	psect	text38,global,reloc=2,class=CODE,delta=1,group=1
    55                           	psect	text39,global,reloc=2,class=CODE,delta=1,group=1
    56                           	psect	text40,global,reloc=2,class=CODE,delta=1,group=1
    57                           	psect	text41,global,reloc=2,class=CODE,delta=1,group=1
    58                           	psect	text42,global,reloc=2,class=CODE,delta=1
    59                           	psect	text43,global,reloc=2,class=CODE,delta=1
    60                           	psect	text44,global,reloc=2,class=CODE,delta=1,group=2
    61                           	psect	text45,global,reloc=2,class=CODE,delta=1,group=2
    62                           	psect	text46,global,reloc=2,class=CODE,delta=1,group=2
    63                           	psect	text47,global,reloc=2,class=CODE,delta=1,group=2
    64                           	psect	text48,global,reloc=2,class=CODE,delta=1,group=2
    65                           	psect	text49,global,reloc=2,class=CODE,delta=1,group=1
    66                           	psect	text50,global,reloc=2,class=CODE,delta=1,group=1
    67                           	psect	text51,global,reloc=2,class=CODE,delta=1,group=2
    68                           	psect	text52,global,reloc=2,class=CODE,delta=1,group=2
    69                           	psect	text53,global,reloc=2,class=CODE,delta=1,group=2
    70                           	psect	text54,global,reloc=2,class=CODE,delta=1,group=1
    71                           	psect	text55,global,reloc=2,class=CODE,delta=1,group=1
    72                           	psect	text56,global,reloc=2,class=CODE,delta=1
    73                           	psect	text57,global,reloc=2,class=CODE,delta=1
    74                           	psect	text58,global,reloc=2,class=CODE,delta=1
    75                           	psect	text59,global,reloc=2,class=CODE,delta=1
    76                           	psect	text60,global,reloc=2,class=CODE,delta=1
    77                           	psect	intsave_regs,global,class=BIGRAM,space=1,delta=1,noexec
    78                           	psect	rparam,global,class=COMRAM,space=1,delta=1,noexec
    79                           	psect	temp,global,ovrld,common,class=COMRAM,space=1,delta=1
    80  0000                     
    81                           ; Version 2.10
    82                           ; Generated 31/07/2019 GMT
    83                           ; 
    84                           ; Copyright © 2019, Microchip Technology Inc. and its subsidiaries ("Microchip")
    85                           ; All rights reserved.
    86                           ; 
    87                           ; This software is developed by Microchip Technology Inc. and its subsidiaries ("Microch
      +                          ip").
    88                           ; 
    89                           ; Redistribution and use in source and binary forms, with or without modification, are
    90                           ; permitted provided that the following conditions are met:
    91                           ; 
    92                           ;     1. Redistributions of source code must retain the above copyright notice, this lis
      +                          t of
    93                           ;        conditions and the following disclaimer.
    94                           ; 
    95                           ;     2. Redistributions in binary form must reproduce the above copyright notice, this 
      +                          list
    96                           ;        of conditions and the following disclaimer in the documentation and/or other
    97                           ;        materials provided with the distribution.
    98                           ; 
    99                           ;     3. Microchip's name may not be used to endorse or promote products derived from th
      +                          is
   100                           ;        software without specific prior written permission.
   101                           ; 
   102                           ; THIS SOFTWARE IS PROVIDED BY MICROCHIP "AS IS" AND ANY EXPRESS OR IMPLIED WARRANTIES,
   103                           ; INCLUDING, BUT NOT LIMITED TO, THE IMPLIED WARRANTIES OF MERCHANTABILITY AND FITNESS F
      +                          OR
   104                           ; PURPOSE ARE DISCLAIMED.  IN NO EVENT SHALL MICROCHIP BE LIABLE FOR ANY DIRECT, INDIREC
      +                          T,
   105                           ; INCIDENTAL, SPECIAL, EXEMPLARY, OR CONSEQUENTIAL DAMAGES (INCLUDING BUT NOT LIMITED TO
   106                           ; PROCUREMENT OF SUBSTITUTE GOODS OR SERVICES; LOSS OF USE, DATA OR PROFITS; OR BUSINESS
   107                           ; INTERRUPTION) HOWSOEVER CAUSED AND ON ANY THEORY OF LIABILITY, WHETHER IN CONTRACT, ST
      +                          RICT
   108                           ; LIABILITY, OR TORT (INCLUDING NEGLIGENCE OR OTHERWISE) ARISING IN ANY WAY OUT OF THE U
      +                          SE OF
   109                           ; THIS SOFTWARE, EVEN IF ADVISED OF THE POSSIBILITY OF SUCH DAMAGE.
   110                           ; 
   111                           ; 
   112                           ; Code-generator required, PIC18F45K50 Definitions
   113                           ; 
   114                           ; SFR Addresses
   115  0000                     
   116                           	psect	idataBANK1
   117  004F96                     __pidataBANK1:
   118                           	opt callstack 0
   119                           
   120                           ;initializer for _CEN2
   121  004F96  000B               	dw	11
   122                           
   123                           ;initializer for _CEN
   124  004F98  0001               	dw	1
   125  0000                     _ANSELB	set	3932
   126  0000                     _ANSELE	set	3935
   127  0000                     _ANSELA	set	3931
   128  0000                     _ANSELC	set	3933
   129  0000                     _ANSELD	set	3934
   130  0000                     _PIR2bits	set	4001
   131  0000                     _EECON2	set	4007
   132  0000                     _EECON1bits	set	4006
   133  0000                     _EEDATA	set	4008
   134  0000                     _EEADR	set	4009
   135  0000                     _ADCON0bits	set	4034
   136  0000                     _ADCON0	set	4034
   137  0000                     _ADRESL	set	4035
   138  0000                     _ADRESH	set	4036
   139  0000                     _ADCON2	set	4032
   140  0000                     _ADCON1	set	4033
   141  0000                     _LATEbits	set	3981
   142  0000                     _PORTD	set	3971
   143  0000                     _TRISB	set	3987
   144  0000                     _LATB	set	3978
   145  0000                     _TRISE	set	3990
   146  0000                     _LATE	set	3981
   147  0000                     _PORTE	set	3972
   148  0000                     _TRISA	set	3986
   149  0000                     _LATA	set	3977
   150  0000                     _TRISC	set	3988
   151  0000                     _PORTC	set	3970
   152  0000                     _OSCCON	set	4051
   153  0000                     _TMR2	set	4028
   154  0000                     _T2CONbits	set	4026
   155  0000                     _CCPR2L	set	3984
   156  0000                     _CCP2CON	set	3991
   157  0000                     _PR2	set	4027
   158  0000                     _T2CON	set	4026
   159  0000                     _TRISCbits	set	3988
   160  0000                     _RCONbits	set	4048
   161  0000                     _INTCON2bits	set	4081
   162  0000                     _INTCON3bits	set	4080
   163  0000                     _PORTBbits	set	3969
   164  0000                     _PORTB	set	3969
   165  0000                     _PORTA	set	3968
   166  0000                     _INTCONbits	set	4082
   167  0000                     _PORTDbits	set	3971
   168  0000                     _TRISDbits	set	3989
   169  0000                     _GO	set	32273
   170  0000                     _ADON	set	32272
   171                           
   172                           	psect	smallconst
   173  000800                     __psmallconst:
   174                           	opt callstack 0
   175  000800  00                 	db	0
   176  000801                     STR_4:
   177  000801  54                 	db	84	;'T'
   178  000802  69                 	db	105	;'i'
   179  000803  65                 	db	101	;'e'
   180  000804  6D                 	db	109	;'m'
   181  000805  70                 	db	112	;'p'
   182  000806  6F                 	db	111	;'o'
   183  000807  28                 	db	40
   184  000808  27                 	db	39
   185  000809  73                 	db	115	;'s'
   186  00080A  29                 	db	41
   187  00080B  3A                 	db	58	;':'
   188  00080C  20                 	db	32
   189  00080D  00                 	db	0
   190  00080E                     STR_3:
   191  00080E  56                 	db	86	;'V'
   192  00080F  6F                 	db	111	;'o'
   193  000810  6C                 	db	108	;'l'
   194  000811  74                 	db	116	;'t'
   195  000812  61                 	db	97	;'a'
   196  000813  6A                 	db	106	;'j'
   197  000814  65                 	db	101	;'e'
   198  000815  3A                 	db	58	;':'
   199  000816  20                 	db	32
   200  000817  00                 	db	0
   201  000818                     STR_1:
   202  000818  25                 	db	37
   203  000819  2E                 	db	46
   204  00081A  32                 	db	50	;'2'
   205  00081B  66                 	db	102	;'f'
   206  00081C  00                 	db	0
   207  00081D                     STR_6:
   208  00081D  49                 	db	73	;'I'
   209  00081E  4E                 	db	78	;'N'
   210  00081F  46                 	db	70	;'F'
   211  000820  00                 	db	0
   212  000821                     STR_10:
   213  000821  4E                 	db	78	;'N'
   214  000822  41                 	db	65	;'A'
   215  000823  4E                 	db	78	;'N'
   216  000824  00                 	db	0
   217  000825                     STR_7:
   218  000825  69                 	db	105	;'i'
   219  000826  6E                 	db	110	;'n'
   220  000827  66                 	db	102	;'f'
   221  000828  00                 	db	0
   222  000829                     STR_11:
   223  000829  6E                 	db	110	;'n'
   224  00082A  61                 	db	97	;'a'
   225  00082B  6E                 	db	110	;'n'
   226  00082C  00                 	db	0
   227  00082D                     STR_14:
   228  00082D  6C                 	db	108	;'l'
   229  00082E  66                 	db	102	;'f'
   230  00082F  00                 	db	0
   231  000830                     STR_5:
   232  000830  25                 	db	37
   233  000831  69                 	db	105	;'i'
   234  000832  00                 	db	0
   235  000833                     STR_2:
   236  000833  56                 	db	86	;'V'
   237  000834  00                 	db	0
   238  0000                     
   239                           ; #config settings
   240  000835  00                 	db	0	; dummy byte at the end
   241  0000                     
   242                           	psect	cinit
   243  004C50                     __pcinit:
   244                           	opt callstack 0
   245  004C50                     start_initialization:
   246                           	opt callstack 0
   247  004C50                     __initialization:
   248                           	opt callstack 0
   249                           
   250                           ; Initialize objects allocated to BANK1 (4 bytes)
   251                           ; load TBLPTR registers with __pidataBANK1
   252  004C50  0E96               	movlw	low __pidataBANK1
   253  004C52  6EF6               	movwf	tblptrl,c
   254  004C54  0E4F               	movlw	high __pidataBANK1
   255  004C56  6EF7               	movwf	tblptrh,c
   256  004C58  0E00               	movlw	low (__pidataBANK1 shr (0+16))
   257  004C5A  6EF8               	movwf	tblptru,c
   258  004C5C  EE01  F081         	lfsr	0,__pdataBANK1
   259  004C60  EE10 F004          	lfsr	1,4
   260  004C64                     copy_data0:
   261  004C64  0009               	tblrd		*+
   262  004C66  CFF5 FFEE          	movff	tablat,postinc0
   263  004C6A  50E5               	movf	postdec1,w,c
   264  004C6C  50E1               	movf	fsr1l,w,c
   265  004C6E  E1FA               	bnz	copy_data0
   266                           
   267                           ; Clear objects allocated to BANK1 (80 bytes)
   268  004C70  EE01  F000         	lfsr	0,__pbssBANK1
   269  004C74  0E50               	movlw	80
   270  004C76                     clear_0:
   271  004C76  6AEE               	clrf	postinc0,c
   272  004C78  06E8               	decf	wreg,f,c
   273  004C7A  E1FD               	bnz	clear_0
   274                           
   275                           ; Clear objects allocated to BANK0 (20 bytes)
   276  004C7C  EE00  F0E8         	lfsr	0,__pbssBANK0
   277  004C80  0E14               	movlw	20
   278  004C82                     clear_1:
   279  004C82  6AEE               	clrf	postinc0,c
   280  004C84  06E8               	decf	wreg,f,c
   281  004C86  E1FD               	bnz	clear_1
   282                           
   283                           ; Clear objects allocated to COMRAM (2 bytes)
   284  004C88  6A5E               	clrf	(__pbssCOMRAM+1)& (0+255),c
   285  004C8A  6A5D               	clrf	__pbssCOMRAM& (0+255),c
   286  004C8C                     end_of_initialization:
   287                           	opt callstack 0
   288  004C8C                     __end_of__initialization:
   289                           	opt callstack 0
   290  004C8C  905F               	bcf	int$flags,0,c	;clear compiler interrupt flag (level 1)
   291  004C8E  925F               	bcf	int$flags,1,c	;clear compiler interrupt flag (level 2)
   292  004C90  0E00               	movlw	low (__Lmediumconst shr (0+16))
   293  004C92  6EF8               	movwf	tblptru,c
   294  004C94  0100               	movlb	0
   295  004C96  EFA9  F022         	goto	_main	;jump to C main() function
   296                           
   297                           	psect	bssCOMRAM
   298  00005D                     __pbssCOMRAM:
   299                           	opt callstack 0
   300  00005D                     _flags:
   301                           	opt callstack 0
   302  00005D                     	ds	2
   303                           
   304                           	psect	bssBANK0
   305  0000E8                     __pbssBANK0:
   306                           	opt callstack 0
   307  0000E8                     floorf@F524:
   308                           	opt callstack 0
   309  0000E8                     	ds	4
   310  0000EC                     ___fpclassifyf@F463:
   311                           	opt callstack 0
   312  0000EC                     	ds	4
   313  0000F0                     _nout:
   314                           	opt callstack 0
   315  0000F0                     	ds	2
   316  0000F2                     _width:
   317                           	opt callstack 0
   318  0000F2                     	ds	2
   319  0000F4                     _prec:
   320                           	opt callstack 0
   321  0000F4                     	ds	2
   322  0000F6                     _eprom:
   323                           	opt callstack 0
   324  0000F6                     	ds	2
   325  0000F8                     _flag:
   326                           	opt callstack 0
   327  0000F8                     	ds	2
   328  0000FA                     _delay:
   329                           	opt callstack 0
   330  0000FA                     	ds	2
   331                           
   332                           	psect	bssBANK1
   333  000100                     __pbssBANK1:
   334                           	opt callstack 0
   335  000100                     _dbuf:
   336                           	opt callstack 0
   337  000100                     	ds	80
   338                           
   339                           	psect	dataBANK1
   340  000181                     __pdataBANK1:
   341                           	opt callstack 0
   342  000181                     _CEN2:
   343                           	opt callstack 0
   344  000181                     	ds	2
   345  000183                     _CEN:
   346                           	opt callstack 0
   347  000183                     	ds	2
   348                           
   349                           	psect	cstackBANK1
   350  000150                     __pcstackBANK1:
   351                           	opt callstack 0
   352  000150                     ??_INT_EXT_1:
   353                           
   354                           ; 1 bytes @ 0x0
   355  000150                     	ds	1
   356  000151                     ??_Lcd_Cmd:
   357  000151                     ?___lwdiv:
   358                           	opt callstack 0
   359  000151                     ?___lmul:
   360                           	opt callstack 0
   361  000151                     ?___lldiv:
   362                           	opt callstack 0
   363  000151                     segment@centenas:
   364                           	opt callstack 0
   365  000151                     segment2@centenas:
   366                           	opt callstack 0
   367  000151                     delay_s@seconds:
   368                           	opt callstack 0
   369  000151                     eeprom_guardar@DIR:
   370                           	opt callstack 0
   371  000151                     eeprom_leer@DIR:
   372                           	opt callstack 0
   373  000151                     ___lwdiv@dividend:
   374                           	opt callstack 0
   375  000151                     ___lmul@multiplier:
   376                           	opt callstack 0
   377  000151                     ___lldiv@dividend:
   378                           	opt callstack 0
   379                           
   380                           ; 4 bytes @ 0x1
   381  000151                     	ds	2
   382  000153                     ??_delay_s:
   383  000153                     Lcd_Cmd@data:
   384                           	opt callstack 0
   385  000153                     eeprom_guardar@DATE:
   386                           	opt callstack 0
   387  000153                     ___lwdiv@divisor:
   388                           	opt callstack 0
   389                           
   390                           ; 2 bytes @ 0x3
   391  000153                     	ds	1
   392  000154                     ??_Lcd_Init:
   393                           
   394                           ; 1 bytes @ 0x4
   395  000154                     	ds	1
   396  000155                     Lcd_Init@data:
   397                           	opt callstack 0
   398  000155                     ___lwdiv@quotient:
   399                           	opt callstack 0
   400  000155                     ___lmul@multiplicand:
   401                           	opt callstack 0
   402  000155                     ___lldiv@divisor:
   403                           	opt callstack 0
   404                           
   405                           ; 4 bytes @ 0x5
   406  000155                     	ds	2
   407  000157                     ___lwdiv@counter:
   408                           	opt callstack 0
   409                           
   410                           ; 1 bytes @ 0x7
   411  000157                     	ds	1
   412  000158                     mostrar_inc@duty:
   413                           	opt callstack 0
   414                           
   415                           ; 2 bytes @ 0x8
   416  000158                     	ds	1
   417  000159                     ___lmul@product:
   418                           	opt callstack 0
   419  000159                     ___lldiv@quotient:
   420                           	opt callstack 0
   421                           
   422                           ; 4 bytes @ 0x9
   423  000159                     	ds	1
   424  00015A                     mostrar_inc@por_pwm:
   425                           	opt callstack 0
   426                           
   427                           ; 2 bytes @ 0xA
   428  00015A                     	ds	2
   429  00015C                     mostrar_inc@par:
   430                           	opt callstack 0
   431                           
   432                           ; 2 bytes @ 0xC
   433  00015C                     	ds	1
   434  00015D                     ___lldiv@counter:
   435                           	opt callstack 0
   436                           
   437                           ; 1 bytes @ 0xD
   438  00015D                     	ds	1
   439  00015E                     PWM_generar@duty:
   440                           	opt callstack 0
   441                           
   442                           ; 2 bytes @ 0xE
   443  00015E                     	ds	2
   444  000160                     PWM_generar@fpwm:
   445                           	opt callstack 0
   446                           
   447                           ; 2 bytes @ 0x10
   448  000160                     	ds	2
   449  000162                     ??_PWM_generar:
   450                           
   451                           ; 1 bytes @ 0x12
   452  000162                     	ds	4
   453  000166                     PWM_generar@prescalador:
   454                           	opt callstack 0
   455                           
   456                           ; 2 bytes @ 0x16
   457  000166                     	ds	2
   458  000168                     PWM_generar@AuxCCP2CON:
   459                           	opt callstack 0
   460                           
   461                           ; 2 bytes @ 0x18
   462  000168                     	ds	2
   463  00016A                     PWM_generar@PR2cal:
   464                           	opt callstack 0
   465                           
   466                           ; 4 bytes @ 0x1A
   467  00016A                     	ds	4
   468  00016E                     PWM_generar@AuxCCPR2L:
   469                           	opt callstack 0
   470                           
   471                           ; 4 bytes @ 0x1E
   472  00016E                     	ds	4
   473  000172                     mostrar_dec@duty:
   474                           	opt callstack 0
   475                           
   476                           ; 2 bytes @ 0x22
   477  000172                     	ds	2
   478  000174                     mostrar_dec@por_pwm:
   479                           	opt callstack 0
   480                           
   481                           ; 2 bytes @ 0x24
   482  000174                     	ds	2
   483  000176                     mostrar_dec@par:
   484                           	opt callstack 0
   485                           
   486                           ; 2 bytes @ 0x26
   487  000176                     	ds	2
   488  000178                     Dutty_Pwm@fpwm:
   489                           	opt callstack 0
   490                           
   491                           ; 2 bytes @ 0x28
   492  000178                     	ds	2
   493  00017A                     Dutty_Pwm@delay:
   494                           	opt callstack 0
   495                           
   496                           ; 2 bytes @ 0x2A
   497  00017A                     	ds	2
   498  00017C                     Dutty_Pwm@i:
   499                           	opt callstack 0
   500                           
   501                           ; 2 bytes @ 0x2C
   502  00017C                     	ds	2
   503  00017E                     Dutty_Pwm@k:
   504                           	opt callstack 0
   505                           
   506                           ; 2 bytes @ 0x2E
   507  00017E                     	ds	2
   508  000180                     ??_main:
   509                           
   510                           ; 1 bytes @ 0x30
   511  000180                     	ds	1
   512                           
   513                           	psect	cstackBANK0
   514  000060                     __pcstackBANK0:
   515                           	opt callstack 0
   516  000060                     efgtoa@ou:
   517                           	opt callstack 0
   518                           
   519                           ; 4 bytes @ 0x0
   520  000060                     	ds	4
   521  000064                     _efgtoa$984:
   522                           	opt callstack 0
   523                           
   524                           ; 2 bytes @ 0x4
   525  000064                     	ds	2
   526  000066                     _efgtoa$985:
   527                           	opt callstack 0
   528                           
   529                           ; 2 bytes @ 0x6
   530  000066                     	ds	2
   531  000068                     _efgtoa$989:
   532                           	opt callstack 0
   533                           
   534                           ; 2 bytes @ 0x8
   535  000068                     	ds	2
   536  00006A                     _efgtoa$993:
   537                           	opt callstack 0
   538                           
   539                           ; 2 bytes @ 0xA
   540  00006A                     	ds	2
   541  00006C                     _efgtoa$994:
   542                           	opt callstack 0
   543                           
   544                           ; 2 bytes @ 0xC
   545  00006C                     	ds	2
   546  00006E                     _efgtoa$995:
   547                           	opt callstack 0
   548                           
   549                           ; 2 bytes @ 0xE
   550  00006E                     	ds	2
   551  000070                     efgtoa@t:
   552                           	opt callstack 0
   553                           
   554                           ; 2 bytes @ 0x10
   555  000070                     	ds	2
   556  000072                     efgtoa@pp:
   557                           	opt callstack 0
   558                           
   559                           ; 2 bytes @ 0x12
   560  000072                     	ds	2
   561  000074                     efgtoa@m:
   562                           	opt callstack 0
   563                           
   564                           ; 2 bytes @ 0x14
   565  000074                     	ds	2
   566  000076                     efgtoa@ne:
   567                           	opt callstack 0
   568                           
   569                           ; 2 bytes @ 0x16
   570  000076                     	ds	2
   571  000078                     efgtoa@d:
   572                           	opt callstack 0
   573                           
   574                           ; 2 bytes @ 0x18
   575  000078                     	ds	2
   576  00007A                     efgtoa@sign:
   577                           	opt callstack 0
   578                           
   579                           ; 2 bytes @ 0x1A
   580  00007A                     	ds	2
   581  00007C                     efgtoa@p:
   582                           	opt callstack 0
   583                           
   584                           ; 2 bytes @ 0x1C
   585  00007C                     	ds	2
   586  00007E                     efgtoa@nmode:
   587                           	opt callstack 0
   588                           
   589                           ; 1 bytes @ 0x1E
   590  00007E                     	ds	1
   591  00007F                     efgtoa@w:
   592                           	opt callstack 0
   593                           
   594                           ; 2 bytes @ 0x1F
   595  00007F                     	ds	2
   596  000081                     efgtoa@mode:
   597                           	opt callstack 0
   598                           
   599                           ; 1 bytes @ 0x21
   600  000081                     	ds	1
   601  000082                     efgtoa@h:
   602                           	opt callstack 0
   603                           
   604                           ; 4 bytes @ 0x22
   605  000082                     	ds	4
   606  000086                     efgtoa@l:
   607                           	opt callstack 0
   608                           
   609                           ; 4 bytes @ 0x26
   610  000086                     	ds	4
   611  00008A                     efgtoa@i:
   612                           	opt callstack 0
   613                           
   614                           ; 2 bytes @ 0x2A
   615  00008A                     	ds	2
   616  00008C                     efgtoa@g:
   617                           	opt callstack 0
   618                           
   619                           ; 4 bytes @ 0x2C
   620  00008C                     	ds	4
   621  000090                     efgtoa@e:
   622                           	opt callstack 0
   623                           
   624                           ; 2 bytes @ 0x30
   625  000090                     	ds	2
   626  000092                     efgtoa@n:
   627                           	opt callstack 0
   628                           
   629                           ; 2 bytes @ 0x32
   630  000092                     	ds	2
   631  000094                     efgtoa@u:
   632                           	opt callstack 0
   633                           
   634                           ; 4 bytes @ 0x34
   635  000094                     	ds	4
   636  000098                     vfpfcnvrt@ll:
   637                           	opt callstack 0
   638                           
   639                           ; 8 bytes @ 0x38
   640  000098                     	ds	8
   641  0000A0                     _vfpfcnvrt$1009:
   642                           	opt callstack 0
   643                           
   644                           ; 2 bytes @ 0x40
   645  0000A0                     	ds	2
   646  0000A2                     _vfpfcnvrt$1014:
   647                           	opt callstack 0
   648                           
   649                           ; 2 bytes @ 0x42
   650  0000A2                     	ds	2
   651  0000A4                     vfpfcnvrt@f:
   652                           	opt callstack 0
   653                           
   654                           ; 4 bytes @ 0x44
   655  0000A4                     	ds	4
   656  0000A8                     vfpfcnvrt@ct:
   657                           	opt callstack 0
   658                           
   659                           ; 3 bytes @ 0x48
   660  0000A8                     	ds	3
   661  0000AB                     vfpfcnvrt@c:
   662                           	opt callstack 0
   663                           
   664                           ; 1 bytes @ 0x4B
   665  0000AB                     	ds	1
   666  0000AC                     ?_sprintf:
   667                           	opt callstack 0
   668  0000AC                     sprintf@s:
   669                           	opt callstack 0
   670                           
   671                           ; 2 bytes @ 0x4C
   672  0000AC                     	ds	2
   673  0000AE                     sprintf@fmt:
   674                           	opt callstack 0
   675                           
   676                           ; 2 bytes @ 0x4E
   677  0000AE                     	ds	8
   678  0000B6                     sprintf@ap:
   679                           	opt callstack 0
   680                           
   681                           ; 2 bytes @ 0x56
   682  0000B6                     	ds	2
   683  0000B8                     sprintf@f:
   684                           	opt callstack 0
   685                           
   686                           ; 6 bytes @ 0x58
   687  0000B8                     	ds	6
   688  0000BE                     ??_INT_EX_0:
   689                           
   690                           ; 1 bytes @ 0x5E
   691  0000BE                     	ds	12
   692  0000CA                     INT_EX_0@temp:
   693                           	opt callstack 0
   694                           
   695                           ; 10 bytes @ 0x6A
   696  0000CA                     	ds	10
   697  0000D4                     INT_EX_0@data:
   698                           	opt callstack 0
   699                           
   700                           ; 10 bytes @ 0x74
   701  0000D4                     	ds	10
   702  0000DE                     INT_EX_0@digital:
   703                           	opt callstack 0
   704                           
   705                           ; 2 bytes @ 0x7E
   706  0000DE                     	ds	2
   707  0000E0                     INT_EX_0@i:
   708                           	opt callstack 0
   709                           
   710                           ; 2 bytes @ 0x80
   711  0000E0                     	ds	2
   712  0000E2                     INT_EX_0@j:
   713                           	opt callstack 0
   714                           
   715                           ; 2 bytes @ 0x82
   716  0000E2                     	ds	2
   717  0000E4                     INT_EX_0@voltage:
   718                           	opt callstack 0
   719                           
   720                           ; 4 bytes @ 0x84
   721  0000E4                     	ds	4
   722                           
   723                           	psect	cstackCOMRAM
   724  000001                     __pcstackCOMRAM:
   725                           	opt callstack 0
   726  000001                     ??_Lcd_Chr_CP:
   727  000001                     ??i2_Lcd_Cmd:
   728  000001                     ?_ADC_Read:
   729                           	opt callstack 0
   730  000001                     ?_strlen:
   731                           	opt callstack 0
   732  000001                     ?___fpclassifyf:
   733                           	opt callstack 0
   734  000001                     ?_isupper:
   735                           	opt callstack 0
   736  000001                     ?_isdigit:
   737                           	opt callstack 0
   738  000001                     ?_strncmp:
   739                           	opt callstack 0
   740  000001                     ?_isspace:
   741                           	opt callstack 0
   742  000001                     ?___wmul:
   743                           	opt callstack 0
   744  000001                     ?___awdiv:
   745                           	opt callstack 0
   746  000001                     ?___awmod:
   747                           	opt callstack 0
   748  000001                     ?___fladd:
   749                           	opt callstack 0
   750  000001                     ?___fldiv:
   751                           	opt callstack 0
   752  000001                     ?___flneg:
   753                           	opt callstack 0
   754  000001                     ?___xxtofl:
   755                           	opt callstack 0
   756  000001                     ?___aodiv:
   757                           	opt callstack 0
   758  000001                     ?___aomod:
   759                           	opt callstack 0
   760  000001                     ADC_Read@channel:
   761                           	opt callstack 0
   762  000001                     ___wmul@multiplier:
   763                           	opt callstack 0
   764  000001                     ___awdiv@dividend:
   765                           	opt callstack 0
   766  000001                     ___awmod@dividend:
   767                           	opt callstack 0
   768  000001                     isdigit@c:
   769                           	opt callstack 0
   770  000001                     isspace@c:
   771                           	opt callstack 0
   772  000001                     isupper@c:
   773                           	opt callstack 0
   774  000001                     fputc@c:
   775                           	opt callstack 0
   776  000001                     strlen@s:
   777                           	opt callstack 0
   778  000001                     strncmp@_l:
   779                           	opt callstack 0
   780  000001                     i2eeprom_guardar@DIR:
   781                           	opt callstack 0
   782  000001                     i2eeprom_leer@DIR:
   783                           	opt callstack 0
   784  000001                     ___fleq@ff1:
   785                           	opt callstack 0
   786  000001                     ___flneg@f1:
   787                           	opt callstack 0
   788  000001                     ___fladd@b:
   789                           	opt callstack 0
   790  000001                     ___fldiv@b:
   791                           	opt callstack 0
   792  000001                     ___xxtofl@val:
   793                           	opt callstack 0
   794  000001                     ___fpclassifyf@x:
   795                           	opt callstack 0
   796  000001                     ___aodiv@dividend:
   797                           	opt callstack 0
   798  000001                     ___aomod@dividend:
   799                           	opt callstack 0
   800                           
   801                           ; 8 bytes @ 0x0
   802  000001                     	ds	2
   803  000003                     ??_ADC_Read:
   804  000003                     ??_isupper:
   805  000003                     ??_isdigit:
   806  000003                     ??_isspace:
   807  000003                     Lcd_Chr_CP@data:
   808                           	opt callstack 0
   809  000003                     i2Lcd_Cmd@data:
   810                           	opt callstack 0
   811  000003                     i2eeprom_guardar@DATE:
   812                           	opt callstack 0
   813  000003                     ___wmul@multiplicand:
   814                           	opt callstack 0
   815  000003                     ___awdiv@divisor:
   816                           	opt callstack 0
   817  000003                     ___awmod@divisor:
   818                           	opt callstack 0
   819  000003                     fputc@fp:
   820                           	opt callstack 0
   821  000003                     strlen@a:
   822                           	opt callstack 0
   823  000003                     strncmp@_r:
   824                           	opt callstack 0
   825                           
   826                           ; 2 bytes @ 0x2
   827  000003                     	ds	1
   828  000004                     Lcd_Out@x:
   829                           	opt callstack 0
   830  000004                     Lcd_Out2@x:
   831                           	opt callstack 0
   832                           
   833                           ; 1 bytes @ 0x3
   834  000004                     	ds	1
   835  000005                     ??_fputc:
   836  000005                     ??___fpclassifyf:
   837  000005                     ??___xxtofl:
   838  000005                     ___awdiv@counter:
   839                           	opt callstack 0
   840  000005                     ___awmod@counter:
   841                           	opt callstack 0
   842  000005                     Lcd_Out@buffer:
   843                           	opt callstack 0
   844  000005                     Lcd_Out2@buffer:
   845                           	opt callstack 0
   846  000005                     ___wmul@product:
   847                           	opt callstack 0
   848  000005                     strcpy@dest:
   849                           	opt callstack 0
   850  000005                     strncmp@n:
   851                           	opt callstack 0
   852  000005                     ___fleq@ff2:
   853                           	opt callstack 0
   854  000005                     ___fladd@a:
   855                           	opt callstack 0
   856  000005                     ___fldiv@a:
   857                           	opt callstack 0
   858                           
   859                           ; 4 bytes @ 0x4
   860  000005                     	ds	1
   861  000006                     ___awdiv@sign:
   862                           	opt callstack 0
   863  000006                     ___awmod@sign:
   864                           	opt callstack 0
   865                           
   866                           ; 1 bytes @ 0x5
   867  000006                     	ds	1
   868  000007                     ??_strncmp:
   869  000007                     ??_Lcd_Out:
   870  000007                     ??_Lcd_Out2:
   871  000007                     ?_tolower:
   872                           	opt callstack 0
   873  000007                     _isspace$1518:
   874                           	opt callstack 0
   875  000007                     ADC_Read@digital:
   876                           	opt callstack 0
   877  000007                     ___awdiv@quotient:
   878                           	opt callstack 0
   879  000007                     strcpy@src:
   880                           	opt callstack 0
   881  000007                     tolower@c:
   882                           	opt callstack 0
   883                           
   884                           ; 2 bytes @ 0x6
   885  000007                     	ds	1
   886  000008                     ?_atoi:
   887                           	opt callstack 0
   888  000008                     atoi@s:
   889                           	opt callstack 0
   890  000008                     strncmp@l:
   891                           	opt callstack 0
   892                           
   893                           ; 2 bytes @ 0x7
   894  000008                     	ds	1
   895  000009                     ??_strcpy:
   896  000009                     ??_tolower:
   897  000009                     ??___fladd:
   898  000009                     ??___fldiv:
   899  000009                     ??___fleq:
   900  000009                     Lcd_Out@y:
   901                           	opt callstack 0
   902  000009                     Lcd_Out2@y:
   903                           	opt callstack 0
   904  000009                     ___xxtofl@sign:
   905                           	opt callstack 0
   906  000009                     ___fpclassifyf@e:
   907                           	opt callstack 0
   908  000009                     ___aodiv@divisor:
   909                           	opt callstack 0
   910  000009                     ___aomod@divisor:
   911                           	opt callstack 0
   912                           
   913                           ; 8 bytes @ 0x8
   914  000009                     	ds	1
   915  00000A                     ??_atoi:
   916  00000A                     Lcd_Out@data:
   917                           	opt callstack 0
   918  00000A                     Lcd_Out2@data:
   919                           	opt callstack 0
   920  00000A                     ___xxtofl@exp:
   921                           	opt callstack 0
   922  00000A                     fputs@s:
   923                           	opt callstack 0
   924  00000A                     strncmp@r:
   925                           	opt callstack 0
   926                           
   927                           ; 2 bytes @ 0x9
   928  00000A                     	ds	1
   929  00000B                     strcpy@s:
   930                           	opt callstack 0
   931  00000B                     ___xxtofl@arg:
   932                           	opt callstack 0
   933  00000B                     ___fpclassifyf@u:
   934                           	opt callstack 0
   935                           
   936                           ; 4 bytes @ 0xA
   937  00000B                     	ds	1
   938  00000C                     fputs@fp:
   939                           	opt callstack 0
   940                           
   941                           ; 2 bytes @ 0xB
   942  00000C                     	ds	1
   943  00000D                     ___fladd@signs:
   944                           	opt callstack 0
   945  00000D                     strcpy@d:
   946                           	opt callstack 0
   947  00000D                     _tolower$1610:
   948                           	opt callstack 0
   949  00000D                     ___fldiv@rem:
   950                           	opt callstack 0
   951                           
   952                           ; 4 bytes @ 0xC
   953  00000D                     	ds	1
   954  00000E                     ___fladd@aexp:
   955                           	opt callstack 0
   956  00000E                     fputs@c:
   957                           	opt callstack 0
   958  00000E                     atoi@neg:
   959                           	opt callstack 0
   960                           
   961                           ; 2 bytes @ 0xD
   962  00000E                     	ds	1
   963  00000F                     ___fladd@bexp:
   964                           	opt callstack 0
   965  00000F                     fputs@i:
   966                           	opt callstack 0
   967  00000F                     strcat@dest:
   968                           	opt callstack 0
   969                           
   970                           ; 2 bytes @ 0xE
   971  00000F                     	ds	1
   972  000010                     ___fladd@grs:
   973                           	opt callstack 0
   974  000010                     _atoi$1487:
   975                           	opt callstack 0
   976                           
   977                           ; 2 bytes @ 0xF
   978  000010                     	ds	1
   979  000011                     ?_pad:
   980                           	opt callstack 0
   981  000011                     ___aodiv@counter:
   982                           	opt callstack 0
   983  000011                     ___aomod@counter:
   984                           	opt callstack 0
   985  000011                     ___fldiv@sign:
   986                           	opt callstack 0
   987  000011                     pad@fp:
   988                           	opt callstack 0
   989  000011                     strcat@src:
   990                           	opt callstack 0
   991                           
   992                           ; 2 bytes @ 0x10
   993  000011                     	ds	1
   994  000012                     ___aodiv@sign:
   995                           	opt callstack 0
   996  000012                     ___aomod@sign:
   997                           	opt callstack 0
   998  000012                     ___fldiv@new_exp:
   999                           	opt callstack 0
  1000  000012                     _atoi$1489:
  1001                           	opt callstack 0
  1002                           
  1003                           ; 2 bytes @ 0x11
  1004  000012                     	ds	1
  1005  000013                     ?_abs:
  1006                           	opt callstack 0
  1007  000013                     pad@buf:
  1008                           	opt callstack 0
  1009  000013                     abs@a:
  1010                           	opt callstack 0
  1011  000013                     ___aodiv@quotient:
  1012                           	opt callstack 0
  1013                           
  1014                           ; 8 bytes @ 0x12
  1015  000013                     	ds	1
  1016  000014                     _atoi$1488:
  1017                           	opt callstack 0
  1018  000014                     ___fldiv@grs:
  1019                           	opt callstack 0
  1020                           
  1021                           ; 4 bytes @ 0x13
  1022  000014                     	ds	1
  1023  000015                     ??_abs:
  1024  000015                     pad@p:
  1025                           	opt callstack 0
  1026  000015                     atoi@n:
  1027                           	opt callstack 0
  1028                           
  1029                           ; 2 bytes @ 0x14
  1030  000015                     	ds	2
  1031  000017                     ??_pad:
  1032                           
  1033                           ; 1 bytes @ 0x16
  1034  000017                     	ds	1
  1035  000018                     ___fldiv@bexp:
  1036                           	opt callstack 0
  1037  000018                     pad@i:
  1038                           	opt callstack 0
  1039                           
  1040                           ; 2 bytes @ 0x17
  1041  000018                     	ds	1
  1042  000019                     ___fldiv@aexp:
  1043                           	opt callstack 0
  1044                           
  1045                           ; 1 bytes @ 0x18
  1046  000019                     	ds	1
  1047  00001A                     ?_floorf:
  1048                           	opt callstack 0
  1049  00001A                     ?___flmul:
  1050                           	opt callstack 0
  1051  00001A                     pad@w:
  1052                           	opt callstack 0
  1053  00001A                     ___flmul@b:
  1054                           	opt callstack 0
  1055  00001A                     floorf@x:
  1056                           	opt callstack 0
  1057                           
  1058                           ; 4 bytes @ 0x19
  1059  00001A                     	ds	2
  1060  00001C                     ?_dtoa:
  1061                           	opt callstack 0
  1062  00001C                     dtoa@fp:
  1063                           	opt callstack 0
  1064                           
  1065                           ; 2 bytes @ 0x1B
  1066  00001C                     	ds	2
  1067  00001E                     ??_floorf:
  1068  00001E                     ___flmul@a:
  1069                           	opt callstack 0
  1070  00001E                     dtoa@d:
  1071                           	opt callstack 0
  1072                           
  1073                           ; 8 bytes @ 0x1D
  1074  00001E                     	ds	4
  1075  000022                     ??___flmul:
  1076                           
  1077                           ; 1 bytes @ 0x21
  1078  000022                     	ds	2
  1079  000024                     floorf@m:
  1080                           	opt callstack 0
  1081                           
  1082                           ; 4 bytes @ 0x23
  1083  000024                     	ds	2
  1084  000026                     ??_dtoa:
  1085  000026                     ___flmul@sign:
  1086                           	opt callstack 0
  1087                           
  1088                           ; 1 bytes @ 0x25
  1089  000026                     	ds	1
  1090  000027                     ___flmul@grs:
  1091                           	opt callstack 0
  1092                           
  1093                           ; 4 bytes @ 0x26
  1094  000027                     	ds	1
  1095  000028                     floorf@e:
  1096                           	opt callstack 0
  1097                           
  1098                           ; 2 bytes @ 0x27
  1099  000028                     	ds	2
  1100  00002A                     floorf@u:
  1101                           	opt callstack 0
  1102                           
  1103                           ; 4 bytes @ 0x29
  1104  00002A                     	ds	1
  1105  00002B                     ___flmul@aexp:
  1106                           	opt callstack 0
  1107                           
  1108                           ; 1 bytes @ 0x2A
  1109  00002B                     	ds	1
  1110  00002C                     ___flmul@bexp:
  1111                           	opt callstack 0
  1112                           
  1113                           ; 1 bytes @ 0x2B
  1114  00002C                     	ds	1
  1115  00002D                     ___flmul@prod:
  1116                           	opt callstack 0
  1117                           
  1118                           ; 4 bytes @ 0x2C
  1119  00002D                     	ds	1
  1120  00002E                     _dtoa$960:
  1121                           	opt callstack 0
  1122                           
  1123                           ; 2 bytes @ 0x2D
  1124  00002E                     	ds	2
  1125  000030                     dtoa@p:
  1126                           	opt callstack 0
  1127                           
  1128                           ; 2 bytes @ 0x2F
  1129  000030                     	ds	1
  1130  000031                     ___flmul@temp:
  1131                           	opt callstack 0
  1132                           
  1133                           ; 2 bytes @ 0x30
  1134  000031                     	ds	1
  1135  000032                     dtoa@w:
  1136                           	opt callstack 0
  1137                           
  1138                           ; 2 bytes @ 0x31
  1139  000032                     	ds	1
  1140  000033                     ?___flsub:
  1141                           	opt callstack 0
  1142  000033                     ?___fltol:
  1143                           	opt callstack 0
  1144  000033                     ___flge@ff1:
  1145                           	opt callstack 0
  1146  000033                     ___fltol@f1:
  1147                           	opt callstack 0
  1148  000033                     ___flsub@b:
  1149                           	opt callstack 0
  1150                           
  1151                           ; 4 bytes @ 0x32
  1152  000033                     	ds	1
  1153  000034                     dtoa@s:
  1154                           	opt callstack 0
  1155                           
  1156                           ; 2 bytes @ 0x33
  1157  000034                     	ds	2
  1158  000036                     dtoa@n:
  1159                           	opt callstack 0
  1160                           
  1161                           ; 8 bytes @ 0x35
  1162  000036                     	ds	1
  1163  000037                     ??___fltol:
  1164  000037                     ___flge@ff2:
  1165                           	opt callstack 0
  1166  000037                     ___flsub@a:
  1167                           	opt callstack 0
  1168                           
  1169                           ; 4 bytes @ 0x36
  1170  000037                     	ds	4
  1171  00003B                     ??___flge:
  1172  00003B                     ___fltol@sign1:
  1173                           	opt callstack 0
  1174                           
  1175                           ; 1 bytes @ 0x3A
  1176  00003B                     	ds	1
  1177  00003C                     ___fltol@exp1:
  1178                           	opt callstack 0
  1179                           
  1180                           ; 1 bytes @ 0x3B
  1181  00003C                     	ds	2
  1182  00003E                     dtoa@i:
  1183                           	opt callstack 0
  1184                           
  1185                           ; 2 bytes @ 0x3D
  1186  00003E                     	ds	1
  1187  00003F                     ?_efgtoa:
  1188                           	opt callstack 0
  1189  00003F                     efgtoa@fp:
  1190                           	opt callstack 0
  1191                           
  1192                           ; 2 bytes @ 0x3E
  1193  00003F                     	ds	2
  1194  000041                     efgtoa@f:
  1195                           	opt callstack 0
  1196                           
  1197                           ; 4 bytes @ 0x40
  1198  000041                     	ds	4
  1199  000045                     efgtoa@c:
  1200                           	opt callstack 0
  1201                           
  1202                           ; 1 bytes @ 0x44
  1203  000045                     	ds	1
  1204  000046                     ??_efgtoa:
  1205                           
  1206                           ; 1 bytes @ 0x45
  1207  000046                     	ds	5
  1208  00004B                     ?_vfpfcnvrt:
  1209                           	opt callstack 0
  1210  00004B                     vfpfcnvrt@fp:
  1211                           	opt callstack 0
  1212                           
  1213                           ; 2 bytes @ 0x4A
  1214  00004B                     	ds	2
  1215  00004D                     vfpfcnvrt@fmt:
  1216                           	opt callstack 0
  1217                           
  1218                           ; 2 bytes @ 0x4C
  1219  00004D                     	ds	2
  1220  00004F                     vfpfcnvrt@ap:
  1221                           	opt callstack 0
  1222                           
  1223                           ; 2 bytes @ 0x4E
  1224  00004F                     	ds	2
  1225  000051                     ??_vfpfcnvrt:
  1226                           
  1227                           ; 1 bytes @ 0x50
  1228  000051                     	ds	4
  1229  000055                     ?_vfprintf:
  1230                           	opt callstack 0
  1231  000055                     vfprintf@fp:
  1232                           	opt callstack 0
  1233                           
  1234                           ; 2 bytes @ 0x54
  1235  000055                     	ds	2
  1236  000057                     vfprintf@fmt:
  1237                           	opt callstack 0
  1238                           
  1239                           ; 2 bytes @ 0x56
  1240  000057                     	ds	2
  1241  000059                     vfprintf@ap:
  1242                           	opt callstack 0
  1243                           
  1244                           ; 2 bytes @ 0x58
  1245  000059                     	ds	2
  1246  00005B                     vfprintf@cfmt:
  1247                           	opt callstack 0
  1248                           
  1249                           ; 2 bytes @ 0x5A
  1250  00005B                     	ds	2
  1251  00005D                     
  1252                           ; 1 bytes @ 0x5C
  1253 ;;
  1254 ;;Main: autosize = 0, tempsize = 1, incstack = 0, save=0
  1255 ;;
  1256 ;; *************** function _main *****************
  1257 ;; Defined at:
  1258 ;;		line 73 in file "main.c"
  1259 ;; Parameters:    Size  Location     Type
  1260 ;;		None
  1261 ;; Auto vars:     Size  Location     Type
  1262 ;;  m               2    0        int 
  1263 ;;  i               2    0        int 
  1264 ;; Return value:  Size  Location     Type
  1265 ;;                  1    wreg      void 
  1266 ;; Registers used:
  1267 ;;		wreg, status,2, status,0, cstack
  1268 ;; Tracked objects:
  1269 ;;		On entry : 0/0
  1270 ;;		On exit  : 0/0
  1271 ;;		Unchanged: 0/0
  1272 ;; Data sizes:     COMRAM   BANK0   BANK1   BANK2   BANK3   BANK4   BANK5   BANK6   BANK7
  1273 ;;      Params:         0       0       0       0       0       0       0       0       0
  1274 ;;      Locals:         0       0       0       0       0       0       0       0       0
  1275 ;;      Temps:          0       0       1       0       0       0       0       0       0
  1276 ;;      Totals:         0       0       1       0       0       0       0       0       0
  1277 ;;Total ram usage:        1 bytes
  1278 ;; Hardware stack levels required when called:   14
  1279 ;; This function calls:
  1280 ;;		_ADC_Init
  1281 ;;		_Dutty_Pwm
  1282 ;;		_Lcd_Cmd
  1283 ;;		_Lcd_Init
  1284 ;;		_declet
  1285 ;;		_eeprom_guardar
  1286 ;;		_eeprom_leer
  1287 ;; This function is called by:
  1288 ;;		Startup code after reset
  1289 ;; This function uses a non-reentrant model
  1290 ;;
  1291                           
  1292                           	psect	text0
  1293  004552                     __ptext0:
  1294                           	opt callstack 0
  1295  004552                     _main:
  1296                           	opt callstack 17
  1297  004552                     
  1298                           ;main.c: 74:     int i,m;;main.c: 75:     INTCONbits.INT0IE=1;
  1299  004552  88F2               	bsf	242,4,c	;volatile
  1300                           
  1301                           ;main.c: 76:     INTCON3bits.INT1IE=1;
  1302  004554  86F0               	bsf	240,3,c	;volatile
  1303                           
  1304                           ;main.c: 77:     INTCON2bits.INTEDG0=0;
  1305  004556  9CF1               	bcf	241,6,c	;volatile
  1306                           
  1307                           ;main.c: 78:     INTCON2bits.INTEDG1=0;
  1308  004558  9AF1               	bcf	241,5,c	;volatile
  1309                           
  1310                           ;main.c: 79:     RCONbits.IPEN=1;
  1311  00455A  8ED0               	bsf	208,7,c	;volatile
  1312                           
  1313                           ;main.c: 80:     INTCONbits.GIEH=1;
  1314  00455C  8EF2               	bsf	242,7,c	;volatile
  1315                           
  1316                           ;main.c: 81:     INTCONbits.GIEL=1;
  1317  00455E  8CF2               	bsf	242,6,c	;volatile
  1318  004560                     
  1319                           ;main.c: 84:     declet();
  1320  004560  EC4D  F026         	call	_declet	;wreg free
  1321                           
  1322                           ;main.c: 85:     ADC_Init();
  1323  004564  ECB4  F027         	call	_ADC_Init	;wreg free
  1324  004568                     
  1325                           ;main.c: 86:     Lcd_Init();
  1326  004568  EC0C  F01C         	call	_Lcd_Init	;wreg free
  1327  00456C                     
  1328                           ;main.c: 87:     Lcd_Cmd(1);
  1329  00456C  0E01               	movlw	1
  1330  00456E  ECDC  F01A         	call	_Lcd_Cmd
  1331  004572                     
  1332                           ;main.c: 88:     Lcd_Cmd(12);
  1333  004572  0E0C               	movlw	12
  1334  004574  ECDC  F01A         	call	_Lcd_Cmd
  1335  004578                     
  1336                           ;main.c: 89:     eeprom_guardar(0,0);
  1337  004578  0E00               	movlw	0
  1338  00457A  0101               	movlb	1	; () banked
  1339  00457C  6F52               	movwf	(eeprom_guardar@DIR+1)& (0+255),b
  1340  00457E  0E00               	movlw	0
  1341  004580  6F51               	movwf	eeprom_guardar@DIR& (0+255),b
  1342  004582  0E00               	movlw	0
  1343  004584  6F53               	movwf	eeprom_guardar@DATE& (0+255),b
  1344  004586  EC62  F027         	call	_eeprom_guardar	;wreg free
  1345                           
  1346                           ;main.c: 90:     eprom=eeprom_leer(0x00);
  1347  00458A  0E00               	movlw	0
  1348  00458C  0101               	movlb	1	; () banked
  1349  00458E  6F52               	movwf	(eeprom_leer@DIR+1)& (0+255),b
  1350  004590  0E00               	movlw	0
  1351  004592  6F51               	movwf	eeprom_leer@DIR& (0+255),b
  1352  004594  ECBD  F027         	call	_eeprom_leer	;wreg free
  1353  004598  0101               	movlb	1	; () banked
  1354  00459A  6F80               	movwf	??_main& (0+255),b
  1355  00459C  5180               	movf	??_main& (0+255),w,b
  1356  00459E  0100               	movlb	0	; () banked
  1357  0045A0  6FF6               	movwf	_eprom& (0+255),b
  1358  0045A2  6BF7               	clrf	(_eprom+1)& (0+255),b
  1359  0045A4                     l5625:
  1360                           
  1361                           ;main.c: 92:         if(flag==1){Dutty_Pwm(1000,delay);}
  1362  0045A4  0100               	movlb	0	; () banked
  1363  0045A6  05F8               	decf	_flag& (0+255),w,b
  1364  0045A8  11F9               	iorwf	(_flag+1)& (0+255),w,b
  1365  0045AA  A4D8               	btfss	status,2,c
  1366  0045AC  EFDA  F022         	goto	u6851
  1367  0045B0  EFDC  F022         	goto	u6850
  1368  0045B4                     u6851:
  1369  0045B4  EFE9  F022         	goto	l5629
  1370  0045B8                     u6850:
  1371  0045B8                     
  1372                           ; BSR set to: 0
  1373  0045B8  0E03               	movlw	3
  1374  0045BA  0101               	movlb	1	; () banked
  1375  0045BC  6F79               	movwf	(Dutty_Pwm@fpwm+1)& (0+255),b
  1376  0045BE  0EE8               	movlw	232
  1377  0045C0  6F78               	movwf	Dutty_Pwm@fpwm& (0+255),b
  1378  0045C2  C0FA  F17A         	movff	_delay,Dutty_Pwm@delay
  1379  0045C6  C0FB  F17B         	movff	_delay+1,Dutty_Pwm@delay+1
  1380  0045CA  ECDC  F01F         	call	_Dutty_Pwm	;wreg free
  1381  0045CE  EFD2  F022         	goto	l5625
  1382  0045D2                     l5629:
  1383                           
  1384                           ; BSR set to: 0
  1385  0045D2  51F8               	movf	_flag& (0+255),w,b
  1386  0045D4  11F9               	iorwf	(_flag+1)& (0+255),w,b
  1387  0045D6  A4D8               	btfss	status,2,c
  1388  0045D8  EFF0  F022         	goto	u6861
  1389  0045DC  EFF2  F022         	goto	u6860
  1390  0045E0                     u6861:
  1391  0045E0  EFD2  F022         	goto	l5625
  1392  0045E4                     u6860:
  1393  0045E4                     
  1394                           ; BSR set to: 0
  1395  0045E4  0E03               	movlw	3
  1396  0045E6  0101               	movlb	1	; () banked
  1397  0045E8  6F79               	movwf	(Dutty_Pwm@fpwm+1)& (0+255),b
  1398  0045EA  0EE8               	movlw	232
  1399  0045EC  6F78               	movwf	Dutty_Pwm@fpwm& (0+255),b
  1400  0045EE  0E00               	movlw	0
  1401  0045F0  6F7B               	movwf	(Dutty_Pwm@delay+1)& (0+255),b
  1402  0045F2  0E00               	movlw	0
  1403  0045F4  6F7A               	movwf	Dutty_Pwm@delay& (0+255),b
  1404  0045F6  ECDC  F01F         	call	_Dutty_Pwm	;wreg free
  1405  0045FA  EFD2  F022         	goto	l5625
  1406  0045FE  EF1B  F000         	goto	start
  1407  004602                     __end_of_main:
  1408                           	opt callstack 0
  1409                           
  1410 ;; *************** function _eeprom_leer *****************
  1411 ;; Defined at:
  1412 ;;		line 25 in file "eeprom.c"
  1413 ;; Parameters:    Size  Location     Type
  1414 ;;  DIR             2    1[BANK1 ] int 
  1415 ;; Auto vars:     Size  Location     Type
  1416 ;;		None
  1417 ;; Return value:  Size  Location     Type
  1418 ;;                  1    wreg      unsigned char 
  1419 ;; Registers used:
  1420 ;;		wreg, status,2
  1421 ;; Tracked objects:
  1422 ;;		On entry : 0/0
  1423 ;;		On exit  : 0/0
  1424 ;;		Unchanged: 0/0
  1425 ;; Data sizes:     COMRAM   BANK0   BANK1   BANK2   BANK3   BANK4   BANK5   BANK6   BANK7
  1426 ;;      Params:         0       0       2       0       0       0       0       0       0
  1427 ;;      Locals:         0       0       0       0       0       0       0       0       0
  1428 ;;      Temps:          0       0       0       0       0       0       0       0       0
  1429 ;;      Totals:         0       0       2       0       0       0       0       0       0
  1430 ;;Total ram usage:        2 bytes
  1431 ;; Hardware stack levels used:    1
  1432 ;; Hardware stack levels required when called:   10
  1433 ;; This function calls:
  1434 ;;		Nothing
  1435 ;; This function is called by:
  1436 ;;		_main
  1437 ;; This function uses a non-reentrant model
  1438 ;;
  1439                           
  1440                           	psect	text1
  1441  004F7A                     __ptext1:
  1442                           	opt callstack 0
  1443  004F7A                     _eeprom_leer:
  1444                           	opt callstack 20
  1445  004F7A                     
  1446                           ;eeprom.c: 26:     EEADR = DIR;
  1447  004F7A  C151  FFA9         	movff	eeprom_leer@DIR,4009	;volatile
  1448                           
  1449                           ;eeprom.c: 27:     EECON1bits.EEPGD=0;
  1450  004F7E  9EA6               	bcf	166,7,c	;volsfr
  1451                           
  1452                           ;eeprom.c: 28:     EECON1bits.CFGS=0;
  1453  004F80  9CA6               	bcf	166,6,c	;volsfr
  1454  004F82                     
  1455                           ;eeprom.c: 29:     EECON1bits.RD;
  1456  004F82  50A6               	movf	166,w,c	;volsfr
  1457  004F84                     
  1458                           ;eeprom.c: 30:     return EEDATA;
  1459  004F84  50A8               	movf	168,w,c	;volatile
  1460  004F86  0012               	return		;funcret
  1461  004F88                     __end_of_eeprom_leer:
  1462                           	opt callstack 0
  1463                           
  1464 ;; *************** function _eeprom_guardar *****************
  1465 ;; Defined at:
  1466 ;;		line 9 in file "eeprom.c"
  1467 ;; Parameters:    Size  Location     Type
  1468 ;;  DIR             2    1[BANK1 ] int 
  1469 ;;  DATE            1    3[BANK1 ] unsigned char 
  1470 ;; Auto vars:     Size  Location     Type
  1471 ;;		None
  1472 ;; Return value:  Size  Location     Type
  1473 ;;                  1    wreg      void 
  1474 ;; Registers used:
  1475 ;;		wreg, status,2
  1476 ;; Tracked objects:
  1477 ;;		On entry : 0/0
  1478 ;;		On exit  : 0/0
  1479 ;;		Unchanged: 0/0
  1480 ;; Data sizes:     COMRAM   BANK0   BANK1   BANK2   BANK3   BANK4   BANK5   BANK6   BANK7
  1481 ;;      Params:         0       0       3       0       0       0       0       0       0
  1482 ;;      Locals:         0       0       0       0       0       0       0       0       0
  1483 ;;      Temps:          0       0       0       0       0       0       0       0       0
  1484 ;;      Totals:         0       0       3       0       0       0       0       0       0
  1485 ;;Total ram usage:        3 bytes
  1486 ;; Hardware stack levels used:    1
  1487 ;; Hardware stack levels required when called:   10
  1488 ;; This function calls:
  1489 ;;		Nothing
  1490 ;; This function is called by:
  1491 ;;		_main
  1492 ;;		_eeprom_guardar_cadena
  1493 ;; This function uses a non-reentrant model
  1494 ;;
  1495                           
  1496                           	psect	text2
  1497  004EC4                     __ptext2:
  1498                           	opt callstack 0
  1499  004EC4                     _eeprom_guardar:
  1500                           	opt callstack 20
  1501  004EC4                     
  1502                           ;eeprom.c: 10:     EEADR = DIR;
  1503  004EC4  C151  FFA9         	movff	eeprom_guardar@DIR,4009	;volatile
  1504                           
  1505                           ;eeprom.c: 11:     EEDATA = DATE;
  1506  004EC8  C153  FFA8         	movff	eeprom_guardar@DATE,4008	;volatile
  1507                           
  1508                           ;eeprom.c: 12:     EECON1bits.EEPGD=0;
  1509  004ECC  9EA6               	bcf	166,7,c	;volsfr
  1510                           
  1511                           ;eeprom.c: 13:     EECON1bits.CFGS=0;
  1512  004ECE  9CA6               	bcf	166,6,c	;volsfr
  1513                           
  1514                           ;eeprom.c: 14:     EECON1bits.WREN=1;
  1515  004ED0  84A6               	bsf	166,2,c	;volsfr
  1516  004ED2                     
  1517                           ;eeprom.c: 16:     EECON2=0x55;
  1518  004ED2  0E55               	movlw	85
  1519  004ED4  6EA7               	movwf	167,c	;volsfr
  1520                           
  1521                           ;eeprom.c: 17:     EECON2=0x0AA;
  1522  004ED6  0EAA               	movlw	170
  1523  004ED8  6EA7               	movwf	167,c	;volsfr
  1524  004EDA                     
  1525                           ;eeprom.c: 18:     EECON1bits.WR=1;
  1526  004EDA  82A6               	bsf	166,1,c	;volsfr
  1527  004EDC                     l317:
  1528  004EDC  A8A1               	btfss	161,4,c	;volatile
  1529  004EDE  EF73  F027         	goto	u6581
  1530  004EE2  EF75  F027         	goto	u6580
  1531  004EE6                     u6581:
  1532  004EE6  EF6E  F027         	goto	l317
  1533  004EEA                     u6580:
  1534  004EEA                     
  1535                           ;eeprom.c: 21:     PIR2bits.EEIF=0;
  1536  004EEA  98A1               	bcf	161,4,c	;volatile
  1537                           
  1538                           ;eeprom.c: 22:     EECON1bits.WREN=0;
  1539  004EEC  94A6               	bcf	166,2,c	;volsfr
  1540  004EEE  0012               	return		;funcret
  1541  004EF0                     __end_of_eeprom_guardar:
  1542                           	opt callstack 0
  1543                           
  1544 ;; *************** function _declet *****************
  1545 ;; Defined at:
  1546 ;;		line 116 in file "process.c"
  1547 ;; Parameters:    Size  Location     Type
  1548 ;;		None
  1549 ;; Auto vars:     Size  Location     Type
  1550 ;;		None
  1551 ;; Return value:  Size  Location     Type
  1552 ;;                  1    wreg      void 
  1553 ;; Registers used:
  1554 ;;		wreg, status,2
  1555 ;; Tracked objects:
  1556 ;;		On entry : 0/0
  1557 ;;		On exit  : 0/0
  1558 ;;		Unchanged: 0/0
  1559 ;; Data sizes:     COMRAM   BANK0   BANK1   BANK2   BANK3   BANK4   BANK5   BANK6   BANK7
  1560 ;;      Params:         0       0       0       0       0       0       0       0       0
  1561 ;;      Locals:         0       0       0       0       0       0       0       0       0
  1562 ;;      Temps:          0       0       0       0       0       0       0       0       0
  1563 ;;      Totals:         0       0       0       0       0       0       0       0       0
  1564 ;;Total ram usage:        0 bytes
  1565 ;; Hardware stack levels used:    1
  1566 ;; Hardware stack levels required when called:   10
  1567 ;; This function calls:
  1568 ;;		Nothing
  1569 ;; This function is called by:
  1570 ;;		_main
  1571 ;; This function uses a non-reentrant model
  1572 ;;
  1573                           
  1574                           	psect	text3
  1575  004C9A                     __ptext3:
  1576                           	opt callstack 0
  1577  004C9A                     _declet:
  1578                           	opt callstack 20
  1579  004C9A                     
  1580                           ;process.c: 117:     OSCCON=0b01010111;
  1581  004C9A  0E57               	movlw	87
  1582  004C9C  6ED3               	movwf	211,c	;volatile
  1583                           
  1584                           ;process.c: 118:     PORTC=0;
  1585  004C9E  0E00               	movlw	0
  1586  004CA0  6E82               	movwf	130,c	;volatile
  1587                           
  1588                           ;process.c: 119:     TRISC=0;
  1589  004CA2  0E00               	movlw	0
  1590  004CA4  6E94               	movwf	148,c	;volatile
  1591                           
  1592                           ;process.c: 120:     PORTA=0;
  1593  004CA6  0E00               	movlw	0
  1594  004CA8  6E80               	movwf	128,c	;volatile
  1595                           
  1596                           ;process.c: 121:     LATA=0;
  1597  004CAA  0E00               	movlw	0
  1598  004CAC  6E89               	movwf	137,c	;volatile
  1599                           
  1600                           ;process.c: 122:     ANSELA=0;
  1601  004CAE  0E00               	movlw	0
  1602  004CB0  010F               	movlb	15	; () banked
  1603  004CB2  6F5B               	movwf	91,b	;volatile
  1604                           
  1605                           ;process.c: 123:     TRISA=0;
  1606  004CB4  0E00               	movlw	0
  1607  004CB6  6E92               	movwf	146,c	;volatile
  1608                           
  1609                           ;process.c: 124:     PORTE=0;
  1610  004CB8  0E00               	movlw	0
  1611  004CBA  6E84               	movwf	132,c	;volatile
  1612                           
  1613                           ;process.c: 125:     LATE=0;
  1614  004CBC  0E00               	movlw	0
  1615  004CBE  6E8D               	movwf	141,c	;volatile
  1616                           
  1617                           ;process.c: 126:     ANSELE=0;
  1618  004CC0  0E00               	movlw	0
  1619  004CC2  6F5F               	movwf	95,b	;volatile
  1620                           
  1621                           ;process.c: 127:     TRISE=0;
  1622  004CC4  0E00               	movlw	0
  1623  004CC6  6E96               	movwf	150,c	;volatile
  1624                           
  1625                           ;process.c: 128:     PORTB=0;
  1626  004CC8  0E00               	movlw	0
  1627  004CCA  6E81               	movwf	129,c	;volatile
  1628                           
  1629                           ;process.c: 129:     LATB=0;
  1630  004CCC  0E00               	movlw	0
  1631  004CCE  6E8A               	movwf	138,c	;volatile
  1632                           
  1633                           ;process.c: 130:     ANSELB=0;
  1634  004CD0  0E00               	movlw	0
  1635  004CD2  6F5C               	movwf	92,b	;volatile
  1636                           
  1637                           ;process.c: 131:     TRISB=0;
  1638  004CD4  0E00               	movlw	0
  1639  004CD6  6E93               	movwf	147,c	;volatile
  1640                           
  1641                           ;process.c: 132:     PORTD=0;
  1642  004CD8  0E00               	movlw	0
  1643  004CDA  6E83               	movwf	131,c	;volatile
  1644  004CDC                     
  1645                           ; BSR set to: 15
  1646                           ;process.c: 133:     LATEbits.LE0=0;
  1647  004CDC  908D               	bcf	141,0,c	;volatile
  1648  004CDE                     
  1649                           ; BSR set to: 15
  1650  004CDE  0012               	return		;funcret
  1651  004CE0                     __end_of_declet:
  1652                           	opt callstack 0
  1653                           
  1654 ;; *************** function _Lcd_Init *****************
  1655 ;; Defined at:
  1656 ;;		line 71 in file "./lcd.h"
  1657 ;; Parameters:    Size  Location     Type
  1658 ;;		None
  1659 ;; Auto vars:     Size  Location     Type
  1660 ;;  data            1    5[BANK1 ] unsigned char 
  1661 ;; Return value:  Size  Location     Type
  1662 ;;                  1    wreg      void 
  1663 ;; Registers used:
  1664 ;;		wreg, status,2, status,0, cstack
  1665 ;; Tracked objects:
  1666 ;;		On entry : 0/0
  1667 ;;		On exit  : 0/0
  1668 ;;		Unchanged: 0/0
  1669 ;; Data sizes:     COMRAM   BANK0   BANK1   BANK2   BANK3   BANK4   BANK5   BANK6   BANK7
  1670 ;;      Params:         0       0       0       0       0       0       0       0       0
  1671 ;;      Locals:         0       0       1       0       0       0       0       0       0
  1672 ;;      Temps:          0       0       1       0       0       0       0       0       0
  1673 ;;      Totals:         0       0       2       0       0       0       0       0       0
  1674 ;;Total ram usage:        2 bytes
  1675 ;; Hardware stack levels used:    1
  1676 ;; Hardware stack levels required when called:   11
  1677 ;; This function calls:
  1678 ;;		_Lcd_Cmd
  1679 ;; This function is called by:
  1680 ;;		_main
  1681 ;; This function uses a non-reentrant model
  1682 ;;
  1683                           
  1684                           	psect	text4
  1685  003818                     __ptext4:
  1686                           	opt callstack 0
  1687  003818                     _Lcd_Init:
  1688                           	opt callstack 19
  1689  003818                     
  1690                           ;./lcd.h: 72: unsigned char data;;./lcd.h: 73: ANSELD=0;
  1691  003818  0E00               	movlw	0
  1692  00381A  010F               	movlb	15	; () banked
  1693  00381C  6F5E               	movwf	94,b	;volatile
  1694  00381E                     
  1695                           ; BSR set to: 15
  1696                           ;./lcd.h: 74: TRISDbits.TRISD7 = 0;
  1697  00381E  9E95               	bcf	149,7,c	;volatile
  1698  003820                     
  1699                           ; BSR set to: 15
  1700                           ;./lcd.h: 75: TRISDbits.TRISD6 = 0;
  1701  003820  9C95               	bcf	149,6,c	;volatile
  1702  003822                     
  1703                           ; BSR set to: 15
  1704                           ;./lcd.h: 76: TRISDbits.TRISD5 = 0;
  1705  003822  9A95               	bcf	149,5,c	;volatile
  1706  003824                     
  1707                           ; BSR set to: 15
  1708                           ;./lcd.h: 77: TRISDbits.TRISD4 = 0;
  1709  003824  9895               	bcf	149,4,c	;volatile
  1710  003826                     
  1711                           ; BSR set to: 15
  1712                           ;./lcd.h: 78: TRISDbits.TRISD3 = 0;
  1713  003826  9695               	bcf	149,3,c	;volatile
  1714  003828                     
  1715                           ; BSR set to: 15
  1716                           ;./lcd.h: 79: TRISDbits.TRISD1 = 0;
  1717  003828  9295               	bcf	149,1,c	;volatile
  1718  00382A                     
  1719                           ; BSR set to: 15
  1720                           ;./lcd.h: 80: TRISDbits.TRISD2 = 0;
  1721  00382A  9495               	bcf	149,2,c	;volatile
  1722  00382C                     
  1723                           ; BSR set to: 15
  1724                           ;./lcd.h: 81: PORTDbits.RD7 = 0;
  1725  00382C  9E83               	bcf	131,7,c	;volatile
  1726  00382E                     
  1727                           ; BSR set to: 15
  1728                           ;./lcd.h: 82: PORTDbits.RD6 = 0;
  1729  00382E  9C83               	bcf	131,6,c	;volatile
  1730  003830                     
  1731                           ; BSR set to: 15
  1732                           ;./lcd.h: 83: PORTDbits.RD5 = 0;
  1733  003830  9A83               	bcf	131,5,c	;volatile
  1734  003832                     
  1735                           ; BSR set to: 15
  1736                           ;./lcd.h: 84: PORTDbits.RD4 = 0;
  1737  003832  9883               	bcf	131,4,c	;volatile
  1738  003834                     
  1739                           ; BSR set to: 15
  1740                           ;./lcd.h: 85: PORTDbits.RD3 = 0;
  1741  003834  9683               	bcf	131,3,c	;volatile
  1742  003836                     
  1743                           ; BSR set to: 15
  1744                           ;./lcd.h: 86: PORTDbits.RD1 = 0;
  1745  003836  9283               	bcf	131,1,c	;volatile
  1746  003838                     
  1747                           ; BSR set to: 15
  1748                           ;./lcd.h: 87: PORTDbits.RD2 = 0;
  1749  003838  9483               	bcf	131,2,c	;volatile
  1750  00383A                     
  1751                           ; BSR set to: 15
  1752                           ;./lcd.h: 88: _delay((unsigned long)((5500)*(4000000/4000000.0)));
  1753  00383A  0E08               	movlw	8
  1754  00383C  0101               	movlb	1	; () banked
  1755  00383E  6F54               	movwf	??_Lcd_Init& (0+255),b
  1756  003840  0E23               	movlw	35
  1757  003842                     u6907:
  1758  003842  2EE8               	decfsz	wreg,f,c
  1759  003844  D7FE               	bra	u6907
  1760  003846  2F54               	decfsz	??_Lcd_Init& (0+255),f,b
  1761  003848  D7FC               	bra	u6907
  1762  00384A                     
  1763                           ;./lcd.h: 89: _delay((unsigned long)((5500)*(4000000/4000000.0)));
  1764  00384A  0E08               	movlw	8
  1765  00384C  0101               	movlb	1	; () banked
  1766  00384E  6F54               	movwf	??_Lcd_Init& (0+255),b
  1767  003850  0E23               	movlw	35
  1768  003852                     u6917:
  1769  003852  2EE8               	decfsz	wreg,f,c
  1770  003854  D7FE               	bra	u6917
  1771  003856  2F54               	decfsz	??_Lcd_Init& (0+255),f,b
  1772  003858  D7FC               	bra	u6917
  1773  00385A                     
  1774                           ;./lcd.h: 90: _delay((unsigned long)((5500)*(4000000/4000000.0)));
  1775  00385A  0E08               	movlw	8
  1776  00385C  0101               	movlb	1	; () banked
  1777  00385E  6F54               	movwf	??_Lcd_Init& (0+255),b
  1778  003860  0E23               	movlw	35
  1779  003862                     u6927:
  1780  003862  2EE8               	decfsz	wreg,f,c
  1781  003864  D7FE               	bra	u6927
  1782  003866  2F54               	decfsz	??_Lcd_Init& (0+255),f,b
  1783  003868  D7FC               	bra	u6927
  1784  00386A                     
  1785                           ;./lcd.h: 91: _delay((unsigned long)((5500)*(4000000/4000000.0)));
  1786  00386A  0E08               	movlw	8
  1787  00386C  0101               	movlb	1	; () banked
  1788  00386E  6F54               	movwf	??_Lcd_Init& (0+255),b
  1789  003870  0E23               	movlw	35
  1790  003872                     u6937:
  1791  003872  2EE8               	decfsz	wreg,f,c
  1792  003874  D7FE               	bra	u6937
  1793  003876  2F54               	decfsz	??_Lcd_Init& (0+255),f,b
  1794  003878  D7FC               	bra	u6937
  1795  00387A                     
  1796                           ;./lcd.h: 92: _delay((unsigned long)((5500)*(4000000/4000000.0)));
  1797  00387A  0E08               	movlw	8
  1798  00387C  0101               	movlb	1	; () banked
  1799  00387E  6F54               	movwf	??_Lcd_Init& (0+255),b
  1800  003880  0E23               	movlw	35
  1801  003882                     u6947:
  1802  003882  2EE8               	decfsz	wreg,f,c
  1803  003884  D7FE               	bra	u6947
  1804  003886  2F54               	decfsz	??_Lcd_Init& (0+255),f,b
  1805  003888  D7FC               	bra	u6947
  1806  00388A                     
  1807                           ;./lcd.h: 93: _delay((unsigned long)((5500)*(4000000/4000000.0)));
  1808  00388A  0E08               	movlw	8
  1809  00388C  0101               	movlb	1	; () banked
  1810  00388E  6F54               	movwf	??_Lcd_Init& (0+255),b
  1811  003890  0E23               	movlw	35
  1812  003892                     u6957:
  1813  003892  2EE8               	decfsz	wreg,f,c
  1814  003894  D7FE               	bra	u6957
  1815  003896  2F54               	decfsz	??_Lcd_Init& (0+255),f,b
  1816  003898  D7FC               	bra	u6957
  1817                           
  1818                           ;./lcd.h: 94: for(data = 1; data < 4; data ++)
  1819  00389A  0E01               	movlw	1
  1820  00389C  0101               	movlb	1	; () banked
  1821  00389E  6F55               	movwf	Lcd_Init@data& (0+255),b
  1822  0038A0                     l45:
  1823                           
  1824                           ; BSR set to: 1
  1825                           ;./lcd.h: 95: {;./lcd.h: 96:     PORTDbits.RD7 = 0; PORTDbits.RD6 = 0; PORTDbits.RD5 = 1
      +                          ; PORTDbits.RD4 = 1; PORTDbits.RD3 = 0;
  1826  0038A0  9E83               	bcf	131,7,c	;volatile
  1827  0038A2  9C83               	bcf	131,6,c	;volatile
  1828  0038A4  8A83               	bsf	131,5,c	;volatile
  1829  0038A6  8883               	bsf	131,4,c	;volatile
  1830  0038A8  9683               	bcf	131,3,c	;volatile
  1831                           
  1832                           ;./lcd.h: 97:     PORTDbits.RD1 = 0; PORTDbits.RD7 = 0; PORTDbits.RD6 = 0; PORTDbits.RD5
      +                           = 1; PORTDbits.RD4 = 1;
  1833  0038AA  9283               	bcf	131,1,c	;volatile
  1834  0038AC  9E83               	bcf	131,7,c	;volatile
  1835  0038AE  9C83               	bcf	131,6,c	;volatile
  1836  0038B0  8A83               	bsf	131,5,c	;volatile
  1837  0038B2  8883               	bsf	131,4,c	;volatile
  1838                           
  1839                           ;./lcd.h: 98:     PORTDbits.RD3 = 1; PORTDbits.RD1 = 0;
  1840  0038B4  8683               	bsf	131,3,c	;volatile
  1841  0038B6  9283               	bcf	131,1,c	;volatile
  1842                           
  1843                           ;./lcd.h: 99:     _delay((unsigned long)((5)*(4000000/4000000.0)));
  1844  0038B8  D000               	nop2		;2 cycle nop
  1845  0038BA  D000               	nop2		;2 cycle nop
  1846  0038BC  F000               	nop	
  1847                           
  1848                           ;./lcd.h: 100:     PORTDbits.RD7 = 0; PORTDbits.RD6 = 0; PORTDbits.RD5 = 1; PORTDbits.RD
      +                          4 = 1; PORTDbits.RD3 = 0;
  1849  0038BE  9E83               	bcf	131,7,c	;volatile
  1850  0038C0  9C83               	bcf	131,6,c	;volatile
  1851  0038C2  8A83               	bsf	131,5,c	;volatile
  1852  0038C4  8883               	bsf	131,4,c	;volatile
  1853  0038C6  9683               	bcf	131,3,c	;volatile
  1854                           
  1855                           ;./lcd.h: 101:     PORTDbits.RD1 = 0;
  1856  0038C8  9283               	bcf	131,1,c	;volatile
  1857  0038CA                     
  1858                           ;./lcd.h: 102:     _delay((unsigned long)((5500)*(4000000/4000000.0)));
  1859  0038CA  0E08               	movlw	8
  1860  0038CC  0101               	movlb	1	; () banked
  1861  0038CE  6F54               	movwf	??_Lcd_Init& (0+255),b
  1862  0038D0  0E23               	movlw	35
  1863  0038D2                     u6967:
  1864  0038D2  2EE8               	decfsz	wreg,f,c
  1865  0038D4  D7FE               	bra	u6967
  1866  0038D6  2F54               	decfsz	??_Lcd_Init& (0+255),f,b
  1867  0038D8  D7FC               	bra	u6967
  1868  0038DA                     
  1869                           ;./lcd.h: 103: }
  1870  0038DA  0101               	movlb	1	; () banked
  1871  0038DC  2B55               	incf	Lcd_Init@data& (0+255),f,b
  1872  0038DE  0E03               	movlw	3
  1873  0038E0  6555               	cpfsgt	Lcd_Init@data& (0+255),b
  1874  0038E2  EF75  F01C         	goto	u6531
  1875  0038E6  EF77  F01C         	goto	u6530
  1876  0038EA                     u6531:
  1877  0038EA  EF50  F01C         	goto	l45
  1878  0038EE                     u6530:
  1879  0038EE                     
  1880                           ; BSR set to: 1
  1881                           ;./lcd.h: 104: PORTDbits.RD7 = 0; PORTDbits.RD6 = 0; PORTDbits.RD5 = 1; PORTDbits.RD4 = 
      +                          0; PORTDbits.RD3 = 0; PORTDbits.RD1 = 0;
  1882  0038EE  9E83               	bcf	131,7,c	;volatile
  1883  0038F0  9C83               	bcf	131,6,c	;volatile
  1884  0038F2  8A83               	bsf	131,5,c	;volatile
  1885  0038F4  9883               	bcf	131,4,c	;volatile
  1886  0038F6  9683               	bcf	131,3,c	;volatile
  1887  0038F8  9283               	bcf	131,1,c	;volatile
  1888                           
  1889                           ;./lcd.h: 105: PORTDbits.RD7 = 0; PORTDbits.RD6 = 0; PORTDbits.RD5 = 1; PORTDbits.RD4 = 
      +                          0; PORTDbits.RD3 = 1; PORTDbits.RD1 = 0;
  1890  0038FA  9E83               	bcf	131,7,c	;volatile
  1891  0038FC  9C83               	bcf	131,6,c	;volatile
  1892  0038FE  8A83               	bsf	131,5,c	;volatile
  1893  003900  9883               	bcf	131,4,c	;volatile
  1894  003902  8683               	bsf	131,3,c	;volatile
  1895  003904  9283               	bcf	131,1,c	;volatile
  1896                           
  1897                           ;./lcd.h: 106: _delay((unsigned long)((5)*(4000000/4000000.0)));
  1898  003906  D000               	nop2		;2 cycle nop
  1899  003908  D000               	nop2		;2 cycle nop
  1900  00390A  F000               	nop	
  1901                           
  1902                           ;./lcd.h: 107: PORTDbits.RD7 = 0; PORTDbits.RD6 = 0; PORTDbits.RD5 = 1; PORTDbits.RD4 = 
      +                          0; PORTDbits.RD3 = 0; PORTDbits.RD1 = 0;
  1903  00390C  9E83               	bcf	131,7,c	;volatile
  1904  00390E  9C83               	bcf	131,6,c	;volatile
  1905  003910  8A83               	bsf	131,5,c	;volatile
  1906  003912  9883               	bcf	131,4,c	;volatile
  1907  003914  9683               	bcf	131,3,c	;volatile
  1908  003916  9283               	bcf	131,1,c	;volatile
  1909  003918                     
  1910                           ;./lcd.h: 108: _delay((unsigned long)((5500)*(4000000/4000000.0)));
  1911  003918  0E08               	movlw	8
  1912  00391A  0101               	movlb	1	; () banked
  1913  00391C  6F54               	movwf	??_Lcd_Init& (0+255),b
  1914  00391E  0E23               	movlw	35
  1915  003920                     u6977:
  1916  003920  2EE8               	decfsz	wreg,f,c
  1917  003922  D7FE               	bra	u6977
  1918  003924  2F54               	decfsz	??_Lcd_Init& (0+255),f,b
  1919  003926  D7FC               	bra	u6977
  1920  003928  0E28               	movlw	40
  1921  00392A  ECDC  F01A         	call	_Lcd_Cmd
  1922  00392E  0E10               	movlw	16
  1923  003930  ECDC  F01A         	call	_Lcd_Cmd
  1924  003934  0E01               	movlw	1
  1925  003936  ECDC  F01A         	call	_Lcd_Cmd
  1926  00393A  0E0F               	movlw	15
  1927  00393C  ECDC  F01A         	call	_Lcd_Cmd
  1928  003940  0012               	return		;funcret
  1929  003942                     __end_of_Lcd_Init:
  1930                           	opt callstack 0
  1931                           
  1932 ;; *************** function _Lcd_Cmd *****************
  1933 ;; Defined at:
  1934 ;;		line 172 in file "./lcd.h"
  1935 ;; Parameters:    Size  Location     Type
  1936 ;;  data            1    wreg     unsigned char 
  1937 ;; Auto vars:     Size  Location     Type
  1938 ;;  data            1    3[BANK1 ] unsigned char 
  1939 ;; Return value:  Size  Location     Type
  1940 ;;                  1    wreg      void 
  1941 ;; Registers used:
  1942 ;;		wreg, status,2, status,0
  1943 ;; Tracked objects:
  1944 ;;		On entry : 0/0
  1945 ;;		On exit  : 0/0
  1946 ;;		Unchanged: 0/0
  1947 ;; Data sizes:     COMRAM   BANK0   BANK1   BANK2   BANK3   BANK4   BANK5   BANK6   BANK7
  1948 ;;      Params:         0       0       0       0       0       0       0       0       0
  1949 ;;      Locals:         0       0       1       0       0       0       0       0       0
  1950 ;;      Temps:          0       0       2       0       0       0       0       0       0
  1951 ;;      Totals:         0       0       3       0       0       0       0       0       0
  1952 ;;Total ram usage:        3 bytes
  1953 ;; Hardware stack levels used:    1
  1954 ;; Hardware stack levels required when called:   10
  1955 ;; This function calls:
  1956 ;;		Nothing
  1957 ;; This function is called by:
  1958 ;;		_Lcd_Init
  1959 ;;		_main
  1960 ;;		_lcd_goto
  1961 ;; This function uses a non-reentrant model
  1962 ;;
  1963                           
  1964                           	psect	text5
  1965  0035B8                     __ptext5:
  1966                           	opt callstack 0
  1967  0035B8                     _Lcd_Cmd:
  1968                           	opt callstack 19
  1969                           
  1970                           ;incstack = 0
  1971                           ;Lcd_Cmd@data stored from wreg
  1972  0035B8  0101               	movlb	1	; () banked
  1973  0035BA  6F53               	movwf	Lcd_Cmd@data& (0+255),b
  1974  0035BC                     
  1975                           ;./lcd.h: 173: PORTDbits.RD3 = 0; PORTDbits.RD1 = 0;
  1976  0035BC  9683               	bcf	131,3,c	;volatile
  1977  0035BE  9283               	bcf	131,1,c	;volatile
  1978  0035C0                     
  1979                           ;./lcd.h: 174: PORTDbits.RD7 = (data & 0b10000000)>>7; PORTDbits.RD6 = (data & 0b0100000
      +                          0)>>6;
  1980  0035C0  0101               	movlb	1	; () banked
  1981  0035C2  6B51               	clrf	??_Lcd_Cmd& (0+255),b
  1982  0035C4  AF53               	btfss	Lcd_Cmd@data& (0+255),7,b
  1983  0035C6  D001               	bra	u6355
  1984  0035C8  2B51               	incf	??_Lcd_Cmd& (0+255),f,b
  1985  0035CA                     u6355:
  1986  0035CA  0E01               	movlw	1
  1987  0035CC  1751               	andwf	??_Lcd_Cmd& (0+255),f,b
  1988  0035CE  3351               	rrcf	??_Lcd_Cmd& (0+255),f,b
  1989  0035D0  3351               	rrcf	??_Lcd_Cmd& (0+255),f,b
  1990  0035D2  5083               	movf	131,w,c	;volatile
  1991  0035D4  1951               	xorwf	??_Lcd_Cmd& (0+255),w,b
  1992  0035D6  0B7F               	andlw	-129
  1993  0035D8  1951               	xorwf	??_Lcd_Cmd& (0+255),w,b
  1994  0035DA  6E83               	movwf	131,c	;volatile
  1995  0035DC  C153  F151         	movff	Lcd_Cmd@data,??_Lcd_Cmd
  1996  0035E0  0E06               	movlw	6
  1997  0035E2  6F52               	movwf	(??_Lcd_Cmd+1)& (0+255),b
  1998  0035E4                     u6365:
  1999  0035E4  90D8               	bcf	status,0,c
  2000  0035E6  3351               	rrcf	??_Lcd_Cmd& (0+255),f,b
  2001  0035E8  2F52               	decfsz	(??_Lcd_Cmd+1)& (0+255),f,b
  2002  0035EA  EFF2  F01A         	goto	u6365
  2003  0035EE  0E01               	movlw	1
  2004  0035F0  1751               	andwf	??_Lcd_Cmd& (0+255),f,b
  2005  0035F2  3B51               	swapf	??_Lcd_Cmd& (0+255),f,b
  2006  0035F4  4751               	rlncf	??_Lcd_Cmd& (0+255),f,b
  2007  0035F6  4751               	rlncf	??_Lcd_Cmd& (0+255),f,b
  2008  0035F8  5083               	movf	131,w,c	;volatile
  2009  0035FA  1951               	xorwf	??_Lcd_Cmd& (0+255),w,b
  2010  0035FC  0BBF               	andlw	-65
  2011  0035FE  1951               	xorwf	??_Lcd_Cmd& (0+255),w,b
  2012  003600  6E83               	movwf	131,c	;volatile
  2013                           
  2014                           ;./lcd.h: 175: PORTDbits.RD5 = (data & 0b00100000)>>5; PORTDbits.RD4 = (data & 0b0001000
      +                          0)>>4;
  2015  003602  C153  F151         	movff	Lcd_Cmd@data,??_Lcd_Cmd
  2016  003606  0E05               	movlw	5
  2017  003608  6F52               	movwf	(??_Lcd_Cmd+1)& (0+255),b
  2018  00360A                     u6375:
  2019  00360A  90D8               	bcf	status,0,c
  2020  00360C  3351               	rrcf	??_Lcd_Cmd& (0+255),f,b
  2021  00360E  2F52               	decfsz	(??_Lcd_Cmd+1)& (0+255),f,b
  2022  003610  EF05  F01B         	goto	u6375
  2023  003614  0E01               	movlw	1
  2024  003616  1751               	andwf	??_Lcd_Cmd& (0+255),f,b
  2025  003618  3B51               	swapf	??_Lcd_Cmd& (0+255),f,b
  2026  00361A  4751               	rlncf	??_Lcd_Cmd& (0+255),f,b
  2027  00361C  5083               	movf	131,w,c	;volatile
  2028  00361E  1951               	xorwf	??_Lcd_Cmd& (0+255),w,b
  2029  003620  0BDF               	andlw	-33
  2030  003622  1951               	xorwf	??_Lcd_Cmd& (0+255),w,b
  2031  003624  6E83               	movwf	131,c	;volatile
  2032  003626  C153  F151         	movff	Lcd_Cmd@data,??_Lcd_Cmd
  2033  00362A  3B51               	swapf	??_Lcd_Cmd& (0+255),f,b
  2034  00362C  0E0F               	movlw	15
  2035  00362E  1751               	andwf	??_Lcd_Cmd& (0+255),f,b
  2036  003630  0E01               	movlw	1
  2037  003632  1751               	andwf	??_Lcd_Cmd& (0+255),f,b
  2038  003634  3B51               	swapf	??_Lcd_Cmd& (0+255),f,b
  2039  003636  5083               	movf	131,w,c	;volatile
  2040  003638  1951               	xorwf	??_Lcd_Cmd& (0+255),w,b
  2041  00363A  0BEF               	andlw	-17
  2042  00363C  1951               	xorwf	??_Lcd_Cmd& (0+255),w,b
  2043  00363E  6E83               	movwf	131,c	;volatile
  2044  003640                     
  2045                           ; BSR set to: 1
  2046                           ;./lcd.h: 176: _delay((unsigned long)((10)*(4000000/4000000.0)));
  2047  003640  0E03               	movlw	3
  2048  003642                     u6987:
  2049  003642  2EE8               	decfsz	wreg,f,c
  2050  003644  D7FE               	bra	u6987
  2051  003646  F000               	nop	
  2052  003648                     
  2053                           ;./lcd.h: 177: PORTDbits.RD3 = 1; _delay((unsigned long)((5)*(4000000/4000000.0))); PORT
      +                          Dbits.RD3 = 0;
  2054  003648  8683               	bsf	131,3,c	;volatile
  2055  00364A  D000               	nop2		;2 cycle nop
  2056  00364C  D000               	nop2		;2 cycle nop
  2057  00364E  F000               	nop	
  2058  003650  9683               	bcf	131,3,c	;volatile
  2059  003652                     
  2060                           ;./lcd.h: 178: PORTDbits.RD7 = (data & 0b00001000)>>3; PORTDbits.RD6 = (data & 0b0000010
      +                          0)>>2;
  2061  003652  C153  F151         	movff	Lcd_Cmd@data,??_Lcd_Cmd
  2062  003656  0101               	movlb	1	; () banked
  2063  003658  90D8               	bcf	status,0,c
  2064  00365A  3351               	rrcf	??_Lcd_Cmd& (0+255),f,b
  2065  00365C  90D8               	bcf	status,0,c
  2066  00365E  3351               	rrcf	??_Lcd_Cmd& (0+255),f,b
  2067  003660  90D8               	bcf	status,0,c
  2068  003662  3351               	rrcf	??_Lcd_Cmd& (0+255),f,b
  2069  003664  0E01               	movlw	1
  2070  003666  1751               	andwf	??_Lcd_Cmd& (0+255),f,b
  2071  003668  3351               	rrcf	??_Lcd_Cmd& (0+255),f,b
  2072  00366A  3351               	rrcf	??_Lcd_Cmd& (0+255),f,b
  2073  00366C  5083               	movf	131,w,c	;volatile
  2074  00366E  1951               	xorwf	??_Lcd_Cmd& (0+255),w,b
  2075  003670  0B7F               	andlw	-129
  2076  003672  1951               	xorwf	??_Lcd_Cmd& (0+255),w,b
  2077  003674  6E83               	movwf	131,c	;volatile
  2078  003676                     
  2079                           ; BSR set to: 1
  2080  003676  C153  F151         	movff	Lcd_Cmd@data,??_Lcd_Cmd
  2081  00367A  90D8               	bcf	status,0,c
  2082  00367C  3351               	rrcf	??_Lcd_Cmd& (0+255),f,b
  2083  00367E  90D8               	bcf	status,0,c
  2084  003680  3351               	rrcf	??_Lcd_Cmd& (0+255),f,b
  2085  003682  0E01               	movlw	1
  2086  003684  1751               	andwf	??_Lcd_Cmd& (0+255),f,b
  2087  003686  3B51               	swapf	??_Lcd_Cmd& (0+255),f,b
  2088  003688  4751               	rlncf	??_Lcd_Cmd& (0+255),f,b
  2089  00368A  4751               	rlncf	??_Lcd_Cmd& (0+255),f,b
  2090  00368C  5083               	movf	131,w,c	;volatile
  2091  00368E  1951               	xorwf	??_Lcd_Cmd& (0+255),w,b
  2092  003690  0BBF               	andlw	-65
  2093  003692  1951               	xorwf	??_Lcd_Cmd& (0+255),w,b
  2094  003694  6E83               	movwf	131,c	;volatile
  2095  003696                     
  2096                           ; BSR set to: 1
  2097                           ;./lcd.h: 179: PORTDbits.RD5 = (data & 0b00000010)>>1; PORTDbits.RD4 = (data & 0b0000000
      +                          1);
  2098  003696  C153  F151         	movff	Lcd_Cmd@data,??_Lcd_Cmd
  2099  00369A  90D8               	bcf	status,0,c
  2100  00369C  3351               	rrcf	??_Lcd_Cmd& (0+255),f,b
  2101  00369E  0E01               	movlw	1
  2102  0036A0  1751               	andwf	??_Lcd_Cmd& (0+255),f,b
  2103  0036A2  3B51               	swapf	??_Lcd_Cmd& (0+255),f,b
  2104  0036A4  4751               	rlncf	??_Lcd_Cmd& (0+255),f,b
  2105  0036A6  5083               	movf	131,w,c	;volatile
  2106  0036A8  1951               	xorwf	??_Lcd_Cmd& (0+255),w,b
  2107  0036AA  0BDF               	andlw	-33
  2108  0036AC  1951               	xorwf	??_Lcd_Cmd& (0+255),w,b
  2109  0036AE  6E83               	movwf	131,c	;volatile
  2110  0036B0                     
  2111                           ; BSR set to: 1
  2112  0036B0  C153  F151         	movff	Lcd_Cmd@data,??_Lcd_Cmd
  2113  0036B4  0E01               	movlw	1
  2114  0036B6  1751               	andwf	??_Lcd_Cmd& (0+255),f,b
  2115  0036B8  3B51               	swapf	??_Lcd_Cmd& (0+255),f,b
  2116  0036BA  5083               	movf	131,w,c	;volatile
  2117  0036BC  1951               	xorwf	??_Lcd_Cmd& (0+255),w,b
  2118  0036BE  0BEF               	andlw	-17
  2119  0036C0  1951               	xorwf	??_Lcd_Cmd& (0+255),w,b
  2120  0036C2  6E83               	movwf	131,c	;volatile
  2121  0036C4                     
  2122                           ; BSR set to: 1
  2123                           ;./lcd.h: 180: _delay((unsigned long)((10)*(4000000/4000000.0)));;
  2124  0036C4  0E03               	movlw	3
  2125  0036C6                     u6997:
  2126  0036C6  2EE8               	decfsz	wreg,f,c
  2127  0036C8  D7FE               	bra	u6997
  2128  0036CA  F000               	nop	
  2129  0036CC                     
  2130                           ;./lcd.h: 181: PORTDbits.RD3 = 1; _delay((unsigned long)((5)*(4000000/4000000.0))); PORT
      +                          Dbits.RD3 = 0;
  2131  0036CC  8683               	bsf	131,3,c	;volatile
  2132  0036CE  D000               	nop2		;2 cycle nop
  2133  0036D0  D000               	nop2		;2 cycle nop
  2134  0036D2  F000               	nop	
  2135  0036D4  9683               	bcf	131,3,c	;volatile
  2136  0036D6                     
  2137                           ;./lcd.h: 182: _delay((unsigned long)((5500)*(4000000/4000000.0)));
  2138  0036D6  0E08               	movlw	8
  2139  0036D8  0101               	movlb	1	; () banked
  2140  0036DA  6F51               	movwf	??_Lcd_Cmd& (0+255),b
  2141  0036DC  0E23               	movlw	35
  2142  0036DE                     u7007:
  2143  0036DE  2EE8               	decfsz	wreg,f,c
  2144  0036E0  D7FE               	bra	u7007
  2145  0036E2  2F51               	decfsz	??_Lcd_Cmd& (0+255),f,b
  2146  0036E4  D7FC               	bra	u7007
  2147  0036E6  0012               	return		;funcret
  2148  0036E8                     __end_of_Lcd_Cmd:
  2149                           	opt callstack 0
  2150                           
  2151 ;; *************** function _Dutty_Pwm *****************
  2152 ;; Defined at:
  2153 ;;		line 146 in file "process.c"
  2154 ;; Parameters:    Size  Location     Type
  2155 ;;  fpwm            2   40[BANK1 ] unsigned int 
  2156 ;;  delay           2   42[BANK1 ] unsigned int 
  2157 ;; Auto vars:     Size  Location     Type
  2158 ;;  k               2   46[BANK1 ] int 
  2159 ;;  i               2   44[BANK1 ] int 
  2160 ;; Return value:  Size  Location     Type
  2161 ;;                  1    wreg      void 
  2162 ;; Registers used:
  2163 ;;		wreg, status,2, status,0, cstack
  2164 ;; Tracked objects:
  2165 ;;		On entry : 0/0
  2166 ;;		On exit  : 0/0
  2167 ;;		Unchanged: 0/0
  2168 ;; Data sizes:     COMRAM   BANK0   BANK1   BANK2   BANK3   BANK4   BANK5   BANK6   BANK7
  2169 ;;      Params:         0       0       4       0       0       0       0       0       0
  2170 ;;      Locals:         0       0       4       0       0       0       0       0       0
  2171 ;;      Temps:          0       0       0       0       0       0       0       0       0
  2172 ;;      Totals:         0       0       8       0       0       0       0       0       0
  2173 ;;Total ram usage:        8 bytes
  2174 ;; Hardware stack levels used:    1
  2175 ;; Hardware stack levels required when called:   13
  2176 ;; This function calls:
  2177 ;;		_PWM_generar
  2178 ;;		_delay_s
  2179 ;;		_mostrar_dec
  2180 ;;		_mostrar_inc
  2181 ;; This function is called by:
  2182 ;;		_main
  2183 ;; This function uses a non-reentrant model
  2184 ;;
  2185                           
  2186                           	psect	text6
  2187  003FB8                     __ptext6:
  2188                           	opt callstack 0
  2189  003FB8                     _Dutty_Pwm:
  2190                           	opt callstack 17
  2191  003FB8                     
  2192                           ;process.c: 146: void Dutty_Pwm(unsigned int fpwm, unsigned int delay);process.c: 147: {
      +                          ;process.c: 148:         int i, k=0;
  2193  003FB8  0E00               	movlw	0
  2194  003FBA  0101               	movlb	1	; () banked
  2195  003FBC  6F7F               	movwf	(Dutty_Pwm@k+1)& (0+255),b
  2196  003FBE  0E00               	movlw	0
  2197  003FC0  6F7E               	movwf	Dutty_Pwm@k& (0+255),b
  2198                           
  2199                           ;process.c: 151:         for(i=0; i<20 ; i++){
  2200  003FC2  0E00               	movlw	0
  2201  003FC4  6F7D               	movwf	(Dutty_Pwm@i+1)& (0+255),b
  2202  003FC6  0E00               	movlw	0
  2203  003FC8  6F7C               	movwf	Dutty_Pwm@i& (0+255),b
  2204  003FCA                     l5443:
  2205                           
  2206                           ; BSR set to: 1
  2207                           ;process.c: 153:             PWM_generar(k,fpwm);
  2208  003FCA  C17E  F15E         	movff	Dutty_Pwm@k,PWM_generar@duty
  2209  003FCE  C17F  F15F         	movff	Dutty_Pwm@k+1,PWM_generar@duty+1
  2210  003FD2  C178  F160         	movff	Dutty_Pwm@fpwm,PWM_generar@fpwm
  2211  003FD6  C179  F161         	movff	Dutty_Pwm@fpwm+1,PWM_generar@fpwm+1
  2212  003FDA  EC9A  F015         	call	_PWM_generar	;wreg free
  2213                           
  2214                           ;process.c: 154:             delay_s(delay);
  2215  003FDE  C17A  F151         	movff	Dutty_Pwm@delay,delay_s@seconds
  2216  003FE2  C17B  F152         	movff	Dutty_Pwm@delay+1,delay_s@seconds+1
  2217  003FE6  ECD5  F026         	call	_delay_s	;wreg free
  2218  003FEA                     
  2219                           ;process.c: 155:             k=k+5;
  2220  003FEA  0E05               	movlw	5
  2221  003FEC  0101               	movlb	1	; () banked
  2222  003FEE  257E               	addwf	Dutty_Pwm@k& (0+255),w,b
  2223  003FF0  6F7E               	movwf	Dutty_Pwm@k& (0+255),b
  2224  003FF2  0E00               	movlw	0
  2225  003FF4  217F               	addwfc	(Dutty_Pwm@k+1)& (0+255),w,b
  2226  003FF6  6F7F               	movwf	(Dutty_Pwm@k+1)& (0+255),b
  2227  003FF8                     
  2228                           ; BSR set to: 1
  2229                           ;process.c: 156:             mostrar_inc(k);
  2230  003FF8  C17E  F158         	movff	Dutty_Pwm@k,mostrar_inc@duty
  2231  003FFC  C17F  F159         	movff	Dutty_Pwm@k+1,mostrar_inc@duty+1
  2232  004000  EC12  F025         	call	_mostrar_inc	;wreg free
  2233  004004                     
  2234                           ;process.c: 157:         }
  2235  004004  0101               	movlb	1	; () banked
  2236  004006  4B7C               	infsnz	Dutty_Pwm@i& (0+255),f,b
  2237  004008  2B7D               	incf	(Dutty_Pwm@i+1)& (0+255),f,b
  2238  00400A                     
  2239                           ; BSR set to: 1
  2240  00400A  BF7D               	btfsc	(Dutty_Pwm@i+1)& (0+255),7,b
  2241  00400C  EF11  F020         	goto	u6661
  2242  004010  517D               	movf	(Dutty_Pwm@i+1)& (0+255),w,b
  2243  004012  E109               	bnz	u6660
  2244  004014  0E14               	movlw	20
  2245  004016  5D7C               	subwf	Dutty_Pwm@i& (0+255),w,b
  2246  004018  A0D8               	btfss	status,0,c
  2247  00401A  EF11  F020         	goto	u6661
  2248  00401E  EF13  F020         	goto	u6660
  2249  004022                     u6661:
  2250  004022  EFE5  F01F         	goto	l5443
  2251  004026                     u6660:
  2252  004026                     
  2253                           ; BSR set to: 1
  2254                           ;process.c: 158:         k=105;
  2255  004026  0E00               	movlw	0
  2256  004028  6F7F               	movwf	(Dutty_Pwm@k+1)& (0+255),b
  2257  00402A  0E69               	movlw	105
  2258  00402C  6F7E               	movwf	Dutty_Pwm@k& (0+255),b
  2259                           
  2260                           ;process.c: 159:         PORTA=0;
  2261  00402E  0E00               	movlw	0
  2262  004030  6E80               	movwf	128,c	;volatile
  2263                           
  2264                           ;process.c: 160:         for(i=0; i<21 ; i++){
  2265  004032  0E00               	movlw	0
  2266  004034  6F7D               	movwf	(Dutty_Pwm@i+1)& (0+255),b
  2267  004036  0E00               	movlw	0
  2268  004038  6F7C               	movwf	Dutty_Pwm@i& (0+255),b
  2269  00403A                     l5459:
  2270                           
  2271                           ; BSR set to: 1
  2272                           ;process.c: 162:             k=k-5;
  2273  00403A  0EFB               	movlw	251
  2274  00403C  257E               	addwf	Dutty_Pwm@k& (0+255),w,b
  2275  00403E  6F7E               	movwf	Dutty_Pwm@k& (0+255),b
  2276  004040  0EFF               	movlw	255
  2277  004042  217F               	addwfc	(Dutty_Pwm@k+1)& (0+255),w,b
  2278  004044  6F7F               	movwf	(Dutty_Pwm@k+1)& (0+255),b
  2279  004046                     
  2280                           ; BSR set to: 1
  2281                           ;process.c: 163:             PWM_generar(k,fpwm);
  2282  004046  C17E  F15E         	movff	Dutty_Pwm@k,PWM_generar@duty
  2283  00404A  C17F  F15F         	movff	Dutty_Pwm@k+1,PWM_generar@duty+1
  2284  00404E  C178  F160         	movff	Dutty_Pwm@fpwm,PWM_generar@fpwm
  2285  004052  C179  F161         	movff	Dutty_Pwm@fpwm+1,PWM_generar@fpwm+1
  2286  004056  EC9A  F015         	call	_PWM_generar	;wreg free
  2287  00405A                     
  2288                           ;process.c: 164:             delay_s(delay);
  2289  00405A  C17A  F151         	movff	Dutty_Pwm@delay,delay_s@seconds
  2290  00405E  C17B  F152         	movff	Dutty_Pwm@delay+1,delay_s@seconds+1
  2291  004062  ECD5  F026         	call	_delay_s	;wreg free
  2292  004066                     
  2293                           ;process.c: 165:             mostrar_dec(k);
  2294  004066  C17E  F172         	movff	Dutty_Pwm@k,mostrar_dec@duty
  2295  00406A  C17F  F173         	movff	Dutty_Pwm@k+1,mostrar_dec@duty+1
  2296  00406E  EC83  F021         	call	_mostrar_dec	;wreg free
  2297  004072                     
  2298                           ;process.c: 166:         }
  2299  004072  0101               	movlb	1	; () banked
  2300  004074  4B7C               	infsnz	Dutty_Pwm@i& (0+255),f,b
  2301  004076  2B7D               	incf	(Dutty_Pwm@i+1)& (0+255),f,b
  2302  004078                     
  2303                           ; BSR set to: 1
  2304  004078  BF7D               	btfsc	(Dutty_Pwm@i+1)& (0+255),7,b
  2305  00407A  EF48  F020         	goto	u6671
  2306  00407E  517D               	movf	(Dutty_Pwm@i+1)& (0+255),w,b
  2307  004080  E109               	bnz	u6670
  2308  004082  0E15               	movlw	21
  2309  004084  5D7C               	subwf	Dutty_Pwm@i& (0+255),w,b
  2310  004086  A0D8               	btfss	status,0,c
  2311  004088  EF48  F020         	goto	u6671
  2312  00408C  EF4A  F020         	goto	u6670
  2313  004090                     u6671:
  2314  004090  EF1D  F020         	goto	l5459
  2315  004094                     u6670:
  2316  004094                     
  2317                           ; BSR set to: 1
  2318                           ;process.c: 168:         PORTA=0;
  2319  004094  0E00               	movlw	0
  2320  004096  6E80               	movwf	128,c	;volatile
  2321  004098                     
  2322                           ; BSR set to: 1
  2323  004098  0012               	return		;funcret
  2324  00409A                     __end_of_Dutty_Pwm:
  2325                           	opt callstack 0
  2326                           
  2327 ;; *************** function _mostrar_inc *****************
  2328 ;; Defined at:
  2329 ;;		line 11 in file "process.c"
  2330 ;; Parameters:    Size  Location     Type
  2331 ;;  duty            2    8[BANK1 ] unsigned int 
  2332 ;; Auto vars:     Size  Location     Type
  2333 ;;  par             2   12[BANK1 ] int 
  2334 ;;  por_pwm         2   10[BANK1 ] int 
  2335 ;; Return value:  Size  Location     Type
  2336 ;;                  1    wreg      void 
  2337 ;; Registers used:
  2338 ;;		wreg, status,2, status,0, cstack
  2339 ;; Tracked objects:
  2340 ;;		On entry : 0/0
  2341 ;;		On exit  : 0/0
  2342 ;;		Unchanged: 0/0
  2343 ;; Data sizes:     COMRAM   BANK0   BANK1   BANK2   BANK3   BANK4   BANK5   BANK6   BANK7
  2344 ;;      Params:         0       0       2       0       0       0       0       0       0
  2345 ;;      Locals:         0       0       4       0       0       0       0       0       0
  2346 ;;      Temps:          0       0       0       0       0       0       0       0       0
  2347 ;;      Totals:         0       0       6       0       0       0       0       0       0
  2348 ;;Total ram usage:        6 bytes
  2349 ;; Hardware stack levels used:    1
  2350 ;; Hardware stack levels required when called:   11
  2351 ;; This function calls:
  2352 ;;		___lwdiv
  2353 ;;		_segment
  2354 ;; This function is called by:
  2355 ;;		_Dutty_Pwm
  2356 ;;		_demo_Dutty_Pwm
  2357 ;; This function uses a non-reentrant model
  2358 ;;
  2359                           
  2360                           	psect	text7
  2361  004A24                     __ptext7:
  2362                           	opt callstack 0
  2363  004A24                     _mostrar_inc:
  2364                           	opt callstack 18
  2365  004A24                     
  2366                           ;process.c: 12:         int por_pwm, par;;process.c: 13:         por_pwm=duty/5;
  2367  004A24  C158  F151         	movff	mostrar_inc@duty,___lwdiv@dividend
  2368  004A28  C159  F152         	movff	mostrar_inc@duty+1,___lwdiv@dividend+1
  2369  004A2C  0E00               	movlw	0
  2370  004A2E  0101               	movlb	1	; () banked
  2371  004A30  6F54               	movwf	(___lwdiv@divisor+1)& (0+255),b
  2372  004A32  0E05               	movlw	5
  2373  004A34  6F53               	movwf	___lwdiv@divisor& (0+255),b
  2374  004A36  ECA1  F024         	call	___lwdiv	;wreg free
  2375  004A3A  C151  F15A         	movff	?___lwdiv,mostrar_inc@por_pwm
  2376  004A3E  C152  F15B         	movff	?___lwdiv+1,mostrar_inc@por_pwm+1
  2377  004A42                     
  2378                           ;process.c: 14:         par = por_pwm%2;
  2379  004A42  0E01               	movlw	1
  2380  004A44  0101               	movlb	1	; () banked
  2381  004A46  155A               	andwf	mostrar_inc@por_pwm& (0+255),w,b
  2382  004A48  6F5C               	movwf	mostrar_inc@par& (0+255),b
  2383  004A4A  6B5D               	clrf	(mostrar_inc@par+1)& (0+255),b
  2384  004A4C                     
  2385                           ; BSR set to: 1
  2386                           ;process.c: 15:         if(par==1){
  2387  004A4C  055C               	decf	mostrar_inc@par& (0+255),w,b
  2388  004A4E  115D               	iorwf	(mostrar_inc@par+1)& (0+255),w,b
  2389  004A50  A4D8               	btfss	status,2,c
  2390  004A52  EF2D  F025         	goto	u6411
  2391  004A56  EF2F  F025         	goto	u6410
  2392  004A5A                     u6411:
  2393  004A5A  EF33  F025         	goto	l5195
  2394  004A5E                     u6410:
  2395  004A5E                     
  2396                           ; BSR set to: 1
  2397                           ;process.c: 16:             PORTB=0xF0;
  2398  004A5E  0EF0               	movlw	240
  2399  004A60  6E81               	movwf	129,c	;volatile
  2400                           
  2401                           ;process.c: 17:         }
  2402  004A62  EF46  F025         	goto	l198
  2403  004A66                     l5195:
  2404                           
  2405                           ; BSR set to: 1
  2406  004A66  515C               	movf	mostrar_inc@par& (0+255),w,b
  2407  004A68  115D               	iorwf	(mostrar_inc@par+1)& (0+255),w,b
  2408  004A6A  A4D8               	btfss	status,2,c
  2409  004A6C  EF3A  F025         	goto	u6421
  2410  004A70  EF3C  F025         	goto	u6420
  2411  004A74                     u6421:
  2412  004A74  EF46  F025         	goto	l198
  2413  004A78                     u6420:
  2414  004A78                     
  2415                           ; BSR set to: 1
  2416                           ;process.c: 19:             PORTB=0x00;
  2417  004A78  0E00               	movlw	0
  2418  004A7A  6E81               	movwf	129,c	;volatile
  2419  004A7C                     
  2420                           ; BSR set to: 1
  2421                           ;process.c: 20:             CEN++;
  2422  004A7C  4B83               	infsnz	_CEN& (0+255),f,b
  2423  004A7E  2B84               	incf	(_CEN+1)& (0+255),f,b
  2424  004A80                     
  2425                           ; BSR set to: 1
  2426                           ;process.c: 22:             segment(CEN);
  2427  004A80  C183  F151         	movff	_CEN,segment@centenas
  2428  004A84  C184  F152         	movff	_CEN+1,segment@centenas+1
  2429  004A88  EC36  F01D         	call	_segment	;wreg free
  2430  004A8C                     l198:
  2431  004A8C  0012               	return		;funcret
  2432  004A8E                     __end_of_mostrar_inc:
  2433                           	opt callstack 0
  2434                           
  2435 ;; *************** function _segment *****************
  2436 ;; Defined at:
  2437 ;;		line 48 in file "process.c"
  2438 ;; Parameters:    Size  Location     Type
  2439 ;;  centenas        2    1[BANK1 ] unsigned int 
  2440 ;; Auto vars:     Size  Location     Type
  2441 ;;		None
  2442 ;; Return value:  Size  Location     Type
  2443 ;;                  1    wreg      void 
  2444 ;; Registers used:
  2445 ;;		wreg, status,2, status,0
  2446 ;; Tracked objects:
  2447 ;;		On entry : 0/0
  2448 ;;		On exit  : 0/0
  2449 ;;		Unchanged: 0/0
  2450 ;; Data sizes:     COMRAM   BANK0   BANK1   BANK2   BANK3   BANK4   BANK5   BANK6   BANK7
  2451 ;;      Params:         0       0       2       0       0       0       0       0       0
  2452 ;;      Locals:         0       0       0       0       0       0       0       0       0
  2453 ;;      Temps:          0       0       0       0       0       0       0       0       0
  2454 ;;      Totals:         0       0       2       0       0       0       0       0       0
  2455 ;;Total ram usage:        2 bytes
  2456 ;; Hardware stack levels used:    1
  2457 ;; Hardware stack levels required when called:   10
  2458 ;; This function calls:
  2459 ;;		Nothing
  2460 ;; This function is called by:
  2461 ;;		_mostrar_inc
  2462 ;; This function uses a non-reentrant model
  2463 ;;
  2464                           
  2465                           	psect	text8
  2466  003A6C                     __ptext8:
  2467                           	opt callstack 0
  2468  003A6C                     _segment:
  2469                           	opt callstack 18
  2470  003A6C                     
  2471                           ;process.c: 49:     if(centenas==1){
  2472  003A6C  0101               	movlb	1	; () banked
  2473  003A6E  0551               	decf	segment@centenas& (0+255),w,b
  2474  003A70  1152               	iorwf	(segment@centenas+1)& (0+255),w,b
  2475  003A72  A4D8               	btfss	status,2,c
  2476  003A74  EF3E  F01D         	goto	u5961
  2477  003A78  EF40  F01D         	goto	u5960
  2478  003A7C                     u5961:
  2479  003A7C  EF44  F01D         	goto	l4927
  2480  003A80                     u5960:
  2481  003A80                     
  2482                           ; BSR set to: 1
  2483                           ;process.c: 50:         PORTA=0x7E;
  2484  003A80  0E7E               	movlw	126
  2485  003A82  6E80               	movwf	128,c	;volatile
  2486                           
  2487                           ;process.c: 51:     }
  2488  003A84  EFC6  F01D         	goto	l228
  2489  003A88                     l4927:
  2490                           
  2491                           ; BSR set to: 1
  2492  003A88  0E02               	movlw	2
  2493  003A8A  1951               	xorwf	segment@centenas& (0+255),w,b
  2494  003A8C  1152               	iorwf	(segment@centenas+1)& (0+255),w,b
  2495  003A8E  A4D8               	btfss	status,2,c
  2496  003A90  EF4C  F01D         	goto	u5971
  2497  003A94  EF4E  F01D         	goto	u5970
  2498  003A98                     u5971:
  2499  003A98  EF52  F01D         	goto	l4931
  2500  003A9C                     u5970:
  2501  003A9C                     
  2502                           ; BSR set to: 1
  2503                           ;process.c: 53:         PORTA=0x30;
  2504  003A9C  0E30               	movlw	48
  2505  003A9E  6E80               	movwf	128,c	;volatile
  2506                           
  2507                           ;process.c: 54:     }
  2508  003AA0  EFC6  F01D         	goto	l228
  2509  003AA4                     l4931:
  2510                           
  2511                           ; BSR set to: 1
  2512  003AA4  0E03               	movlw	3
  2513  003AA6  1951               	xorwf	segment@centenas& (0+255),w,b
  2514  003AA8  1152               	iorwf	(segment@centenas+1)& (0+255),w,b
  2515  003AAA  A4D8               	btfss	status,2,c
  2516  003AAC  EF5A  F01D         	goto	u5981
  2517  003AB0  EF5C  F01D         	goto	u5980
  2518  003AB4                     u5981:
  2519  003AB4  EF60  F01D         	goto	l4935
  2520  003AB8                     u5980:
  2521  003AB8                     
  2522                           ; BSR set to: 1
  2523                           ;process.c: 56:         PORTA=0x6D;
  2524  003AB8  0E6D               	movlw	109
  2525  003ABA  6E80               	movwf	128,c	;volatile
  2526                           
  2527                           ;process.c: 57:     }
  2528  003ABC  EFC6  F01D         	goto	l228
  2529  003AC0                     l4935:
  2530                           
  2531                           ; BSR set to: 1
  2532  003AC0  0E04               	movlw	4
  2533  003AC2  1951               	xorwf	segment@centenas& (0+255),w,b
  2534  003AC4  1152               	iorwf	(segment@centenas+1)& (0+255),w,b
  2535  003AC6  A4D8               	btfss	status,2,c
  2536  003AC8  EF68  F01D         	goto	u5991
  2537  003ACC  EF6A  F01D         	goto	u5990
  2538  003AD0                     u5991:
  2539  003AD0  EF6E  F01D         	goto	l4939
  2540  003AD4                     u5990:
  2541  003AD4                     
  2542                           ; BSR set to: 1
  2543                           ;process.c: 59:         PORTA=0x79;
  2544  003AD4  0E79               	movlw	121
  2545  003AD6  6E80               	movwf	128,c	;volatile
  2546                           
  2547                           ;process.c: 60:     }
  2548  003AD8  EFC6  F01D         	goto	l228
  2549  003ADC                     l4939:
  2550                           
  2551                           ; BSR set to: 1
  2552  003ADC  0E05               	movlw	5
  2553  003ADE  1951               	xorwf	segment@centenas& (0+255),w,b
  2554  003AE0  1152               	iorwf	(segment@centenas+1)& (0+255),w,b
  2555  003AE2  A4D8               	btfss	status,2,c
  2556  003AE4  EF76  F01D         	goto	u6001
  2557  003AE8  EF78  F01D         	goto	u6000
  2558  003AEC                     u6001:
  2559  003AEC  EF7C  F01D         	goto	l4943
  2560  003AF0                     u6000:
  2561  003AF0                     
  2562                           ; BSR set to: 1
  2563                           ;process.c: 62:         PORTA=0x33;
  2564  003AF0  0E33               	movlw	51
  2565  003AF2  6E80               	movwf	128,c	;volatile
  2566                           
  2567                           ;process.c: 63:     }
  2568  003AF4  EFC6  F01D         	goto	l228
  2569  003AF8                     l4943:
  2570                           
  2571                           ; BSR set to: 1
  2572  003AF8  0E06               	movlw	6
  2573  003AFA  1951               	xorwf	segment@centenas& (0+255),w,b
  2574  003AFC  1152               	iorwf	(segment@centenas+1)& (0+255),w,b
  2575  003AFE  A4D8               	btfss	status,2,c
  2576  003B00  EF84  F01D         	goto	u6011
  2577  003B04  EF86  F01D         	goto	u6010
  2578  003B08                     u6011:
  2579  003B08  EF8A  F01D         	goto	l4947
  2580  003B0C                     u6010:
  2581  003B0C                     
  2582                           ; BSR set to: 1
  2583                           ;process.c: 65:         PORTA=0x5B;
  2584  003B0C  0E5B               	movlw	91
  2585  003B0E  6E80               	movwf	128,c	;volatile
  2586                           
  2587                           ;process.c: 66:     }
  2588  003B10  EFC6  F01D         	goto	l228
  2589  003B14                     l4947:
  2590                           
  2591                           ; BSR set to: 1
  2592  003B14  0E07               	movlw	7
  2593  003B16  1951               	xorwf	segment@centenas& (0+255),w,b
  2594  003B18  1152               	iorwf	(segment@centenas+1)& (0+255),w,b
  2595  003B1A  A4D8               	btfss	status,2,c
  2596  003B1C  EF92  F01D         	goto	u6021
  2597  003B20  EF94  F01D         	goto	u6020
  2598  003B24                     u6021:
  2599  003B24  EF98  F01D         	goto	l4951
  2600  003B28                     u6020:
  2601  003B28                     
  2602                           ; BSR set to: 1
  2603                           ;process.c: 68:         PORTA=0x5F;
  2604  003B28  0E5F               	movlw	95
  2605  003B2A  6E80               	movwf	128,c	;volatile
  2606                           
  2607                           ;process.c: 69:     }
  2608  003B2C  EFC6  F01D         	goto	l228
  2609  003B30                     l4951:
  2610                           
  2611                           ; BSR set to: 1
  2612  003B30  0E08               	movlw	8
  2613  003B32  1951               	xorwf	segment@centenas& (0+255),w,b
  2614  003B34  1152               	iorwf	(segment@centenas+1)& (0+255),w,b
  2615  003B36  A4D8               	btfss	status,2,c
  2616  003B38  EFA0  F01D         	goto	u6031
  2617  003B3C  EFA2  F01D         	goto	u6030
  2618  003B40                     u6031:
  2619  003B40  EFA6  F01D         	goto	l4955
  2620  003B44                     u6030:
  2621  003B44                     
  2622                           ; BSR set to: 1
  2623                           ;process.c: 71:         PORTA=0x70;
  2624  003B44  0E70               	movlw	112
  2625  003B46  6E80               	movwf	128,c	;volatile
  2626                           
  2627                           ;process.c: 72:     }
  2628  003B48  EFC6  F01D         	goto	l228
  2629  003B4C                     l4955:
  2630                           
  2631                           ; BSR set to: 1
  2632  003B4C  0E09               	movlw	9
  2633  003B4E  1951               	xorwf	segment@centenas& (0+255),w,b
  2634  003B50  1152               	iorwf	(segment@centenas+1)& (0+255),w,b
  2635  003B52  A4D8               	btfss	status,2,c
  2636  003B54  EFAE  F01D         	goto	u6041
  2637  003B58  EFB0  F01D         	goto	u6040
  2638  003B5C                     u6041:
  2639  003B5C  EFB4  F01D         	goto	l4959
  2640  003B60                     u6040:
  2641  003B60                     
  2642                           ; BSR set to: 1
  2643                           ;process.c: 74:         PORTA=0x7F;
  2644  003B60  0E7F               	movlw	127
  2645  003B62  6E80               	movwf	128,c	;volatile
  2646                           
  2647                           ;process.c: 75:     }
  2648  003B64  EFC6  F01D         	goto	l228
  2649  003B68                     l4959:
  2650                           
  2651                           ; BSR set to: 1
  2652  003B68  0E0A               	movlw	10
  2653  003B6A  1951               	xorwf	segment@centenas& (0+255),w,b
  2654  003B6C  1152               	iorwf	(segment@centenas+1)& (0+255),w,b
  2655  003B6E  A4D8               	btfss	status,2,c
  2656  003B70  EFBC  F01D         	goto	u6051
  2657  003B74  EFBE  F01D         	goto	u6050
  2658  003B78                     u6051:
  2659  003B78  EFC6  F01D         	goto	l222
  2660  003B7C                     u6050:
  2661  003B7C                     
  2662                           ; BSR set to: 1
  2663                           ;process.c: 77:         PORTA=0x73;
  2664  003B7C  0E73               	movlw	115
  2665  003B7E  6E80               	movwf	128,c	;volatile
  2666                           
  2667                           ;process.c: 78:         CEN2=10;
  2668  003B80  0E00               	movlw	0
  2669  003B82  6F82               	movwf	(_CEN2+1)& (0+255),b
  2670  003B84  0E0A               	movlw	10
  2671  003B86  6F81               	movwf	_CEN2& (0+255),b
  2672  003B88  EFC6  F01D         	goto	l228
  2673  003B8C                     l222:
  2674  003B8C                     l228:
  2675                           
  2676                           ; BSR set to: 1
  2677  003B8C  0012               	return		;funcret
  2678  003B8E                     __end_of_segment:
  2679                           	opt callstack 0
  2680                           
  2681 ;; *************** function _mostrar_dec *****************
  2682 ;; Defined at:
  2683 ;;		line 26 in file "process.c"
  2684 ;; Parameters:    Size  Location     Type
  2685 ;;  duty            2   34[BANK1 ] unsigned int 
  2686 ;; Auto vars:     Size  Location     Type
  2687 ;;  par             2   38[BANK1 ] int 
  2688 ;;  por_pwm         2   36[BANK1 ] int 
  2689 ;; Return value:  Size  Location     Type
  2690 ;;                  1    wreg      void 
  2691 ;; Registers used:
  2692 ;;		wreg, status,2, status,0, cstack
  2693 ;; Tracked objects:
  2694 ;;		On entry : 0/0
  2695 ;;		On exit  : 0/0
  2696 ;;		Unchanged: 0/0
  2697 ;; Data sizes:     COMRAM   BANK0   BANK1   BANK2   BANK3   BANK4   BANK5   BANK6   BANK7
  2698 ;;      Params:         0       0       2       0       0       0       0       0       0
  2699 ;;      Locals:         0       0       4       0       0       0       0       0       0
  2700 ;;      Temps:          0       0       0       0       0       0       0       0       0
  2701 ;;      Totals:         0       0       6       0       0       0       0       0       0
  2702 ;;Total ram usage:        6 bytes
  2703 ;; Hardware stack levels used:    1
  2704 ;; Hardware stack levels required when called:   12
  2705 ;; This function calls:
  2706 ;;		_PWM_generar
  2707 ;;		___lwdiv
  2708 ;;		_segment2
  2709 ;; This function is called by:
  2710 ;;		_Dutty_Pwm
  2711 ;;		_demo_Dutty_Pwm
  2712 ;; This function uses a non-reentrant model
  2713 ;;
  2714                           
  2715                           	psect	text9
  2716  004306                     __ptext9:
  2717                           	opt callstack 0
  2718  004306                     _mostrar_dec:
  2719                           	opt callstack 17
  2720  004306                     
  2721                           ;process.c: 27:         int por_pwm, par;;process.c: 28:         por_pwm=duty/5;
  2722  004306  C172  F151         	movff	mostrar_dec@duty,___lwdiv@dividend
  2723  00430A  C173  F152         	movff	mostrar_dec@duty+1,___lwdiv@dividend+1
  2724  00430E  0E00               	movlw	0
  2725  004310  0101               	movlb	1	; () banked
  2726  004312  6F54               	movwf	(___lwdiv@divisor+1)& (0+255),b
  2727  004314  0E05               	movlw	5
  2728  004316  6F53               	movwf	___lwdiv@divisor& (0+255),b
  2729  004318  ECA1  F024         	call	___lwdiv	;wreg free
  2730  00431C  C151  F174         	movff	?___lwdiv,mostrar_dec@por_pwm
  2731  004320  C152  F175         	movff	?___lwdiv+1,mostrar_dec@por_pwm+1
  2732  004324                     
  2733                           ;process.c: 29:         par = por_pwm%2;
  2734  004324  0E01               	movlw	1
  2735  004326  0101               	movlb	1	; () banked
  2736  004328  1574               	andwf	mostrar_dec@por_pwm& (0+255),w,b
  2737  00432A  6F76               	movwf	mostrar_dec@par& (0+255),b
  2738  00432C  6B77               	clrf	(mostrar_dec@par+1)& (0+255),b
  2739  00432E                     
  2740                           ; BSR set to: 1
  2741                           ;process.c: 31:         if(por_pwm==20 && par==0){
  2742  00432E  0E14               	movlw	20
  2743  004330  1974               	xorwf	mostrar_dec@por_pwm& (0+255),w,b
  2744  004332  1175               	iorwf	(mostrar_dec@por_pwm+1)& (0+255),w,b
  2745  004334  A4D8               	btfss	status,2,c
  2746  004336  EF9F  F021         	goto	u6431
  2747  00433A  EFA1  F021         	goto	u6430
  2748  00433E                     u6431:
  2749  00433E  EFBA  F021         	goto	l5215
  2750  004342                     u6430:
  2751  004342                     
  2752                           ; BSR set to: 1
  2753  004342  5176               	movf	mostrar_dec@par& (0+255),w,b
  2754  004344  1177               	iorwf	(mostrar_dec@par+1)& (0+255),w,b
  2755  004346  A4D8               	btfss	status,2,c
  2756  004348  EFA8  F021         	goto	u6441
  2757  00434C  EFAA  F021         	goto	u6440
  2758  004350                     u6441:
  2759  004350  EFBA  F021         	goto	l5215
  2760  004354                     u6440:
  2761  004354                     
  2762                           ; BSR set to: 1
  2763                           ;process.c: 32:             PORTA=0x7E;
  2764  004354  0E7E               	movlw	126
  2765  004356  6E80               	movwf	128,c	;volatile
  2766                           
  2767                           ;process.c: 33:             PORTB=0xF8;
  2768  004358  0EF8               	movlw	248
  2769  00435A  6E81               	movwf	129,c	;volatile
  2770  00435C                     
  2771                           ; BSR set to: 1
  2772                           ;process.c: 34:             PWM_generar(100,1000);
  2773  00435C  0E00               	movlw	0
  2774  00435E  6F5F               	movwf	(PWM_generar@duty+1)& (0+255),b
  2775  004360  0E64               	movlw	100
  2776  004362  6F5E               	movwf	PWM_generar@duty& (0+255),b
  2777  004364  0E03               	movlw	3
  2778  004366  6F61               	movwf	(PWM_generar@fpwm+1)& (0+255),b
  2779  004368  0EE8               	movlw	232
  2780  00436A  6F60               	movwf	PWM_generar@fpwm& (0+255),b
  2781  00436C  EC9A  F015         	call	_PWM_generar	;wreg free
  2782                           
  2783                           ;process.c: 36:         }
  2784  004370  EFE5  F021         	goto	l206
  2785  004374                     l5215:
  2786                           
  2787                           ; BSR set to: 1
  2788  004374  0E14               	movlw	20
  2789  004376  1974               	xorwf	mostrar_dec@por_pwm& (0+255),w,b
  2790  004378  1175               	iorwf	(mostrar_dec@por_pwm+1)& (0+255),w,b
  2791  00437A  B4D8               	btfsc	status,2,c
  2792  00437C  EFC2  F021         	goto	u6451
  2793  004380  EFC4  F021         	goto	u6450
  2794  004384                     u6451:
  2795  004384  EFDA  F021         	goto	l5225
  2796  004388                     u6450:
  2797  004388                     
  2798                           ; BSR set to: 1
  2799  004388  0576               	decf	mostrar_dec@par& (0+255),w,b
  2800  00438A  1177               	iorwf	(mostrar_dec@par+1)& (0+255),w,b
  2801  00438C  A4D8               	btfss	status,2,c
  2802  00438E  EFCB  F021         	goto	u6461
  2803  004392  EFCD  F021         	goto	u6460
  2804  004396                     u6461:
  2805  004396  EFDA  F021         	goto	l5225
  2806  00439A                     u6460:
  2807  00439A                     
  2808                           ; BSR set to: 1
  2809                           ;process.c: 38:             PORTB=0xF0;
  2810  00439A  0EF0               	movlw	240
  2811  00439C  6E81               	movwf	129,c	;volatile
  2812  00439E                     
  2813                           ; BSR set to: 1
  2814                           ;process.c: 39:             CEN2--;
  2815  00439E  0781               	decf	_CEN2& (0+255),f,b
  2816  0043A0  A0D8               	btfss	status,0,c
  2817  0043A2  0782               	decf	(_CEN2+1)& (0+255),f,b
  2818  0043A4                     
  2819                           ; BSR set to: 1
  2820                           ;process.c: 41:             segment2(CEN2);
  2821  0043A4  C181  F151         	movff	_CEN2,segment2@centenas
  2822  0043A8  C182  F152         	movff	_CEN2+1,segment2@centenas+1
  2823  0043AC  ECC7  F01D         	call	_segment2	;wreg free
  2824                           
  2825                           ;process.c: 42:         }
  2826  0043B0  EFE5  F021         	goto	l206
  2827  0043B4                     l5225:
  2828                           
  2829                           ; BSR set to: 1
  2830  0043B4  5176               	movf	mostrar_dec@par& (0+255),w,b
  2831  0043B6  1177               	iorwf	(mostrar_dec@par+1)& (0+255),w,b
  2832  0043B8  A4D8               	btfss	status,2,c
  2833  0043BA  EFE1  F021         	goto	u6471
  2834  0043BE  EFE3  F021         	goto	u6470
  2835  0043C2                     u6471:
  2836  0043C2  EFE5  F021         	goto	l206
  2837  0043C6                     u6470:
  2838  0043C6                     
  2839                           ; BSR set to: 1
  2840                           ;process.c: 44:             PORTB=0x00;
  2841  0043C6  0E00               	movlw	0
  2842  0043C8  6E81               	movwf	129,c	;volatile
  2843  0043CA                     l206:
  2844  0043CA  0012               	return		;funcret
  2845  0043CC                     __end_of_mostrar_dec:
  2846                           	opt callstack 0
  2847                           
  2848 ;; *************** function _segment2 *****************
  2849 ;; Defined at:
  2850 ;;		line 82 in file "process.c"
  2851 ;; Parameters:    Size  Location     Type
  2852 ;;  centenas        2    1[BANK1 ] unsigned int 
  2853 ;; Auto vars:     Size  Location     Type
  2854 ;;		None
  2855 ;; Return value:  Size  Location     Type
  2856 ;;                  1    wreg      void 
  2857 ;; Registers used:
  2858 ;;		wreg, status,2, status,0
  2859 ;; Tracked objects:
  2860 ;;		On entry : 0/0
  2861 ;;		On exit  : 0/0
  2862 ;;		Unchanged: 0/0
  2863 ;; Data sizes:     COMRAM   BANK0   BANK1   BANK2   BANK3   BANK4   BANK5   BANK6   BANK7
  2864 ;;      Params:         0       0       2       0       0       0       0       0       0
  2865 ;;      Locals:         0       0       0       0       0       0       0       0       0
  2866 ;;      Temps:          0       0       0       0       0       0       0       0       0
  2867 ;;      Totals:         0       0       2       0       0       0       0       0       0
  2868 ;;Total ram usage:        2 bytes
  2869 ;; Hardware stack levels used:    1
  2870 ;; Hardware stack levels required when called:   10
  2871 ;; This function calls:
  2872 ;;		Nothing
  2873 ;; This function is called by:
  2874 ;;		_mostrar_dec
  2875 ;; This function uses a non-reentrant model
  2876 ;;
  2877                           
  2878                           	psect	text10
  2879  003B8E                     __ptext10:
  2880                           	opt callstack 0
  2881  003B8E                     _segment2:
  2882                           	opt callstack 18
  2883  003B8E                     
  2884                           ;process.c: 83:     if(centenas==1){
  2885  003B8E  0101               	movlb	1	; () banked
  2886  003B90  0551               	decf	segment2@centenas& (0+255),w,b
  2887  003B92  1152               	iorwf	(segment2@centenas+1)& (0+255),w,b
  2888  003B94  A4D8               	btfss	status,2,c
  2889  003B96  EFCF  F01D         	goto	u6061
  2890  003B9A  EFD1  F01D         	goto	u6060
  2891  003B9E                     u6061:
  2892  003B9E  EFD9  F01D         	goto	l4967
  2893  003BA2                     u6060:
  2894  003BA2                     
  2895                           ; BSR set to: 1
  2896                           ;process.c: 84:         PORTA=0x30;
  2897  003BA2  0E30               	movlw	48
  2898  003BA4  6E80               	movwf	128,c	;volatile
  2899                           
  2900                           ;process.c: 85:         CEN=1;
  2901  003BA6  0E00               	movlw	0
  2902  003BA8  6F84               	movwf	(_CEN+1)& (0+255),b
  2903  003BAA  0E01               	movlw	1
  2904  003BAC  6F83               	movwf	_CEN& (0+255),b
  2905                           
  2906                           ;process.c: 86:     }
  2907  003BAE  EF57  F01E         	goto	l250
  2908  003BB2                     l4967:
  2909                           
  2910                           ; BSR set to: 1
  2911  003BB2  0E02               	movlw	2
  2912  003BB4  1951               	xorwf	segment2@centenas& (0+255),w,b
  2913  003BB6  1152               	iorwf	(segment2@centenas+1)& (0+255),w,b
  2914  003BB8  A4D8               	btfss	status,2,c
  2915  003BBA  EFE1  F01D         	goto	u6071
  2916  003BBE  EFE3  F01D         	goto	u6070
  2917  003BC2                     u6071:
  2918  003BC2  EFE7  F01D         	goto	l4971
  2919  003BC6                     u6070:
  2920  003BC6                     
  2921                           ; BSR set to: 1
  2922                           ;process.c: 88:         PORTA=0x6D;
  2923  003BC6  0E6D               	movlw	109
  2924  003BC8  6E80               	movwf	128,c	;volatile
  2925                           
  2926                           ;process.c: 89:     }
  2927  003BCA  EF57  F01E         	goto	l250
  2928  003BCE                     l4971:
  2929                           
  2930                           ; BSR set to: 1
  2931  003BCE  0E03               	movlw	3
  2932  003BD0  1951               	xorwf	segment2@centenas& (0+255),w,b
  2933  003BD2  1152               	iorwf	(segment2@centenas+1)& (0+255),w,b
  2934  003BD4  A4D8               	btfss	status,2,c
  2935  003BD6  EFEF  F01D         	goto	u6081
  2936  003BDA  EFF1  F01D         	goto	u6080
  2937  003BDE                     u6081:
  2938  003BDE  EFF5  F01D         	goto	l4975
  2939  003BE2                     u6080:
  2940  003BE2                     
  2941                           ; BSR set to: 1
  2942                           ;process.c: 91:         PORTA=0x79;
  2943  003BE2  0E79               	movlw	121
  2944  003BE4  6E80               	movwf	128,c	;volatile
  2945                           
  2946                           ;process.c: 92:     }
  2947  003BE6  EF57  F01E         	goto	l250
  2948  003BEA                     l4975:
  2949                           
  2950                           ; BSR set to: 1
  2951  003BEA  0E04               	movlw	4
  2952  003BEC  1951               	xorwf	segment2@centenas& (0+255),w,b
  2953  003BEE  1152               	iorwf	(segment2@centenas+1)& (0+255),w,b
  2954  003BF0  A4D8               	btfss	status,2,c
  2955  003BF2  EFFD  F01D         	goto	u6091
  2956  003BF6  EFFF  F01D         	goto	u6090
  2957  003BFA                     u6091:
  2958  003BFA  EF03  F01E         	goto	l4979
  2959  003BFE                     u6090:
  2960  003BFE                     
  2961                           ; BSR set to: 1
  2962                           ;process.c: 94:         PORTA=0x33;
  2963  003BFE  0E33               	movlw	51
  2964  003C00  6E80               	movwf	128,c	;volatile
  2965                           
  2966                           ;process.c: 95:     }
  2967  003C02  EF57  F01E         	goto	l250
  2968  003C06                     l4979:
  2969                           
  2970                           ; BSR set to: 1
  2971  003C06  0E05               	movlw	5
  2972  003C08  1951               	xorwf	segment2@centenas& (0+255),w,b
  2973  003C0A  1152               	iorwf	(segment2@centenas+1)& (0+255),w,b
  2974  003C0C  A4D8               	btfss	status,2,c
  2975  003C0E  EF0B  F01E         	goto	u6101
  2976  003C12  EF0D  F01E         	goto	u6100
  2977  003C16                     u6101:
  2978  003C16  EF11  F01E         	goto	l4983
  2979  003C1A                     u6100:
  2980  003C1A                     
  2981                           ; BSR set to: 1
  2982                           ;process.c: 97:         PORTA=0x5B;
  2983  003C1A  0E5B               	movlw	91
  2984  003C1C  6E80               	movwf	128,c	;volatile
  2985                           
  2986                           ;process.c: 98:     }
  2987  003C1E  EF57  F01E         	goto	l250
  2988  003C22                     l4983:
  2989                           
  2990                           ; BSR set to: 1
  2991  003C22  0E06               	movlw	6
  2992  003C24  1951               	xorwf	segment2@centenas& (0+255),w,b
  2993  003C26  1152               	iorwf	(segment2@centenas+1)& (0+255),w,b
  2994  003C28  A4D8               	btfss	status,2,c
  2995  003C2A  EF19  F01E         	goto	u6111
  2996  003C2E  EF1B  F01E         	goto	u6110
  2997  003C32                     u6111:
  2998  003C32  EF1F  F01E         	goto	l4987
  2999  003C36                     u6110:
  3000  003C36                     
  3001                           ; BSR set to: 1
  3002                           ;process.c: 100:         PORTA=0x5F;
  3003  003C36  0E5F               	movlw	95
  3004  003C38  6E80               	movwf	128,c	;volatile
  3005                           
  3006                           ;process.c: 101:     }
  3007  003C3A  EF57  F01E         	goto	l250
  3008  003C3E                     l4987:
  3009                           
  3010                           ; BSR set to: 1
  3011  003C3E  0E07               	movlw	7
  3012  003C40  1951               	xorwf	segment2@centenas& (0+255),w,b
  3013  003C42  1152               	iorwf	(segment2@centenas+1)& (0+255),w,b
  3014  003C44  A4D8               	btfss	status,2,c
  3015  003C46  EF27  F01E         	goto	u6121
  3016  003C4A  EF29  F01E         	goto	u6120
  3017  003C4E                     u6121:
  3018  003C4E  EF2D  F01E         	goto	l4991
  3019  003C52                     u6120:
  3020  003C52                     
  3021                           ; BSR set to: 1
  3022                           ;process.c: 103:         PORTA=0x70;
  3023  003C52  0E70               	movlw	112
  3024  003C54  6E80               	movwf	128,c	;volatile
  3025                           
  3026                           ;process.c: 104:     }
  3027  003C56  EF57  F01E         	goto	l250
  3028  003C5A                     l4991:
  3029                           
  3030                           ; BSR set to: 1
  3031  003C5A  0E08               	movlw	8
  3032  003C5C  1951               	xorwf	segment2@centenas& (0+255),w,b
  3033  003C5E  1152               	iorwf	(segment2@centenas+1)& (0+255),w,b
  3034  003C60  A4D8               	btfss	status,2,c
  3035  003C62  EF35  F01E         	goto	u6131
  3036  003C66  EF37  F01E         	goto	u6130
  3037  003C6A                     u6131:
  3038  003C6A  EF3B  F01E         	goto	l4995
  3039  003C6E                     u6130:
  3040  003C6E                     
  3041                           ; BSR set to: 1
  3042                           ;process.c: 106:         PORTA=0x7F;
  3043  003C6E  0E7F               	movlw	127
  3044  003C70  6E80               	movwf	128,c	;volatile
  3045                           
  3046                           ;process.c: 107:     }
  3047  003C72  EF57  F01E         	goto	l250
  3048  003C76                     l4995:
  3049                           
  3050                           ; BSR set to: 1
  3051  003C76  0E09               	movlw	9
  3052  003C78  1951               	xorwf	segment2@centenas& (0+255),w,b
  3053  003C7A  1152               	iorwf	(segment2@centenas+1)& (0+255),w,b
  3054  003C7C  A4D8               	btfss	status,2,c
  3055  003C7E  EF43  F01E         	goto	u6141
  3056  003C82  EF45  F01E         	goto	u6140
  3057  003C86                     u6141:
  3058  003C86  EF49  F01E         	goto	l4999
  3059  003C8A                     u6140:
  3060  003C8A                     
  3061                           ; BSR set to: 1
  3062                           ;process.c: 109:         PORTA=0x73;
  3063  003C8A  0E73               	movlw	115
  3064  003C8C  6E80               	movwf	128,c	;volatile
  3065                           
  3066                           ;process.c: 110:     }
  3067  003C8E  EF57  F01E         	goto	l250
  3068  003C92                     l4999:
  3069                           
  3070                           ; BSR set to: 1
  3071  003C92  0E0A               	movlw	10
  3072  003C94  1951               	xorwf	segment2@centenas& (0+255),w,b
  3073  003C96  1152               	iorwf	(segment2@centenas+1)& (0+255),w,b
  3074  003C98  A4D8               	btfss	status,2,c
  3075  003C9A  EF51  F01E         	goto	u6151
  3076  003C9E  EF53  F01E         	goto	u6150
  3077  003CA2                     u6151:
  3078  003CA2  EF57  F01E         	goto	l244
  3079  003CA6                     u6150:
  3080  003CA6                     
  3081                           ; BSR set to: 1
  3082                           ;process.c: 112:         PORTA=0x7E;
  3083  003CA6  0E7E               	movlw	126
  3084  003CA8  6E80               	movwf	128,c	;volatile
  3085  003CAA  EF57  F01E         	goto	l250
  3086  003CAE                     l244:
  3087  003CAE                     l250:
  3088                           
  3089                           ; BSR set to: 1
  3090  003CAE  0012               	return		;funcret
  3091  003CB0                     __end_of_segment2:
  3092                           	opt callstack 0
  3093                           
  3094 ;; *************** function ___lwdiv *****************
  3095 ;; Defined at:
  3096 ;;		line 7 in file "/opt/microchip/xc8/v2.10/pic/sources/c99/common/lwdiv.c"
  3097 ;; Parameters:    Size  Location     Type
  3098 ;;  dividend        2    1[BANK1 ] unsigned int 
  3099 ;;  divisor         2    3[BANK1 ] unsigned int 
  3100 ;; Auto vars:     Size  Location     Type
  3101 ;;  quotient        2    5[BANK1 ] unsigned int 
  3102 ;;  counter         1    7[BANK1 ] unsigned char 
  3103 ;; Return value:  Size  Location     Type
  3104 ;;                  2    1[BANK1 ] unsigned int 
  3105 ;; Registers used:
  3106 ;;		wreg, status,2, status,0
  3107 ;; Tracked objects:
  3108 ;;		On entry : 0/0
  3109 ;;		On exit  : 0/0
  3110 ;;		Unchanged: 0/0
  3111 ;; Data sizes:     COMRAM   BANK0   BANK1   BANK2   BANK3   BANK4   BANK5   BANK6   BANK7
  3112 ;;      Params:         0       0       4       0       0       0       0       0       0
  3113 ;;      Locals:         0       0       3       0       0       0       0       0       0
  3114 ;;      Temps:          0       0       0       0       0       0       0       0       0
  3115 ;;      Totals:         0       0       7       0       0       0       0       0       0
  3116 ;;Total ram usage:        7 bytes
  3117 ;; Hardware stack levels used:    1
  3118 ;; Hardware stack levels required when called:   10
  3119 ;; This function calls:
  3120 ;;		Nothing
  3121 ;; This function is called by:
  3122 ;;		_mostrar_inc
  3123 ;;		_mostrar_dec
  3124 ;; This function uses a non-reentrant model
  3125 ;;
  3126                           
  3127                           	psect	text11
  3128  004942                     __ptext11:
  3129                           	opt callstack 0
  3130  004942                     ___lwdiv:
  3131                           	opt callstack 18
  3132  004942  0E00               	movlw	0
  3133  004944  0101               	movlb	1	; () banked
  3134  004946  6F56               	movwf	(___lwdiv@quotient+1)& (0+255),b
  3135  004948  0E00               	movlw	0
  3136  00494A  6F55               	movwf	___lwdiv@quotient& (0+255),b
  3137  00494C                     
  3138                           ; BSR set to: 1
  3139  00494C  5153               	movf	___lwdiv@divisor& (0+255),w,b
  3140  00494E  1154               	iorwf	(___lwdiv@divisor+1)& (0+255),w,b
  3141  004950  B4D8               	btfsc	status,2,c
  3142  004952  EFAD  F024         	goto	u6321
  3143  004956  EFAF  F024         	goto	u6320
  3144  00495A                     u6321:
  3145  00495A  EFD7  F024         	goto	l1022
  3146  00495E                     u6320:
  3147  00495E                     
  3148                           ; BSR set to: 1
  3149  00495E  0E01               	movlw	1
  3150  004960  6F57               	movwf	___lwdiv@counter& (0+255),b
  3151  004962  EFB7  F024         	goto	l5111
  3152  004966                     l5109:
  3153                           
  3154                           ; BSR set to: 1
  3155  004966  90D8               	bcf	status,0,c
  3156  004968  3753               	rlcf	___lwdiv@divisor& (0+255),f,b
  3157  00496A  3754               	rlcf	(___lwdiv@divisor+1)& (0+255),f,b
  3158  00496C  2B57               	incf	___lwdiv@counter& (0+255),f,b
  3159  00496E                     l5111:
  3160                           
  3161                           ; BSR set to: 1
  3162  00496E  AF54               	btfss	(___lwdiv@divisor+1)& (0+255),7,b
  3163  004970  EFBC  F024         	goto	u6331
  3164  004974  EFBE  F024         	goto	u6330
  3165  004978                     u6331:
  3166  004978  EFB3  F024         	goto	l5109
  3167  00497C                     u6330:
  3168  00497C                     l5113:
  3169                           
  3170                           ; BSR set to: 1
  3171  00497C  90D8               	bcf	status,0,c
  3172  00497E  3755               	rlcf	___lwdiv@quotient& (0+255),f,b
  3173  004980  3756               	rlcf	(___lwdiv@quotient+1)& (0+255),f,b
  3174  004982                     
  3175                           ; BSR set to: 1
  3176  004982  5153               	movf	___lwdiv@divisor& (0+255),w,b
  3177  004984  5D51               	subwf	___lwdiv@dividend& (0+255),w,b
  3178  004986  5154               	movf	(___lwdiv@divisor+1)& (0+255),w,b
  3179  004988  5952               	subwfb	(___lwdiv@dividend+1)& (0+255),w,b
  3180  00498A  A0D8               	btfss	status,0,c
  3181  00498C  EFCA  F024         	goto	u6341
  3182  004990  EFCC  F024         	goto	u6340
  3183  004994                     u6341:
  3184  004994  EFD1  F024         	goto	l5121
  3185  004998                     u6340:
  3186  004998                     
  3187                           ; BSR set to: 1
  3188  004998  5153               	movf	___lwdiv@divisor& (0+255),w,b
  3189  00499A  5F51               	subwf	___lwdiv@dividend& (0+255),f,b
  3190  00499C  5154               	movf	(___lwdiv@divisor+1)& (0+255),w,b
  3191  00499E  5B52               	subwfb	(___lwdiv@dividend+1)& (0+255),f,b
  3192  0049A0                     
  3193                           ; BSR set to: 1
  3194  0049A0  8155               	bsf	___lwdiv@quotient& (0+255),0,b
  3195  0049A2                     l5121:
  3196                           
  3197                           ; BSR set to: 1
  3198  0049A2  90D8               	bcf	status,0,c
  3199  0049A4  3354               	rrcf	(___lwdiv@divisor+1)& (0+255),f,b
  3200  0049A6  3353               	rrcf	___lwdiv@divisor& (0+255),f,b
  3201  0049A8                     
  3202                           ; BSR set to: 1
  3203  0049A8  2F57               	decfsz	___lwdiv@counter& (0+255),f,b
  3204  0049AA  EFBE  F024         	goto	l5113
  3205  0049AE                     l1022:
  3206                           
  3207                           ; BSR set to: 1
  3208  0049AE  C155  F151         	movff	___lwdiv@quotient,?___lwdiv
  3209  0049B2  C156  F152         	movff	___lwdiv@quotient+1,?___lwdiv+1
  3210  0049B6                     
  3211                           ; BSR set to: 1
  3212  0049B6  0012               	return		;funcret
  3213  0049B8                     __end_of___lwdiv:
  3214                           	opt callstack 0
  3215                           
  3216 ;; *************** function _PWM_generar *****************
  3217 ;; Defined at:
  3218 ;;		line 10 in file "PWM.c"
  3219 ;; Parameters:    Size  Location     Type
  3220 ;;  duty            2   14[BANK1 ] unsigned int 
  3221 ;;  fpwm            2   16[BANK1 ] unsigned int 
  3222 ;; Auto vars:     Size  Location     Type
  3223 ;;  AuxCCPR2L       4   30[BANK1 ] unsigned long 
  3224 ;;  PR2cal          4   26[BANK1 ] unsigned long 
  3225 ;;  AuxCCP2CON      2   24[BANK1 ] unsigned int 
  3226 ;;  prescalador     2   22[BANK1 ] unsigned int 
  3227 ;; Return value:  Size  Location     Type
  3228 ;;                  1    wreg      void 
  3229 ;; Registers used:
  3230 ;;		wreg, status,2, status,0, cstack
  3231 ;; Tracked objects:
  3232 ;;		On entry : 0/0
  3233 ;;		On exit  : 0/0
  3234 ;;		Unchanged: 0/0
  3235 ;; Data sizes:     COMRAM   BANK0   BANK1   BANK2   BANK3   BANK4   BANK5   BANK6   BANK7
  3236 ;;      Params:         0       0       4       0       0       0       0       0       0
  3237 ;;      Locals:         0       0      12       0       0       0       0       0       0
  3238 ;;      Temps:          0       0       4       0       0       0       0       0       0
  3239 ;;      Totals:         0       0      20       0       0       0       0       0       0
  3240 ;;Total ram usage:       20 bytes
  3241 ;; Hardware stack levels used:    1
  3242 ;; Hardware stack levels required when called:   11
  3243 ;; This function calls:
  3244 ;;		___lldiv
  3245 ;;		___lmul
  3246 ;; This function is called by:
  3247 ;;		_mostrar_dec
  3248 ;;		_Dutty_Pwm
  3249 ;;		_demo_Dutty_Pwm
  3250 ;; This function uses a non-reentrant model
  3251 ;;
  3252                           
  3253                           	psect	text12
  3254  002B34                     __ptext12:
  3255                           	opt callstack 0
  3256  002B34                     _PWM_generar:
  3257                           	opt callstack 17
  3258  002B34                     
  3259                           ;PWM.c: 17:     TRISCbits.RC1=0;
  3260  002B34  9294               	bcf	148,1,c	;volatile
  3261  002B36                     
  3262                           ;PWM.c: 18:     ANSELC=0;
  3263  002B36  0E00               	movlw	0
  3264  002B38  010F               	movlb	15	; () banked
  3265  002B3A  6F5D               	movwf	93,b	;volatile
  3266                           
  3267                           ;PWM.c: 19:     unsigned int prescalador=1;
  3268  002B3C  0E00               	movlw	0
  3269  002B3E  0101               	movlb	1	; () banked
  3270  002B40  6F67               	movwf	(PWM_generar@prescalador+1)& (0+255),b
  3271  002B42  0E01               	movlw	1
  3272  002B44  6F66               	movwf	PWM_generar@prescalador& (0+255),b
  3273                           
  3274                           ;PWM.c: 20:     unsigned long PR2cal=4000000;
  3275  002B46  0E00               	movlw	0
  3276  002B48  6F6A               	movwf	PWM_generar@PR2cal& (0+255),b
  3277  002B4A  0E09               	movlw	9
  3278  002B4C  6F6B               	movwf	(PWM_generar@PR2cal+1)& (0+255),b
  3279  002B4E  0E3D               	movlw	61
  3280  002B50  6F6C               	movwf	(PWM_generar@PR2cal+2)& (0+255),b
  3281  002B52  0E00               	movlw	0
  3282  002B54  6F6D               	movwf	(PWM_generar@PR2cal+3)& (0+255),b
  3283  002B56                     
  3284                           ; BSR set to: 1
  3285                           ;PWM.c: 21:     PR2cal=PR2cal/fpwm;
  3286  002B56  C16A  F151         	movff	PWM_generar@PR2cal,___lldiv@dividend
  3287  002B5A  C16B  F152         	movff	PWM_generar@PR2cal+1,___lldiv@dividend+1
  3288  002B5E  C16C  F153         	movff	PWM_generar@PR2cal+2,___lldiv@dividend+2
  3289  002B62  C16D  F154         	movff	PWM_generar@PR2cal+3,___lldiv@dividend+3
  3290  002B66  C160  F155         	movff	PWM_generar@fpwm,___lldiv@divisor
  3291  002B6A  C161  F156         	movff	PWM_generar@fpwm+1,___lldiv@divisor+1
  3292  002B6E  6B57               	clrf	(___lldiv@divisor+2)& (0+255),b
  3293  002B70  6B58               	clrf	(___lldiv@divisor+3)& (0+255),b
  3294  002B72  ECAE  F023         	call	___lldiv	;wreg free
  3295  002B76  C151  F16A         	movff	?___lldiv,PWM_generar@PR2cal
  3296  002B7A  C152  F16B         	movff	?___lldiv+1,PWM_generar@PR2cal+1
  3297  002B7E  C153  F16C         	movff	?___lldiv+2,PWM_generar@PR2cal+2
  3298  002B82  C154  F16D         	movff	?___lldiv+3,PWM_generar@PR2cal+3
  3299  002B86                     
  3300                           ;PWM.c: 22:     PR2cal=PR2cal/4;
  3301  002B86  C16A  F162         	movff	PWM_generar@PR2cal,??_PWM_generar
  3302  002B8A  C16B  F163         	movff	PWM_generar@PR2cal+1,??_PWM_generar+1
  3303  002B8E  C16C  F164         	movff	PWM_generar@PR2cal+2,??_PWM_generar+2
  3304  002B92  C16D  F165         	movff	PWM_generar@PR2cal+3,??_PWM_generar+3
  3305  002B96  0E03               	movlw	3
  3306  002B98  EFD4  F015         	goto	u5910
  3307  002B9C                     u5915:
  3308  002B9C  0101               	movlb	1	; () banked
  3309  002B9E  90D8               	bcf	status,0,c
  3310  002BA0  3365               	rrcf	(??_PWM_generar+3)& (0+255),f,b
  3311  002BA2  3364               	rrcf	(??_PWM_generar+2)& (0+255),f,b
  3312  002BA4  3363               	rrcf	(??_PWM_generar+1)& (0+255),f,b
  3313  002BA6  3362               	rrcf	??_PWM_generar& (0+255),f,b
  3314  002BA8                     u5910:
  3315  002BA8  2EE8               	decfsz	wreg,f,c
  3316  002BAA  EFCE  F015         	goto	u5915
  3317  002BAE  C162  F16A         	movff	??_PWM_generar,PWM_generar@PR2cal
  3318  002BB2  C163  F16B         	movff	??_PWM_generar+1,PWM_generar@PR2cal+1
  3319  002BB6  C164  F16C         	movff	??_PWM_generar+2,PWM_generar@PR2cal+2
  3320  002BBA  C165  F16D         	movff	??_PWM_generar+3,PWM_generar@PR2cal+3
  3321  002BBE                     
  3322                           ; BSR set to: 1
  3323                           ;PWM.c: 23:     T2CON=0b00000000;
  3324  002BBE  0E00               	movlw	0
  3325  002BC0  6EBA               	movwf	186,c	;volatile
  3326                           
  3327                           ;PWM.c: 24:     while(PR2cal>256){
  3328  002BC2  EF0D  F016         	goto	l4893
  3329  002BC6                     l4889:
  3330                           
  3331                           ; BSR set to: 1
  3332                           ;PWM.c: 25:        prescalador=prescalador*4;
  3333  002BC6  C166  F162         	movff	PWM_generar@prescalador,??_PWM_generar
  3334  002BCA  C167  F163         	movff	PWM_generar@prescalador+1,??_PWM_generar+1
  3335  002BCE  90D8               	bcf	status,0,c
  3336  002BD0  3762               	rlcf	??_PWM_generar& (0+255),f,b
  3337  002BD2  3763               	rlcf	(??_PWM_generar+1)& (0+255),f,b
  3338  002BD4  90D8               	bcf	status,0,c
  3339  002BD6  3762               	rlcf	??_PWM_generar& (0+255),f,b
  3340  002BD8  3763               	rlcf	(??_PWM_generar+1)& (0+255),f,b
  3341  002BDA  C162  F166         	movff	??_PWM_generar,PWM_generar@prescalador
  3342  002BDE  C163  F167         	movff	??_PWM_generar+1,PWM_generar@prescalador+1
  3343                           
  3344                           ;PWM.c: 26:        T2CON++;
  3345  002BE2  2ABA               	incf	186,f,c	;volatile
  3346  002BE4                     
  3347                           ; BSR set to: 1
  3348                           ;PWM.c: 27:        PR2cal=PR2cal/4;
  3349  002BE4  C16A  F162         	movff	PWM_generar@PR2cal,??_PWM_generar
  3350  002BE8  C16B  F163         	movff	PWM_generar@PR2cal+1,??_PWM_generar+1
  3351  002BEC  C16C  F164         	movff	PWM_generar@PR2cal+2,??_PWM_generar+2
  3352  002BF0  C16D  F165         	movff	PWM_generar@PR2cal+3,??_PWM_generar+3
  3353  002BF4  0E03               	movlw	3
  3354  002BF6  EF02  F016         	goto	u5920
  3355  002BFA                     u5925:
  3356  002BFA  90D8               	bcf	status,0,c
  3357  002BFC  3365               	rrcf	(??_PWM_generar+3)& (0+255),f,b
  3358  002BFE  3364               	rrcf	(??_PWM_generar+2)& (0+255),f,b
  3359  002C00  3363               	rrcf	(??_PWM_generar+1)& (0+255),f,b
  3360  002C02  3362               	rrcf	??_PWM_generar& (0+255),f,b
  3361  002C04                     u5920:
  3362  002C04  2EE8               	decfsz	wreg,f,c
  3363  002C06  EFFD  F015         	goto	u5925
  3364  002C0A  C162  F16A         	movff	??_PWM_generar,PWM_generar@PR2cal
  3365  002C0E  C163  F16B         	movff	??_PWM_generar+1,PWM_generar@PR2cal+1
  3366  002C12  C164  F16C         	movff	??_PWM_generar+2,PWM_generar@PR2cal+2
  3367  002C16  C165  F16D         	movff	??_PWM_generar+3,PWM_generar@PR2cal+3
  3368  002C1A                     l4893:
  3369                           
  3370                           ; BSR set to: 1
  3371                           ;PWM.c: 24:     while(PR2cal>256){
  3372  002C1A  516D               	movf	(PWM_generar@PR2cal+3)& (0+255),w,b
  3373  002C1C  116C               	iorwf	(PWM_generar@PR2cal+2)& (0+255),w,b
  3374  002C1E  E108               	bnz	u5931
  3375  002C20  056A               	decf	PWM_generar@PR2cal& (0+255),w,b
  3376  002C22  0E01               	movlw	1
  3377  002C24  596B               	subwfb	(PWM_generar@PR2cal+1)& (0+255),w,b
  3378  002C26  B0D8               	btfsc	status,0,c
  3379  002C28  EF18  F016         	goto	u5931
  3380  002C2C  EF1A  F016         	goto	u5930
  3381  002C30                     u5931:
  3382  002C30  EFE3  F015         	goto	l4889
  3383  002C34                     u5930:
  3384  002C34                     
  3385                           ; BSR set to: 1
  3386                           ;PWM.c: 29:     PR2cal--;
  3387  002C34  076A               	decf	PWM_generar@PR2cal& (0+255),f,b
  3388  002C36  0E00               	movlw	0
  3389  002C38  5B6B               	subwfb	(PWM_generar@PR2cal+1)& (0+255),f,b
  3390  002C3A  5B6C               	subwfb	(PWM_generar@PR2cal+2)& (0+255),f,b
  3391  002C3C  5B6D               	subwfb	(PWM_generar@PR2cal+3)& (0+255),f,b
  3392  002C3E                     
  3393                           ; BSR set to: 1
  3394                           ;PWM.c: 30:     PR2=PR2cal;
  3395  002C3E  C16A  FFBB         	movff	PWM_generar@PR2cal,4027	;volatile
  3396  002C42                     
  3397                           ; BSR set to: 1
  3398                           ;PWM.c: 37:     unsigned long AuxCCPR2L=PR2cal;
  3399  002C42  C16A  F16E         	movff	PWM_generar@PR2cal,PWM_generar@AuxCCPR2L
  3400  002C46  C16B  F16F         	movff	PWM_generar@PR2cal+1,PWM_generar@AuxCCPR2L+1
  3401  002C4A  C16C  F170         	movff	PWM_generar@PR2cal+2,PWM_generar@AuxCCPR2L+2
  3402  002C4E  C16D  F171         	movff	PWM_generar@PR2cal+3,PWM_generar@AuxCCPR2L+3
  3403                           
  3404                           ;PWM.c: 38:     AuxCCPR2L++;
  3405  002C52  0E01               	movlw	1
  3406  002C54  276E               	addwf	PWM_generar@AuxCCPR2L& (0+255),f,b
  3407  002C56  0E00               	movlw	0
  3408  002C58  236F               	addwfc	(PWM_generar@AuxCCPR2L+1)& (0+255),f,b
  3409  002C5A  2370               	addwfc	(PWM_generar@AuxCCPR2L+2)& (0+255),f,b
  3410  002C5C  2371               	addwfc	(PWM_generar@AuxCCPR2L+3)& (0+255),f,b
  3411  002C5E                     
  3412                           ; BSR set to: 1
  3413                           ;PWM.c: 39:     AuxCCPR2L=AuxCCPR2L*duty;
  3414  002C5E  C15E  F151         	movff	PWM_generar@duty,___lmul@multiplier
  3415  002C62  C15F  F152         	movff	PWM_generar@duty+1,___lmul@multiplier+1
  3416  002C66  6B53               	clrf	(___lmul@multiplier+2)& (0+255),b
  3417  002C68  6B54               	clrf	(___lmul@multiplier+3)& (0+255),b
  3418  002C6A  C16E  F155         	movff	PWM_generar@AuxCCPR2L,___lmul@multiplicand
  3419  002C6E  C16F  F156         	movff	PWM_generar@AuxCCPR2L+1,___lmul@multiplicand+1
  3420  002C72  C170  F157         	movff	PWM_generar@AuxCCPR2L+2,___lmul@multiplicand+2
  3421  002C76  C171  F158         	movff	PWM_generar@AuxCCPR2L+3,___lmul@multiplicand+3
  3422  002C7A  ECDC  F024         	call	___lmul	;wreg free
  3423  002C7E  C151  F16E         	movff	?___lmul,PWM_generar@AuxCCPR2L
  3424  002C82  C152  F16F         	movff	?___lmul+1,PWM_generar@AuxCCPR2L+1
  3425  002C86  C153  F170         	movff	?___lmul+2,PWM_generar@AuxCCPR2L+2
  3426  002C8A  C154  F171         	movff	?___lmul+3,PWM_generar@AuxCCPR2L+3
  3427  002C8E                     
  3428                           ;PWM.c: 40:     AuxCCPR2L=AuxCCPR2L*4;
  3429  002C8E  C16E  F162         	movff	PWM_generar@AuxCCPR2L,??_PWM_generar
  3430  002C92  C16F  F163         	movff	PWM_generar@AuxCCPR2L+1,??_PWM_generar+1
  3431  002C96  C170  F164         	movff	PWM_generar@AuxCCPR2L+2,??_PWM_generar+2
  3432  002C9A  C171  F165         	movff	PWM_generar@AuxCCPR2L+3,??_PWM_generar+3
  3433  002C9E  0E02               	movlw	2
  3434  002CA0                     u5945:
  3435  002CA0  90D8               	bcf	status,0,c
  3436  002CA2  0101               	movlb	1	; () banked
  3437  002CA4  3762               	rlcf	??_PWM_generar& (0+255),f,b
  3438  002CA6  3763               	rlcf	(??_PWM_generar+1)& (0+255),f,b
  3439  002CA8  3764               	rlcf	(??_PWM_generar+2)& (0+255),f,b
  3440  002CAA  3765               	rlcf	(??_PWM_generar+3)& (0+255),f,b
  3441  002CAC  2EE8               	decfsz	wreg,f,c
  3442  002CAE  EF50  F016         	goto	u5945
  3443  002CB2  C162  F16E         	movff	??_PWM_generar,PWM_generar@AuxCCPR2L
  3444  002CB6  C163  F16F         	movff	??_PWM_generar+1,PWM_generar@AuxCCPR2L+1
  3445  002CBA  C164  F170         	movff	??_PWM_generar+2,PWM_generar@AuxCCPR2L+2
  3446  002CBE  C165  F171         	movff	??_PWM_generar+3,PWM_generar@AuxCCPR2L+3
  3447                           
  3448                           ;PWM.c: 41:     AuxCCPR2L=AuxCCPR2L/100;
  3449  002CC2  C16E  F151         	movff	PWM_generar@AuxCCPR2L,___lldiv@dividend
  3450  002CC6  C16F  F152         	movff	PWM_generar@AuxCCPR2L+1,___lldiv@dividend+1
  3451  002CCA  C170  F153         	movff	PWM_generar@AuxCCPR2L+2,___lldiv@dividend+2
  3452  002CCE  C171  F154         	movff	PWM_generar@AuxCCPR2L+3,___lldiv@dividend+3
  3453  002CD2  0E64               	movlw	100
  3454  002CD4  6F55               	movwf	___lldiv@divisor& (0+255),b
  3455  002CD6  0E00               	movlw	0
  3456  002CD8  6F56               	movwf	(___lldiv@divisor+1)& (0+255),b
  3457  002CDA  0E00               	movlw	0
  3458  002CDC  6F57               	movwf	(___lldiv@divisor+2)& (0+255),b
  3459  002CDE  0E00               	movlw	0
  3460  002CE0  6F58               	movwf	(___lldiv@divisor+3)& (0+255),b
  3461  002CE2  ECAE  F023         	call	___lldiv	;wreg free
  3462  002CE6  C151  F16E         	movff	?___lldiv,PWM_generar@AuxCCPR2L
  3463  002CEA  C152  F16F         	movff	?___lldiv+1,PWM_generar@AuxCCPR2L+1
  3464  002CEE  C153  F170         	movff	?___lldiv+2,PWM_generar@AuxCCPR2L+2
  3465  002CF2  C154  F171         	movff	?___lldiv+3,PWM_generar@AuxCCPR2L+3
  3466  002CF6                     
  3467                           ;PWM.c: 42:     unsigned int AuxCCP2CON= AuxCCPR2L;
  3468  002CF6  C16E  F168         	movff	PWM_generar@AuxCCPR2L,PWM_generar@AuxCCP2CON
  3469  002CFA  C16F  F169         	movff	PWM_generar@AuxCCPR2L+1,PWM_generar@AuxCCP2CON+1
  3470  002CFE                     
  3471                           ;PWM.c: 43:     AuxCCP2CON= AuxCCP2CON & 0b00000011 ;
  3472  002CFE  0E03               	movlw	3
  3473  002D00  0101               	movlb	1	; () banked
  3474  002D02  1568               	andwf	PWM_generar@AuxCCP2CON& (0+255),w,b
  3475  002D04  6F68               	movwf	PWM_generar@AuxCCP2CON& (0+255),b
  3476  002D06  6B69               	clrf	(PWM_generar@AuxCCP2CON+1)& (0+255),b
  3477  002D08                     
  3478                           ; BSR set to: 1
  3479                           ;PWM.c: 44:     AuxCCP2CON= AuxCCP2CON*16;
  3480  002D08  C168  F162         	movff	PWM_generar@AuxCCP2CON,??_PWM_generar
  3481  002D0C  C169  F163         	movff	PWM_generar@AuxCCP2CON+1,??_PWM_generar+1
  3482  002D10  3B62               	swapf	??_PWM_generar& (0+255),f,b
  3483  002D12  3B63               	swapf	(??_PWM_generar+1)& (0+255),f,b
  3484  002D14  0EF0               	movlw	240
  3485  002D16  1763               	andwf	(??_PWM_generar+1)& (0+255),f,b
  3486  002D18  5162               	movf	??_PWM_generar& (0+255),w,b
  3487  002D1A  0B0F               	andlw	15
  3488  002D1C  1363               	iorwf	(??_PWM_generar+1)& (0+255),f,b
  3489  002D1E  0EF0               	movlw	240
  3490  002D20  1762               	andwf	??_PWM_generar& (0+255),f,b
  3491  002D22  C162  F168         	movff	??_PWM_generar,PWM_generar@AuxCCP2CON
  3492  002D26  C163  F169         	movff	??_PWM_generar+1,PWM_generar@AuxCCP2CON+1
  3493  002D2A                     
  3494                           ; BSR set to: 1
  3495                           ;PWM.c: 45:     CCP2CON= 0b00001100;
  3496  002D2A  0E0C               	movlw	12
  3497  002D2C  6E97               	movwf	151,c	;volatile
  3498  002D2E                     
  3499                           ; BSR set to: 1
  3500                           ;PWM.c: 46:     CCP2CON= CCP2CON|AuxCCP2CON;
  3501  002D2E  5097               	movf	151,w,c
  3502  002D30  1168               	iorwf	PWM_generar@AuxCCP2CON& (0+255),w,b
  3503  002D32  6E97               	movwf	151,c	;volatile
  3504  002D34                     
  3505                           ; BSR set to: 1
  3506                           ;PWM.c: 47:     AuxCCPR2L=AuxCCPR2L/4;
  3507  002D34  C16E  F162         	movff	PWM_generar@AuxCCPR2L,??_PWM_generar
  3508  002D38  C16F  F163         	movff	PWM_generar@AuxCCPR2L+1,??_PWM_generar+1
  3509  002D3C  C170  F164         	movff	PWM_generar@AuxCCPR2L+2,??_PWM_generar+2
  3510  002D40  C171  F165         	movff	PWM_generar@AuxCCPR2L+3,??_PWM_generar+3
  3511  002D44  0E03               	movlw	3
  3512  002D46  EFAA  F016         	goto	u5950
  3513  002D4A                     u5955:
  3514  002D4A  90D8               	bcf	status,0,c
  3515  002D4C  3365               	rrcf	(??_PWM_generar+3)& (0+255),f,b
  3516  002D4E  3364               	rrcf	(??_PWM_generar+2)& (0+255),f,b
  3517  002D50  3363               	rrcf	(??_PWM_generar+1)& (0+255),f,b
  3518  002D52  3362               	rrcf	??_PWM_generar& (0+255),f,b
  3519  002D54                     u5950:
  3520  002D54  2EE8               	decfsz	wreg,f,c
  3521  002D56  EFA5  F016         	goto	u5955
  3522  002D5A  C162  F16E         	movff	??_PWM_generar,PWM_generar@AuxCCPR2L
  3523  002D5E  C163  F16F         	movff	??_PWM_generar+1,PWM_generar@AuxCCPR2L+1
  3524  002D62  C164  F170         	movff	??_PWM_generar+2,PWM_generar@AuxCCPR2L+2
  3525  002D66  C165  F171         	movff	??_PWM_generar+3,PWM_generar@AuxCCPR2L+3
  3526  002D6A                     
  3527                           ; BSR set to: 1
  3528                           ;PWM.c: 48:     CCPR2L=AuxCCPR2L;
  3529  002D6A  C16E  FF90         	movff	PWM_generar@AuxCCPR2L,3984	;volatile
  3530  002D6E                     
  3531                           ; BSR set to: 1
  3532                           ;PWM.c: 49:     T2CONbits.TMR2ON=1;
  3533  002D6E  84BA               	bsf	186,2,c	;volatile
  3534  002D70                     
  3535                           ; BSR set to: 1
  3536                           ;PWM.c: 50:     TMR2=0;
  3537  002D70  0E00               	movlw	0
  3538  002D72  6EBC               	movwf	188,c	;volatile
  3539  002D74                     
  3540                           ; BSR set to: 1
  3541  002D74  0012               	return		;funcret
  3542  002D76                     __end_of_PWM_generar:
  3543                           	opt callstack 0
  3544                           
  3545 ;; *************** function ___lmul *****************
  3546 ;; Defined at:
  3547 ;;		line 15 in file "/opt/microchip/xc8/v2.10/pic/sources/c99/common/Umul32.c"
  3548 ;; Parameters:    Size  Location     Type
  3549 ;;  multiplier      4    1[BANK1 ] unsigned long 
  3550 ;;  multiplicand    4    5[BANK1 ] unsigned long 
  3551 ;; Auto vars:     Size  Location     Type
  3552 ;;  product         4    9[BANK1 ] unsigned long 
  3553 ;; Return value:  Size  Location     Type
  3554 ;;                  4    1[BANK1 ] unsigned long 
  3555 ;; Registers used:
  3556 ;;		wreg, status,2, status,0
  3557 ;; Tracked objects:
  3558 ;;		On entry : 0/0
  3559 ;;		On exit  : 0/0
  3560 ;;		Unchanged: 0/0
  3561 ;; Data sizes:     COMRAM   BANK0   BANK1   BANK2   BANK3   BANK4   BANK5   BANK6   BANK7
  3562 ;;      Params:         0       0       8       0       0       0       0       0       0
  3563 ;;      Locals:         0       0       4       0       0       0       0       0       0
  3564 ;;      Temps:          0       0       0       0       0       0       0       0       0
  3565 ;;      Totals:         0       0      12       0       0       0       0       0       0
  3566 ;;Total ram usage:       12 bytes
  3567 ;; Hardware stack levels used:    1
  3568 ;; Hardware stack levels required when called:   10
  3569 ;; This function calls:
  3570 ;;		Nothing
  3571 ;; This function is called by:
  3572 ;;		_PWM_generar
  3573 ;; This function uses a non-reentrant model
  3574 ;;
  3575                           
  3576                           	psect	text13
  3577  0049B8                     __ptext13:
  3578                           	opt callstack 0
  3579  0049B8                     ___lmul:
  3580                           	opt callstack 17
  3581  0049B8  0E00               	movlw	0
  3582  0049BA  0101               	movlb	1	; () banked
  3583  0049BC  6F59               	movwf	___lmul@product& (0+255),b
  3584  0049BE  0E00               	movlw	0
  3585  0049C0  6F5A               	movwf	(___lmul@product+1)& (0+255),b
  3586  0049C2  0E00               	movlw	0
  3587  0049C4  6F5B               	movwf	(___lmul@product+2)& (0+255),b
  3588  0049C6  0E00               	movlw	0
  3589  0049C8  6F5C               	movwf	(___lmul@product+3)& (0+255),b
  3590  0049CA                     l4849:
  3591                           
  3592                           ; BSR set to: 1
  3593  0049CA  A151               	btfss	___lmul@multiplier& (0+255),0,b
  3594  0049CC  EFEA  F024         	goto	u5861
  3595  0049D0  EFEC  F024         	goto	u5860
  3596  0049D4                     u5861:
  3597  0049D4  EFF4  F024         	goto	l4853
  3598  0049D8                     u5860:
  3599  0049D8                     
  3600                           ; BSR set to: 1
  3601  0049D8  5155               	movf	___lmul@multiplicand& (0+255),w,b
  3602  0049DA  2759               	addwf	___lmul@product& (0+255),f,b
  3603  0049DC  5156               	movf	(___lmul@multiplicand+1)& (0+255),w,b
  3604  0049DE  235A               	addwfc	(___lmul@product+1)& (0+255),f,b
  3605  0049E0  5157               	movf	(___lmul@multiplicand+2)& (0+255),w,b
  3606  0049E2  235B               	addwfc	(___lmul@product+2)& (0+255),f,b
  3607  0049E4  5158               	movf	(___lmul@multiplicand+3)& (0+255),w,b
  3608  0049E6  235C               	addwfc	(___lmul@product+3)& (0+255),f,b
  3609  0049E8                     l4853:
  3610                           
  3611                           ; BSR set to: 1
  3612  0049E8  90D8               	bcf	status,0,c
  3613  0049EA  3755               	rlcf	___lmul@multiplicand& (0+255),f,b
  3614  0049EC  3756               	rlcf	(___lmul@multiplicand+1)& (0+255),f,b
  3615  0049EE  3757               	rlcf	(___lmul@multiplicand+2)& (0+255),f,b
  3616  0049F0  3758               	rlcf	(___lmul@multiplicand+3)& (0+255),f,b
  3617  0049F2                     
  3618                           ; BSR set to: 1
  3619  0049F2  90D8               	bcf	status,0,c
  3620  0049F4  3354               	rrcf	(___lmul@multiplier+3)& (0+255),f,b
  3621  0049F6  3353               	rrcf	(___lmul@multiplier+2)& (0+255),f,b
  3622  0049F8  3352               	rrcf	(___lmul@multiplier+1)& (0+255),f,b
  3623  0049FA  3351               	rrcf	___lmul@multiplier& (0+255),f,b
  3624  0049FC  5151               	movf	___lmul@multiplier& (0+255),w,b
  3625  0049FE  1152               	iorwf	(___lmul@multiplier+1)& (0+255),w,b
  3626  004A00  1153               	iorwf	(___lmul@multiplier+2)& (0+255),w,b
  3627  004A02  1154               	iorwf	(___lmul@multiplier+3)& (0+255),w,b
  3628  004A04  A4D8               	btfss	status,2,c
  3629  004A06  EF07  F025         	goto	u5871
  3630  004A0A  EF09  F025         	goto	u5870
  3631  004A0E                     u5871:
  3632  004A0E  EFE5  F024         	goto	l4849
  3633  004A12                     u5870:
  3634  004A12                     
  3635                           ; BSR set to: 1
  3636  004A12  C159  F151         	movff	___lmul@product,?___lmul
  3637  004A16  C15A  F152         	movff	___lmul@product+1,?___lmul+1
  3638  004A1A  C15B  F153         	movff	___lmul@product+2,?___lmul+2
  3639  004A1E  C15C  F154         	movff	___lmul@product+3,?___lmul+3
  3640  004A22                     
  3641                           ; BSR set to: 1
  3642  004A22  0012               	return		;funcret
  3643  004A24                     __end_of___lmul:
  3644                           	opt callstack 0
  3645                           
  3646 ;; *************** function ___lldiv *****************
  3647 ;; Defined at:
  3648 ;;		line 7 in file "/opt/microchip/xc8/v2.10/pic/sources/c99/common/__lldiv.c"
  3649 ;; Parameters:    Size  Location     Type
  3650 ;;  dividend        4    1[BANK1 ] unsigned long 
  3651 ;;  divisor         4    5[BANK1 ] unsigned long 
  3652 ;; Auto vars:     Size  Location     Type
  3653 ;;  quotient        4    9[BANK1 ] unsigned long 
  3654 ;;  counter         1   13[BANK1 ] unsigned char 
  3655 ;; Return value:  Size  Location     Type
  3656 ;;                  4    1[BANK1 ] unsigned long 
  3657 ;; Registers used:
  3658 ;;		wreg, status,2, status,0
  3659 ;; Tracked objects:
  3660 ;;		On entry : 0/0
  3661 ;;		On exit  : 0/0
  3662 ;;		Unchanged: 0/0
  3663 ;; Data sizes:     COMRAM   BANK0   BANK1   BANK2   BANK3   BANK4   BANK5   BANK6   BANK7
  3664 ;;      Params:         0       0       8       0       0       0       0       0       0
  3665 ;;      Locals:         0       0       5       0       0       0       0       0       0
  3666 ;;      Temps:          0       0       0       0       0       0       0       0       0
  3667 ;;      Totals:         0       0      13       0       0       0       0       0       0
  3668 ;;Total ram usage:       13 bytes
  3669 ;; Hardware stack levels used:    1
  3670 ;; Hardware stack levels required when called:   10
  3671 ;; This function calls:
  3672 ;;		Nothing
  3673 ;; This function is called by:
  3674 ;;		_PWM_generar
  3675 ;; This function uses a non-reentrant model
  3676 ;;
  3677                           
  3678                           	psect	text14
  3679  00475C                     __ptext14:
  3680                           	opt callstack 0
  3681  00475C                     ___lldiv:
  3682                           	opt callstack 17
  3683  00475C  0E00               	movlw	0
  3684  00475E  0101               	movlb	1	; () banked
  3685  004760  6F59               	movwf	___lldiv@quotient& (0+255),b
  3686  004762  0E00               	movlw	0
  3687  004764  6F5A               	movwf	(___lldiv@quotient+1)& (0+255),b
  3688  004766  0E00               	movlw	0
  3689  004768  6F5B               	movwf	(___lldiv@quotient+2)& (0+255),b
  3690  00476A  0E00               	movlw	0
  3691  00476C  6F5C               	movwf	(___lldiv@quotient+3)& (0+255),b
  3692  00476E                     
  3693                           ; BSR set to: 1
  3694  00476E  5155               	movf	___lldiv@divisor& (0+255),w,b
  3695  004770  1156               	iorwf	(___lldiv@divisor+1)& (0+255),w,b
  3696  004772  1157               	iorwf	(___lldiv@divisor+2)& (0+255),w,b
  3697  004774  1158               	iorwf	(___lldiv@divisor+3)& (0+255),w,b
  3698  004776  B4D8               	btfsc	status,2,c
  3699  004778  EFC0  F023         	goto	u5881
  3700  00477C  EFC2  F023         	goto	u5880
  3701  004780                     u5881:
  3702  004780  EFF8  F023         	goto	l558
  3703  004784                     u5880:
  3704  004784                     
  3705                           ; BSR set to: 1
  3706  004784  0E01               	movlw	1
  3707  004786  6F5D               	movwf	___lldiv@counter& (0+255),b
  3708  004788  EFCC  F023         	goto	l4865
  3709  00478C                     l4863:
  3710                           
  3711                           ; BSR set to: 1
  3712  00478C  90D8               	bcf	status,0,c
  3713  00478E  3755               	rlcf	___lldiv@divisor& (0+255),f,b
  3714  004790  3756               	rlcf	(___lldiv@divisor+1)& (0+255),f,b
  3715  004792  3757               	rlcf	(___lldiv@divisor+2)& (0+255),f,b
  3716  004794  3758               	rlcf	(___lldiv@divisor+3)& (0+255),f,b
  3717  004796  2B5D               	incf	___lldiv@counter& (0+255),f,b
  3718  004798                     l4865:
  3719                           
  3720                           ; BSR set to: 1
  3721  004798  AF58               	btfss	(___lldiv@divisor+3)& (0+255),7,b
  3722  00479A  EFD1  F023         	goto	u5891
  3723  00479E  EFD3  F023         	goto	u5890
  3724  0047A2                     u5891:
  3725  0047A2  EFC6  F023         	goto	l4863
  3726  0047A6                     u5890:
  3727  0047A6                     l4867:
  3728                           
  3729                           ; BSR set to: 1
  3730  0047A6  90D8               	bcf	status,0,c
  3731  0047A8  3759               	rlcf	___lldiv@quotient& (0+255),f,b
  3732  0047AA  375A               	rlcf	(___lldiv@quotient+1)& (0+255),f,b
  3733  0047AC  375B               	rlcf	(___lldiv@quotient+2)& (0+255),f,b
  3734  0047AE  375C               	rlcf	(___lldiv@quotient+3)& (0+255),f,b
  3735  0047B0                     
  3736                           ; BSR set to: 1
  3737  0047B0  5155               	movf	___lldiv@divisor& (0+255),w,b
  3738  0047B2  5D51               	subwf	___lldiv@dividend& (0+255),w,b
  3739  0047B4  5156               	movf	(___lldiv@divisor+1)& (0+255),w,b
  3740  0047B6  5952               	subwfb	(___lldiv@dividend+1)& (0+255),w,b
  3741  0047B8  5157               	movf	(___lldiv@divisor+2)& (0+255),w,b
  3742  0047BA  5953               	subwfb	(___lldiv@dividend+2)& (0+255),w,b
  3743  0047BC  5158               	movf	(___lldiv@divisor+3)& (0+255),w,b
  3744  0047BE  5954               	subwfb	(___lldiv@dividend+3)& (0+255),w,b
  3745  0047C0  A0D8               	btfss	status,0,c
  3746  0047C2  EFE5  F023         	goto	u5901
  3747  0047C6  EFE7  F023         	goto	u5900
  3748  0047CA                     u5901:
  3749  0047CA  EFF0  F023         	goto	l4875
  3750  0047CE                     u5900:
  3751  0047CE                     
  3752                           ; BSR set to: 1
  3753  0047CE  5155               	movf	___lldiv@divisor& (0+255),w,b
  3754  0047D0  5F51               	subwf	___lldiv@dividend& (0+255),f,b
  3755  0047D2  5156               	movf	(___lldiv@divisor+1)& (0+255),w,b
  3756  0047D4  5B52               	subwfb	(___lldiv@dividend+1)& (0+255),f,b
  3757  0047D6  5157               	movf	(___lldiv@divisor+2)& (0+255),w,b
  3758  0047D8  5B53               	subwfb	(___lldiv@dividend+2)& (0+255),f,b
  3759  0047DA  5158               	movf	(___lldiv@divisor+3)& (0+255),w,b
  3760  0047DC  5B54               	subwfb	(___lldiv@dividend+3)& (0+255),f,b
  3761  0047DE                     
  3762                           ; BSR set to: 1
  3763  0047DE  8159               	bsf	___lldiv@quotient& (0+255),0,b
  3764  0047E0                     l4875:
  3765                           
  3766                           ; BSR set to: 1
  3767  0047E0  90D8               	bcf	status,0,c
  3768  0047E2  3358               	rrcf	(___lldiv@divisor+3)& (0+255),f,b
  3769  0047E4  3357               	rrcf	(___lldiv@divisor+2)& (0+255),f,b
  3770  0047E6  3356               	rrcf	(___lldiv@divisor+1)& (0+255),f,b
  3771  0047E8  3355               	rrcf	___lldiv@divisor& (0+255),f,b
  3772  0047EA                     
  3773                           ; BSR set to: 1
  3774  0047EA  2F5D               	decfsz	___lldiv@counter& (0+255),f,b
  3775  0047EC  EFD3  F023         	goto	l4867
  3776  0047F0                     l558:
  3777                           
  3778                           ; BSR set to: 1
  3779  0047F0  C159  F151         	movff	___lldiv@quotient,?___lldiv
  3780  0047F4  C15A  F152         	movff	___lldiv@quotient+1,?___lldiv+1
  3781  0047F8  C15B  F153         	movff	___lldiv@quotient+2,?___lldiv+2
  3782  0047FC  C15C  F154         	movff	___lldiv@quotient+3,?___lldiv+3
  3783  004800                     
  3784                           ; BSR set to: 1
  3785  004800  0012               	return		;funcret
  3786  004802                     __end_of___lldiv:
  3787                           	opt callstack 0
  3788                           
  3789 ;; *************** function _delay_s *****************
  3790 ;; Defined at:
  3791 ;;		line 136 in file "process.c"
  3792 ;; Parameters:    Size  Location     Type
  3793 ;;  seconds         2    1[BANK1 ] unsigned int 
  3794 ;; Auto vars:     Size  Location     Type
  3795 ;;		None
  3796 ;; Return value:  Size  Location     Type
  3797 ;;                  1    wreg      void 
  3798 ;; Registers used:
  3799 ;;		wreg, status,2, status,0
  3800 ;; Tracked objects:
  3801 ;;		On entry : 0/0
  3802 ;;		On exit  : 0/0
  3803 ;;		Unchanged: 0/0
  3804 ;; Data sizes:     COMRAM   BANK0   BANK1   BANK2   BANK3   BANK4   BANK5   BANK6   BANK7
  3805 ;;      Params:         0       0       2       0       0       0       0       0       0
  3806 ;;      Locals:         0       0       0       0       0       0       0       0       0
  3807 ;;      Temps:          0       0       2       0       0       0       0       0       0
  3808 ;;      Totals:         0       0       4       0       0       0       0       0       0
  3809 ;;Total ram usage:        4 bytes
  3810 ;; Hardware stack levels used:    1
  3811 ;; Hardware stack levels required when called:   10
  3812 ;; This function calls:
  3813 ;;		Nothing
  3814 ;; This function is called by:
  3815 ;;		_Dutty_Pwm
  3816 ;; This function uses a non-reentrant model
  3817 ;;
  3818                           
  3819                           	psect	text15
  3820  004DAA                     __ptext15:
  3821                           	opt callstack 0
  3822  004DAA                     _delay_s:
  3823                           	opt callstack 19
  3824  004DAA                     
  3825                           ;process.c: 136: void delay_s(unsigned int seconds);process.c: 137:  {;process.c: 138:  
      +                            while(seconds > 0)
  3826  004DAA  EFE8  F026         	goto	l256
  3827  004DAE                     l5231:
  3828                           
  3829                           ; BSR set to: 1
  3830                           ;process.c: 139:    {;process.c: 140:        _delay((unsigned long)((1000)*(4000000/4000
      +                          .0)));
  3831  004DAE  0E06               	movlw	6
  3832  004DB0  0101               	movlb	1	; () banked
  3833  004DB2  6F54               	movwf	(??_delay_s+1)& (0+255),b
  3834  004DB4  0E13               	movlw	19
  3835  004DB6  6F53               	movwf	??_delay_s& (0+255),b
  3836  004DB8  0EAD               	movlw	173
  3837  004DBA                     u7017:
  3838  004DBA  2EE8               	decfsz	wreg,f,c
  3839  004DBC  D7FE               	bra	u7017
  3840  004DBE  2F53               	decfsz	??_delay_s& (0+255),f,b
  3841  004DC0  D7FC               	bra	u7017
  3842  004DC2  2F54               	decfsz	(??_delay_s+1)& (0+255),f,b
  3843  004DC4  D7FA               	bra	u7017
  3844  004DC6  D000               	nop2	
  3845  004DC8                     
  3846                           ;process.c: 141:       seconds--;
  3847  004DC8  0101               	movlb	1	; () banked
  3848  004DCA  0751               	decf	delay_s@seconds& (0+255),f,b
  3849  004DCC  A0D8               	btfss	status,0,c
  3850  004DCE  0752               	decf	(delay_s@seconds+1)& (0+255),f,b
  3851  004DD0                     l256:
  3852                           
  3853                           ;process.c: 138:    while(seconds > 0)
  3854  004DD0  0101               	movlb	1	; () banked
  3855  004DD2  5151               	movf	delay_s@seconds& (0+255),w,b
  3856  004DD4  1152               	iorwf	(delay_s@seconds+1)& (0+255),w,b
  3857  004DD6  A4D8               	btfss	status,2,c
  3858  004DD8  EFF0  F026         	goto	u6481
  3859  004DDC  EFF2  F026         	goto	u6480
  3860  004DE0                     u6481:
  3861  004DE0  EFD7  F026         	goto	l5231
  3862  004DE4                     u6480:
  3863  004DE4                     
  3864                           ; BSR set to: 1
  3865  004DE4  0012               	return		;funcret
  3866  004DE6                     __end_of_delay_s:
  3867                           	opt callstack 0
  3868                           
  3869 ;; *************** function _ADC_Init *****************
  3870 ;; Defined at:
  3871 ;;		line 10 in file "adc.c"
  3872 ;; Parameters:    Size  Location     Type
  3873 ;;		None
  3874 ;; Auto vars:     Size  Location     Type
  3875 ;;		None
  3876 ;; Return value:  Size  Location     Type
  3877 ;;                  1    wreg      void 
  3878 ;; Registers used:
  3879 ;;		wreg, status,2
  3880 ;; Tracked objects:
  3881 ;;		On entry : 0/0
  3882 ;;		On exit  : 0/0
  3883 ;;		Unchanged: 0/0
  3884 ;; Data sizes:     COMRAM   BANK0   BANK1   BANK2   BANK3   BANK4   BANK5   BANK6   BANK7
  3885 ;;      Params:         0       0       0       0       0       0       0       0       0
  3886 ;;      Locals:         0       0       0       0       0       0       0       0       0
  3887 ;;      Temps:          0       0       0       0       0       0       0       0       0
  3888 ;;      Totals:         0       0       0       0       0       0       0       0       0
  3889 ;;Total ram usage:        0 bytes
  3890 ;; Hardware stack levels used:    1
  3891 ;; Hardware stack levels required when called:   10
  3892 ;; This function calls:
  3893 ;;		Nothing
  3894 ;; This function is called by:
  3895 ;;		_main
  3896 ;; This function uses a non-reentrant model
  3897 ;;
  3898                           
  3899                           	psect	text16
  3900  004F68                     __ptext16:
  3901                           	opt callstack 0
  3902  004F68                     _ADC_Init:
  3903                           	opt callstack 20
  3904  004F68                     
  3905                           ;adc.c: 12:     ADCON1 = 0x0e;
  3906  004F68  0E0E               	movlw	14
  3907  004F6A  6EC1               	movwf	193,c	;volatile
  3908                           
  3909                           ;adc.c: 13:     ADCON2 = 0x92;
  3910  004F6C  0E92               	movlw	146
  3911  004F6E  6EC0               	movwf	192,c	;volatile
  3912                           
  3913                           ;adc.c: 14:     ADRESH=0;
  3914  004F70  0E00               	movlw	0
  3915  004F72  6EC4               	movwf	196,c	;volatile
  3916                           
  3917                           ;adc.c: 15:     ADRESL=0;
  3918  004F74  0E00               	movlw	0
  3919  004F76  6EC3               	movwf	195,c	;volatile
  3920  004F78  0012               	return		;funcret
  3921  004F7A                     __end_of_ADC_Init:
  3922                           	opt callstack 0
  3923                           
  3924 ;; *************** function _INT_EXT_1 *****************
  3925 ;; Defined at:
  3926 ;;		line 65 in file "main.c"
  3927 ;; Parameters:    Size  Location     Type
  3928 ;;		None
  3929 ;; Auto vars:     Size  Location     Type
  3930 ;;		None
  3931 ;; Return value:  Size  Location     Type
  3932 ;;                  1    wreg      void 
  3933 ;; Registers used:
  3934 ;;		None
  3935 ;; Tracked objects:
  3936 ;;		On entry : 0/0
  3937 ;;		On exit  : 0/0
  3938 ;;		Unchanged: 0/0
  3939 ;; Data sizes:     COMRAM   BANK0   BANK1   BANK2   BANK3   BANK4   BANK5   BANK6   BANK7
  3940 ;;      Params:         0       0       0       0       0       0       0       0       0
  3941 ;;      Locals:         0       0       0       0       0       0       0       0       0
  3942 ;;      Temps:          0       0       1       0       0       0       0       0       0
  3943 ;;      Totals:         0       0       1       0       0       0       0       0       0
  3944 ;;Total ram usage:        1 bytes
  3945 ;; Hardware stack levels used:    1
  3946 ;; Hardware stack levels required when called:    9
  3947 ;; This function calls:
  3948 ;;		Nothing
  3949 ;; This function is called by:
  3950 ;;		Interrupt level 1
  3951 ;; This function uses a non-reentrant model
  3952 ;;
  3953                           
  3954                           	psect	intcodelo
  3955  000018                     __pintcodelo:
  3956                           	opt callstack 0
  3957  000018                     _INT_EXT_1:
  3958                           	opt callstack 17
  3959                           
  3960                           ;incstack = 0
  3961  000018  805F               	bsf	int$flags,0,c	;set compiler interrupt flag (level 1)
  3962  00001A  CFE0 F150          	movff	bsr,??_INT_EXT_1
  3963  00001E                     
  3964                           ;main.c: 67:     if(INTCON3bits.INT1IF==1){
  3965  00001E  A0F0               	btfss	240,0,c	;volatile
  3966  000020  EF14  F000         	goto	i1u684_21
  3967  000024  EF16  F000         	goto	i1u684_20
  3968  000028                     i1u684_21:
  3969  000028  EF17  F000         	goto	i1l113
  3970  00002C                     i1u684_20:
  3971  00002C                     
  3972                           ;main.c: 69:         INTCON3bits.INT1IF=0;
  3973  00002C  90F0               	bcf	240,0,c	;volatile
  3974  00002E                     i1l113:
  3975  00002E  C150  FFE0         	movff	??_INT_EXT_1,bsr
  3976  000032  905F               	bcf	int$flags,0,c	;clear compiler interrupt flag (level 1)
  3977  000034  0010               	retfie	
  3978  000036                     __end_of_INT_EXT_1:
  3979                           	opt callstack 0
  3980                           
  3981 ;; *************** function _INT_EX_0 *****************
  3982 ;; Defined at:
  3983 ;;		line 27 in file "main.c"
  3984 ;; Parameters:    Size  Location     Type
  3985 ;;		None
  3986 ;; Auto vars:     Size  Location     Type
  3987 ;;  data           10  116[BANK0 ] unsigned char [10]
  3988 ;;  temp           10  106[BANK0 ] unsigned char [10]
  3989 ;;  voltage         4  132[BANK0 ] float 
  3990 ;;  j               2  130[BANK0 ] int 
  3991 ;;  i               2  128[BANK0 ] int 
  3992 ;;  digital         2  126[BANK0 ] int 
  3993 ;;  k               2    0        int 
  3994 ;; Return value:  Size  Location     Type
  3995 ;;                  1    wreg      void 
  3996 ;; Registers used:
  3997 ;;		wreg, fsr1l, fsr1h, fsr2l, fsr2h, status,2, status,0, tblptrl, tblptrh, tblptru, prodl, prodh, cstack
  3998 ;; Tracked objects:
  3999 ;;		On entry : 0/0
  4000 ;;		On exit  : 0/0
  4001 ;;		Unchanged: 0/0
  4002 ;; Data sizes:     COMRAM   BANK0   BANK1   BANK2   BANK3   BANK4   BANK5   BANK6   BANK7
  4003 ;;      Params:         0       0       0       0       0       0       0       0       0
  4004 ;;      Locals:         0      30       0       0       0       0       0       0       0
  4005 ;;      Temps:          0      12       0       0       0       0       0       0       0
  4006 ;;      Totals:         0      42       0       0       0       0       0       0       0
  4007 ;;Total ram usage:       42 bytes
  4008 ;; Hardware stack levels used:    1
  4009 ;; Hardware stack levels required when called:    8
  4010 ;; This function calls:
  4011 ;;		_ADC_Read
  4012 ;;		_Lcd_Out
  4013 ;;		_Lcd_Out2
  4014 ;;		___fldiv
  4015 ;;		___flmul
  4016 ;;		___fltol
  4017 ;;		___xxtofl
  4018 ;;		_sprintf
  4019 ;;		_strcat
  4020 ;;		i2_Lcd_Cmd
  4021 ;;		i2_eeprom_guardar
  4022 ;;		i2_eeprom_leer
  4023 ;; This function is called by:
  4024 ;;		Interrupt level 2
  4025 ;; This function uses a non-reentrant model
  4026 ;;
  4027                           
  4028                           	psect	intcode
  4029  000008                     __pintcode:
  4030                           	opt callstack 0
  4031  000008                     _INT_EX_0:
  4032                           	opt callstack 17
  4033                           
  4034                           ;incstack = 0
  4035  000008  825F               	bsf	int$flags,1,c	;set compiler interrupt flag (level 2)
  4036  00000A  EF3F  F014         	goto	int_func
  4037                           
  4038                           	psect	intcode_body
  4039  00287E                     __pintcode_body:
  4040                           	opt callstack 17
  4041  00287E                     int_func:
  4042                           	opt callstack 17
  4043  00287E  CFE1 F0C0          	movff	fsr1l,??_INT_EX_0+2
  4044  002882  CFE2 F0C1          	movff	fsr1h,??_INT_EX_0+3
  4045  002886  CFD9 F0C2          	movff	fsr2l,??_INT_EX_0+4
  4046  00288A  CFDA F0C3          	movff	fsr2h,??_INT_EX_0+5
  4047  00288E  CFF3 F0C4          	movff	prodl,??_INT_EX_0+6
  4048  002892  CFF4 F0C5          	movff	prodh,??_INT_EX_0+7
  4049  002896  CFF6 F0C6          	movff	tblptrl,??_INT_EX_0+8
  4050  00289A  CFF7 F0C7          	movff	tblptrh,??_INT_EX_0+9
  4051  00289E  CFF8 F0C8          	movff	tblptru,??_INT_EX_0+10
  4052  0028A2  CFF5 F0C9          	movff	tablat,??_INT_EX_0+11
  4053  0028A6                     
  4054                           ;main.c: 28:     char data[10],temp[10];;main.c: 29:     int digital,i,k,j=0;;
  4055  0028A6  0E00               	movlw	0
  4056  0028A8  0100               	movlb	0	; () banked
  4057  0028AA  6FE3               	movwf	(INT_EX_0@j+1)& (0+255),b
  4058  0028AC  0E00               	movlw	0
  4059  0028AE  6FE2               	movwf	INT_EX_0@j& (0+255),b
  4060  0028B0                     
  4061                           ; BSR set to: 0
  4062                           ;main.c: 30:     float voltage;;main.c: 31:     j=j+1;
  4063  0028B0  0E01               	movlw	1
  4064  0028B2  25E2               	addwf	INT_EX_0@j& (0+255),w,b
  4065  0028B4  6FE2               	movwf	INT_EX_0@j& (0+255),b
  4066  0028B6  0E00               	movlw	0
  4067  0028B8  21E3               	addwfc	(INT_EX_0@j+1)& (0+255),w,b
  4068  0028BA  6FE3               	movwf	(INT_EX_0@j+1)& (0+255),b
  4069  0028BC                     
  4070                           ; BSR set to: 0
  4071                           ;main.c: 32:     if(INTCONbits.INT0IF==1){
  4072  0028BC  A2F2               	btfss	242,1,c	;volatile
  4073  0028BE  EF63  F014         	goto	i2u679_41
  4074  0028C2  EF65  F014         	goto	i2u679_40
  4075  0028C6                     i2u679_41:
  4076  0028C6  EF84  F015         	goto	i2l107
  4077  0028CA                     i2u679_40:
  4078  0028CA                     
  4079                           ; BSR set to: 0
  4080                           ;main.c: 34:         flag=flag+1;
  4081  0028CA  0E01               	movlw	1
  4082  0028CC  25F8               	addwf	_flag& (0+255),w,b
  4083  0028CE  6FF8               	movwf	_flag& (0+255),b
  4084  0028D0  0E00               	movlw	0
  4085  0028D2  21F9               	addwfc	(_flag+1)& (0+255),w,b
  4086  0028D4  6FF9               	movwf	(_flag+1)& (0+255),b
  4087  0028D6                     i2l101:
  4088                           
  4089                           ; BSR set to: 0
  4090                           ;main.c: 36:         if(flag==2){ Lcd_Cmd(1);eeprom_guardar(0,2);eprom=eeprom_leer(0x00)
      +                          ;}
  4091  0028D6  0E02               	movlw	2
  4092  0028D8  19F8               	xorwf	_flag& (0+255),w,b
  4093  0028DA  11F9               	iorwf	(_flag+1)& (0+255),w,b
  4094  0028DC  A4D8               	btfss	status,2,c
  4095  0028DE  EF73  F014         	goto	i2u680_41
  4096  0028E2  EF75  F014         	goto	i2u680_40
  4097  0028E6                     i2u680_41:
  4098  0028E6  EF8B  F014         	goto	i2l5567
  4099  0028EA                     i2u680_40:
  4100  0028EA                     
  4101                           ; BSR set to: 0
  4102  0028EA  0E01               	movlw	1
  4103  0028EC  ECA1  F01C         	call	i2_Lcd_Cmd
  4104  0028F0  0E00               	movlw	0
  4105  0028F2  6E02               	movwf	(i2eeprom_guardar@DIR+1)^0,c
  4106  0028F4  0E00               	movlw	0
  4107  0028F6  6E01               	movwf	i2eeprom_guardar@DIR^0,c
  4108  0028F8  0E02               	movlw	2
  4109  0028FA  6E03               	movwf	i2eeprom_guardar@DATE^0,c
  4110  0028FC  EC78  F027         	call	i2_eeprom_guardar	;wreg free
  4111  002900  0E00               	movlw	0
  4112  002902  6E02               	movwf	(i2eeprom_leer@DIR+1)^0,c
  4113  002904  0E00               	movlw	0
  4114  002906  6E01               	movwf	i2eeprom_leer@DIR^0,c
  4115  002908  ECC4  F027         	call	i2_eeprom_leer	;wreg free
  4116  00290C  0100               	movlb	0	; () banked
  4117  00290E  6FBE               	movwf	??_INT_EX_0& (0+255),b
  4118  002910  51BE               	movf	??_INT_EX_0& (0+255),w,b
  4119  002912  6FF6               	movwf	_eprom& (0+255),b
  4120  002914  6BF7               	clrf	(_eprom+1)& (0+255),b
  4121  002916                     i2l5567:
  4122                           
  4123                           ; BSR set to: 0
  4124                           ;main.c: 37:         i=0;
  4125  002916  0E00               	movlw	0
  4126  002918  6FE1               	movwf	(INT_EX_0@i+1)& (0+255),b
  4127  00291A  0E00               	movlw	0
  4128  00291C  6FE0               	movwf	INT_EX_0@i& (0+255),b
  4129  00291E                     
  4130                           ; BSR set to: 0
  4131                           ;main.c: 38:         delay=0;
  4132  00291E  0E00               	movlw	0
  4133  002920  6FFB               	movwf	(_delay+1)& (0+255),b
  4134  002922  0E00               	movlw	0
  4135  002924  6FFA               	movwf	_delay& (0+255),b
  4136  002926                     
  4137                           ; BSR set to: 0
  4138                           ;main.c: 39:         PORTA=0;
  4139  002926  0E00               	movlw	0
  4140  002928  6E80               	movwf	128,c	;volatile
  4141  00292A                     
  4142                           ; BSR set to: 0
  4143                           ;main.c: 40:         PORTB=0;
  4144  00292A  0E00               	movlw	0
  4145  00292C  6E81               	movwf	129,c	;volatile
  4146  00292E                     
  4147                           ; BSR set to: 0
  4148                           ;main.c: 41:         digital=ADC_Read(5);
  4149  00292E  0E00               	movlw	0
  4150  002930  6E02               	movwf	(ADC_Read@channel+1)^0,c
  4151  002932  0E05               	movlw	5
  4152  002934  6E01               	movwf	ADC_Read@channel^0,c
  4153  002936  EC53  F024         	call	_ADC_Read	;wreg free
  4154  00293A  C001  F0DE         	movff	?_ADC_Read,INT_EX_0@digital
  4155  00293E  C002  F0DF         	movff	?_ADC_Read+1,INT_EX_0@digital+1
  4156  002942                     
  4157                           ;main.c: 42:         voltage= digital*((float)5.00/(float)1023);
  4158  002942  C0DE  F001         	movff	INT_EX_0@digital,___xxtofl@val
  4159  002946  C0DF  F002         	movff	INT_EX_0@digital+1,___xxtofl@val+1
  4160  00294A  0E00               	movlw	0
  4161  00294C  BE02               	btfsc	(___xxtofl@val+1)^0,7,c
  4162  00294E  0EFF               	movlw	-1
  4163  002950  6E03               	movwf	(___xxtofl@val+2)^0,c
  4164  002952  6E04               	movwf	(___xxtofl@val+3)^0,c
  4165  002954  0E01               	movlw	1
  4166  002956  ECC4  F017         	call	___xxtofl
  4167  00295A  C001  F01A         	movff	?___xxtofl,___flmul@b
  4168  00295E  C002  F01B         	movff	?___xxtofl+1,___flmul@b+1
  4169  002962  C003  F01C         	movff	?___xxtofl+2,___flmul@b+2
  4170  002966  C004  F01D         	movff	?___xxtofl+3,___flmul@b+3
  4171  00296A  0E0A               	movlw	10
  4172  00296C  6E1E               	movwf	___flmul@a^0,c
  4173  00296E  0E28               	movlw	40
  4174  002970  6E1F               	movwf	(___flmul@a+1)^0,c
  4175  002972  0EA0               	movlw	160
  4176  002974  6E20               	movwf	(___flmul@a+2)^0,c
  4177  002976  0E3B               	movlw	59
  4178  002978  6E21               	movwf	(___flmul@a+3)^0,c
  4179  00297A  ECED  F00E         	call	___flmul	;wreg free
  4180  00297E  C01A  F0E4         	movff	?___flmul,INT_EX_0@voltage
  4181  002982  C01B  F0E5         	movff	?___flmul+1,INT_EX_0@voltage+1
  4182  002986  C01C  F0E6         	movff	?___flmul+2,INT_EX_0@voltage+2
  4183  00298A  C01D  F0E7         	movff	?___flmul+3,INT_EX_0@voltage+3
  4184  00298E                     
  4185                           ;main.c: 43:         sprintf(data,"%.2f",voltage);
  4186  00298E  0ED4               	movlw	low INT_EX_0@data
  4187  002990  0100               	movlb	0	; () banked
  4188  002992  6FAC               	movwf	sprintf@s& (0+255),b
  4189  002994  0E00               	movlw	high INT_EX_0@data
  4190  002996  6FAD               	movwf	(sprintf@s+1)& (0+255),b
  4191  002998  0E18               	movlw	low STR_1
  4192  00299A  6FAE               	movwf	sprintf@fmt& (0+255),b
  4193  00299C  0E08               	movlw	high STR_1
  4194  00299E  6FAF               	movwf	(sprintf@fmt+1)& (0+255),b
  4195  0029A0  C0E4  F0B0         	movff	INT_EX_0@voltage,?_sprintf+4
  4196  0029A4  C0E5  F0B1         	movff	INT_EX_0@voltage+1,?_sprintf+5
  4197  0029A8  C0E6  F0B2         	movff	INT_EX_0@voltage+2,?_sprintf+6
  4198  0029AC  C0E7  F0B3         	movff	INT_EX_0@voltage+3,?_sprintf+7
  4199  0029B0  ECD6  F025         	call	_sprintf	;wreg free
  4200  0029B4                     
  4201                           ;main.c: 44:         strcat(data,"V");
  4202  0029B4  0ED4               	movlw	low INT_EX_0@data
  4203  0029B6  6E0F               	movwf	strcat@dest^0,c
  4204  0029B8  0E00               	movlw	high INT_EX_0@data
  4205  0029BA  6E10               	movwf	(strcat@dest+1)^0,c
  4206  0029BC  0E33               	movlw	low STR_2
  4207  0029BE  6E11               	movwf	strcat@src^0,c
  4208  0029C0  0E08               	movlw	high STR_2
  4209  0029C2  6E12               	movwf	(strcat@src+1)^0,c
  4210  0029C4  EC8E  F027         	call	_strcat	;wreg free
  4211  0029C8                     
  4212                           ;main.c: 45:         Lcd_Out2(1,0,"Voltaje: ");
  4213  0029C8  0E00               	movlw	0
  4214  0029CA  6E04               	movwf	Lcd_Out2@x^0,c
  4215  0029CC  0E0E               	movlw	low STR_3
  4216  0029CE  6E05               	movwf	Lcd_Out2@buffer^0,c
  4217  0029D0  0E08               	movlw	high STR_3
  4218  0029D2  6E06               	movwf	(Lcd_Out2@buffer+1)^0,c
  4219  0029D4  0E01               	movlw	1
  4220  0029D6  ECB8  F020         	call	_Lcd_Out2
  4221  0029DA                     
  4222                           ;main.c: 46:         Lcd_Out2(1,11,data);
  4223  0029DA  0E0B               	movlw	11
  4224  0029DC  6E04               	movwf	Lcd_Out2@x^0,c
  4225  0029DE  0ED4               	movlw	low INT_EX_0@data
  4226  0029E0  6E05               	movwf	Lcd_Out2@buffer^0,c
  4227  0029E2  0E00               	movlw	high INT_EX_0@data
  4228  0029E4  6E06               	movwf	(Lcd_Out2@buffer+1)^0,c
  4229  0029E6  0E01               	movlw	1
  4230  0029E8  ECB8  F020         	call	_Lcd_Out2
  4231  0029EC                     
  4232                           ;main.c: 47:         Lcd_Out(2,0,"Tiempo('s): ");
  4233  0029EC  0E00               	movlw	0
  4234  0029EE  6E04               	movwf	Lcd_Out@x^0,c
  4235  0029F0  0E01               	movlw	low STR_4
  4236  0029F2  6E05               	movwf	Lcd_Out@buffer^0,c
  4237  0029F4  0E08               	movlw	high STR_4
  4238  0029F6  6E06               	movwf	(Lcd_Out@buffer+1)^0,c
  4239  0029F8  0E02               	movlw	2
  4240  0029FA  EC01  F024         	call	_Lcd_Out
  4241  0029FE                     
  4242                           ;main.c: 48:         delay = (voltage/5)*100;
  4243  0029FE  0E00               	movlw	0
  4244  002A00  6E1E               	movwf	___flmul@a^0,c
  4245  002A02  0E00               	movlw	0
  4246  002A04  6E1F               	movwf	(___flmul@a+1)^0,c
  4247  002A06  0EC8               	movlw	200
  4248  002A08  6E20               	movwf	(___flmul@a+2)^0,c
  4249  002A0A  0E42               	movlw	66
  4250  002A0C  6E21               	movwf	(___flmul@a+3)^0,c
  4251  002A0E  0E00               	movlw	0
  4252  002A10  6E05               	movwf	___fldiv@a^0,c
  4253  002A12  0E00               	movlw	0
  4254  002A14  6E06               	movwf	(___fldiv@a+1)^0,c
  4255  002A16  0EA0               	movlw	160
  4256  002A18  6E07               	movwf	(___fldiv@a+2)^0,c
  4257  002A1A  0E40               	movlw	64
  4258  002A1C  6E08               	movwf	(___fldiv@a+3)^0,c
  4259  002A1E  C0E4  F001         	movff	INT_EX_0@voltage,___fldiv@b
  4260  002A22  C0E5  F002         	movff	INT_EX_0@voltage+1,___fldiv@b+1
  4261  002A26  C0E6  F003         	movff	INT_EX_0@voltage+2,___fldiv@b+2
  4262  002A2A  C0E7  F004         	movff	INT_EX_0@voltage+3,___fldiv@b+3
  4263  002A2E  EC02  F011         	call	___fldiv	;wreg free
  4264  002A32  C001  F01A         	movff	?___fldiv,___flmul@b
  4265  002A36  C002  F01B         	movff	?___fldiv+1,___flmul@b+1
  4266  002A3A  C003  F01C         	movff	?___fldiv+2,___flmul@b+2
  4267  002A3E  C004  F01D         	movff	?___fldiv+3,___flmul@b+3
  4268  002A42  ECED  F00E         	call	___flmul	;wreg free
  4269  002A46  C01A  F033         	movff	?___flmul,___fltol@f1
  4270  002A4A  C01B  F034         	movff	?___flmul+1,___fltol@f1+1
  4271  002A4E  C01C  F035         	movff	?___flmul+2,___fltol@f1+2
  4272  002A52  C01D  F036         	movff	?___flmul+3,___fltol@f1+3
  4273  002A56  EC58  F01E         	call	___fltol	;wreg free
  4274  002A5A  C033  F0FA         	movff	?___fltol,_delay
  4275  002A5E  C034  F0FB         	movff	?___fltol+1,_delay+1
  4276  002A62                     
  4277                           ;main.c: 49:         sprintf(temp,"%i",delay);
  4278  002A62  0ECA               	movlw	low INT_EX_0@temp
  4279  002A64  0100               	movlb	0	; () banked
  4280  002A66  6FAC               	movwf	sprintf@s& (0+255),b
  4281  002A68  0E00               	movlw	high INT_EX_0@temp
  4282  002A6A  6FAD               	movwf	(sprintf@s+1)& (0+255),b
  4283  002A6C  0E30               	movlw	low STR_5
  4284  002A6E  6FAE               	movwf	sprintf@fmt& (0+255),b
  4285  002A70  0E08               	movlw	high STR_5
  4286  002A72  6FAF               	movwf	(sprintf@fmt+1)& (0+255),b
  4287  002A74  C0FA  F0B0         	movff	_delay,?_sprintf+4
  4288  002A78  C0FB  F0B1         	movff	_delay+1,?_sprintf+5
  4289  002A7C  ECD6  F025         	call	_sprintf	;wreg free
  4290  002A80                     
  4291                           ;main.c: 51:          Lcd_Out2(2,11,temp);
  4292  002A80  0E0B               	movlw	11
  4293  002A82  6E04               	movwf	Lcd_Out2@x^0,c
  4294  002A84  0ECA               	movlw	low INT_EX_0@temp
  4295  002A86  6E05               	movwf	Lcd_Out2@buffer^0,c
  4296  002A88  0E00               	movlw	high INT_EX_0@temp
  4297  002A8A  6E06               	movwf	(Lcd_Out2@buffer+1)^0,c
  4298  002A8C  0E02               	movlw	2
  4299  002A8E  ECB8  F020         	call	_Lcd_Out2
  4300  002A92                     
  4301                           ;main.c: 52:         _delay((unsigned long)((100)*(4000000/4000.0)));
  4302  002A92  0E82               	movlw	130
  4303  002A94  0100               	movlb	0	; () banked
  4304  002A96  6FBE               	movwf	??_INT_EX_0& (0+255),b
  4305  002A98  0EDD               	movlw	221
  4306  002A9A                     i2u702_47:
  4307  002A9A  2EE8               	decfsz	wreg,f,c
  4308  002A9C  D7FE               	bra	i2u702_47
  4309  002A9E  2FBE               	decfsz	??_INT_EX_0& (0+255),f,b
  4310  002AA0  D7FC               	bra	i2u702_47
  4311  002AA2  D000               	nop2	
  4312  002AA4                     
  4313                           ;main.c: 53:         if(eprom==2){__asm("reset");}
  4314  002AA4  0E02               	movlw	2
  4315  002AA6  0100               	movlb	0	; () banked
  4316  002AA8  19F6               	xorwf	_eprom& (0+255),w,b
  4317  002AAA  11F7               	iorwf	(_eprom+1)& (0+255),w,b
  4318  002AAC  A4D8               	btfss	status,2,c
  4319  002AAE  EF5B  F015         	goto	i2u681_41
  4320  002AB2  EF5D  F015         	goto	i2u681_40
  4321  002AB6                     i2u681_41:
  4322  002AB6  EF60  F015         	goto	i2l103
  4323  002ABA                     i2u681_40:
  4324  002ABA                     
  4325                           ; BSR set to: 0
  4326  002ABA  00FF               	reset		;# 
  4327  002ABC  EF7A  F015         	goto	i2l5607
  4328  002AC0                     i2l103:
  4329                           
  4330                           ; BSR set to: 0
  4331  002AC0  A081               	btfss	129,0,c	;volatile
  4332  002AC2  EF65  F015         	goto	i2u682_41
  4333  002AC6  EF67  F015         	goto	i2u682_40
  4334  002ACA                     i2u682_41:
  4335  002ACA  EF7A  F015         	goto	i2l5607
  4336  002ACE                     i2u682_40:
  4337  002ACE                     
  4338                           ; BSR set to: 0
  4339                           ;main.c: 55:         _delay((unsigned long)((500)*(4000000/4000.0)));
  4340  002ACE  0E03               	movlw	3
  4341  002AD0  0100               	movlb	0	; () banked
  4342  002AD2  6FBF               	movwf	(??_INT_EX_0+1)& (0+255),b
  4343  002AD4  0E8A               	movlw	138
  4344  002AD6  6FBE               	movwf	??_INT_EX_0& (0+255),b
  4345  002AD8  0E55               	movlw	85
  4346  002ADA                     i2u703_47:
  4347  002ADA  2EE8               	decfsz	wreg,f,c
  4348  002ADC  D7FE               	bra	i2u703_47
  4349  002ADE  2FBE               	decfsz	??_INT_EX_0& (0+255),f,b
  4350  002AE0  D7FC               	bra	i2u703_47
  4351  002AE2  2FBF               	decfsz	(??_INT_EX_0+1)& (0+255),f,b
  4352  002AE4  D7FA               	bra	i2u703_47
  4353  002AE6  D000               	nop2	
  4354  002AE8                     
  4355                           ;main.c: 56:         i=1;
  4356  002AE8  0E00               	movlw	0
  4357  002AEA  0100               	movlb	0	; () banked
  4358  002AEC  6FE1               	movwf	(INT_EX_0@i+1)& (0+255),b
  4359  002AEE  0E01               	movlw	1
  4360  002AF0  6FE0               	movwf	INT_EX_0@i& (0+255),b
  4361  002AF2                     
  4362                           ; BSR set to: 0
  4363                           ;main.c: 57:         INTCONbits.INT0IF=0;
  4364  002AF2  92F2               	bcf	242,1,c	;volatile
  4365  002AF4                     i2l5607:
  4366                           
  4367                           ;main.c: 59:      }while(i==0);
  4368  002AF4  0100               	movlb	0	; () banked
  4369  002AF6  51E0               	movf	INT_EX_0@i& (0+255),w,b
  4370  002AF8  11E1               	iorwf	(INT_EX_0@i+1)& (0+255),w,b
  4371  002AFA  B4D8               	btfsc	status,2,c
  4372  002AFC  EF82  F015         	goto	i2u683_41
  4373  002B00  EF84  F015         	goto	i2u683_40
  4374  002B04                     i2u683_41:
  4375  002B04  EF6B  F014         	goto	i2l101
  4376  002B08                     i2u683_40:
  4377  002B08                     i2l107:
  4378                           
  4379                           ; BSR set to: 0
  4380  002B08  C0C9  FFF5         	movff	??_INT_EX_0+11,tablat
  4381  002B0C  C0C8  FFF8         	movff	??_INT_EX_0+10,tblptru
  4382  002B10  C0C7  FFF7         	movff	??_INT_EX_0+9,tblptrh
  4383  002B14  C0C6  FFF6         	movff	??_INT_EX_0+8,tblptrl
  4384  002B18  C0C5  FFF4         	movff	??_INT_EX_0+7,prodh
  4385  002B1C  C0C4  FFF3         	movff	??_INT_EX_0+6,prodl
  4386  002B20  C0C3  FFDA         	movff	??_INT_EX_0+5,fsr2h
  4387  002B24  C0C2  FFD9         	movff	??_INT_EX_0+4,fsr2l
  4388  002B28  C0C1  FFE2         	movff	??_INT_EX_0+3,fsr1h
  4389  002B2C  C0C0  FFE1         	movff	??_INT_EX_0+2,fsr1l
  4390  002B30  925F               	bcf	int$flags,1,c	;clear compiler interrupt flag (level 2)
  4391  002B32  0011               	retfie		f
  4392  002B34                     __end_of_INT_EX_0:
  4393                           	opt callstack 0
  4394                           
  4395 ;; *************** function i2_eeprom_leer *****************
  4396 ;; Defined at:
  4397 ;;		line 25 in file "eeprom.c"
  4398 ;; Parameters:    Size  Location     Type
  4399 ;;  DIR             2    0[COMRAM] int 
  4400 ;; Auto vars:     Size  Location     Type
  4401 ;;		None
  4402 ;; Return value:  Size  Location     Type
  4403 ;;                  1    wreg      unsigned char 
  4404 ;; Registers used:
  4405 ;;		wreg, status,2
  4406 ;; Tracked objects:
  4407 ;;		On entry : 0/0
  4408 ;;		On exit  : 0/0
  4409 ;;		Unchanged: 0/0
  4410 ;; Data sizes:     COMRAM   BANK0   BANK1   BANK2   BANK3   BANK4   BANK5   BANK6   BANK7
  4411 ;;      Params:         2       0       0       0       0       0       0       0       0
  4412 ;;      Locals:         0       0       0       0       0       0       0       0       0
  4413 ;;      Temps:          0       0       0       0       0       0       0       0       0
  4414 ;;      Totals:         2       0       0       0       0       0       0       0       0
  4415 ;;Total ram usage:        2 bytes
  4416 ;; Hardware stack levels used:    1
  4417 ;; This function calls:
  4418 ;;		Nothing
  4419 ;; This function is called by:
  4420 ;;		_INT_EX_0
  4421 ;; This function uses a non-reentrant model
  4422 ;;
  4423                           
  4424                           	psect	text19
  4425  004F88                     __ptext19:
  4426                           	opt callstack 0
  4427  004F88                     i2_eeprom_leer:
  4428                           	opt callstack 24
  4429  004F88                     
  4430                           ;eeprom.c: 26:     EEADR = DIR;
  4431  004F88  C001  FFA9         	movff	i2eeprom_leer@DIR,4009	;volatile
  4432                           
  4433                           ;eeprom.c: 27:     EECON1bits.EEPGD=0;
  4434  004F8C  9EA6               	bcf	166,7,c	;volsfr
  4435                           
  4436                           ;eeprom.c: 28:     EECON1bits.CFGS=0;
  4437  004F8E  9CA6               	bcf	166,6,c	;volsfr
  4438  004F90                     
  4439                           ;eeprom.c: 29:     EECON1bits.RD;
  4440  004F90  50A6               	movf	166,w,c	;volsfr
  4441  004F92                     
  4442                           ;eeprom.c: 30:     return EEDATA;
  4443  004F92  50A8               	movf	168,w,c	;volatile
  4444  004F94  0012               	return		;funcret
  4445  004F96                     __end_ofi2_eeprom_leer:
  4446                           	opt callstack 0
  4447                           
  4448 ;; *************** function i2_eeprom_guardar *****************
  4449 ;; Defined at:
  4450 ;;		line 9 in file "eeprom.c"
  4451 ;; Parameters:    Size  Location     Type
  4452 ;;  DIR             2    0[COMRAM] int 
  4453 ;;  DATE            1    2[COMRAM] unsigned char 
  4454 ;; Auto vars:     Size  Location     Type
  4455 ;;		None
  4456 ;; Return value:  Size  Location     Type
  4457 ;;                  1    wreg      void 
  4458 ;; Registers used:
  4459 ;;		wreg, status,2
  4460 ;; Tracked objects:
  4461 ;;		On entry : 0/0
  4462 ;;		On exit  : 0/0
  4463 ;;		Unchanged: 0/0
  4464 ;; Data sizes:     COMRAM   BANK0   BANK1   BANK2   BANK3   BANK4   BANK5   BANK6   BANK7
  4465 ;;      Params:         3       0       0       0       0       0       0       0       0
  4466 ;;      Locals:         0       0       0       0       0       0       0       0       0
  4467 ;;      Temps:          0       0       0       0       0       0       0       0       0
  4468 ;;      Totals:         3       0       0       0       0       0       0       0       0
  4469 ;;Total ram usage:        3 bytes
  4470 ;; Hardware stack levels used:    1
  4471 ;; This function calls:
  4472 ;;		Nothing
  4473 ;; This function is called by:
  4474 ;;		_INT_EX_0
  4475 ;; This function uses a non-reentrant model
  4476 ;;
  4477                           
  4478                           	psect	text20
  4479  004EF0                     __ptext20:
  4480                           	opt callstack 0
  4481  004EF0                     i2_eeprom_guardar:
  4482                           	opt callstack 24
  4483  004EF0                     
  4484                           ;eeprom.c: 10:     EEADR = DIR;
  4485  004EF0  C001  FFA9         	movff	i2eeprom_guardar@DIR,4009	;volatile
  4486                           
  4487                           ;eeprom.c: 11:     EEDATA = DATE;
  4488  004EF4  C003  FFA8         	movff	i2eeprom_guardar@DATE,4008	;volatile
  4489                           
  4490                           ;eeprom.c: 12:     EECON1bits.EEPGD=0;
  4491  004EF8  9EA6               	bcf	166,7,c	;volsfr
  4492                           
  4493                           ;eeprom.c: 13:     EECON1bits.CFGS=0;
  4494  004EFA  9CA6               	bcf	166,6,c	;volsfr
  4495                           
  4496                           ;eeprom.c: 14:     EECON1bits.WREN=1;
  4497  004EFC  84A6               	bsf	166,2,c	;volsfr
  4498  004EFE                     
  4499                           ;eeprom.c: 16:     EECON2=0x55;
  4500  004EFE  0E55               	movlw	85
  4501  004F00  6EA7               	movwf	167,c	;volsfr
  4502                           
  4503                           ;eeprom.c: 17:     EECON2=0x0AA;
  4504  004F02  0EAA               	movlw	170
  4505  004F04  6EA7               	movwf	167,c	;volsfr
  4506  004F06                     
  4507                           ;eeprom.c: 18:     EECON1bits.WR=1;
  4508  004F06  82A6               	bsf	166,1,c	;volsfr
  4509  004F08                     i2l317:
  4510  004F08  A8A1               	btfss	161,4,c	;volatile
  4511  004F0A  EF89  F027         	goto	i2u678_41
  4512  004F0E  EF8B  F027         	goto	i2u678_40
  4513  004F12                     i2u678_41:
  4514  004F12  EF84  F027         	goto	i2l317
  4515  004F16                     i2u678_40:
  4516  004F16                     
  4517                           ;eeprom.c: 21:     PIR2bits.EEIF=0;
  4518  004F16  98A1               	bcf	161,4,c	;volatile
  4519                           
  4520                           ;eeprom.c: 22:     EECON1bits.WREN=0;
  4521  004F18  94A6               	bcf	166,2,c	;volsfr
  4522  004F1A  0012               	return		;funcret
  4523  004F1C                     __end_ofi2_eeprom_guardar:
  4524                           	opt callstack 0
  4525                           
  4526 ;; *************** function _strcat *****************
  4527 ;; Defined at:
  4528 ;;		line 3 in file "/opt/microchip/xc8/v2.10/pic/sources/c99/common/strcat.c"
  4529 ;; Parameters:    Size  Location     Type
  4530 ;;  dest            2   14[COMRAM] PTR unsigned char 
  4531 ;;		 -> INT_EX_0@data(10), 
  4532 ;;  src             2   16[COMRAM] PTR const unsigned char 
  4533 ;;		 -> STR_2(2), 
  4534 ;; Auto vars:     Size  Location     Type
  4535 ;;		None
  4536 ;; Return value:  Size  Location     Type
  4537 ;;                  2   14[COMRAM] PTR unsigned char 
  4538 ;; Registers used:
  4539 ;;		wreg, fsr1l, fsr1h, fsr2l, fsr2h, status,2, status,0, tblptrl, tblptrh, tblptru, cstack
  4540 ;; Tracked objects:
  4541 ;;		On entry : 0/0
  4542 ;;		On exit  : 0/0
  4543 ;;		Unchanged: 0/0
  4544 ;; Data sizes:     COMRAM   BANK0   BANK1   BANK2   BANK3   BANK4   BANK5   BANK6   BANK7
  4545 ;;      Params:         4       0       0       0       0       0       0       0       0
  4546 ;;      Locals:         0       0       0       0       0       0       0       0       0
  4547 ;;      Temps:          0       0       0       0       0       0       0       0       0
  4548 ;;      Totals:         4       0       0       0       0       0       0       0       0
  4549 ;;Total ram usage:        4 bytes
  4550 ;; Hardware stack levels used:    1
  4551 ;; Hardware stack levels required when called:    1
  4552 ;; This function calls:
  4553 ;;		_strcpy
  4554 ;;		_strlen
  4555 ;; This function is called by:
  4556 ;;		_INT_EX_0
  4557 ;; This function uses a non-reentrant model
  4558 ;;
  4559                           
  4560                           	psect	text21
  4561  004F1C                     __ptext21:
  4562                           	opt callstack 0
  4563  004F1C                     _strcat:
  4564                           	opt callstack 23
  4565  004F1C  C00F  F001         	movff	strcat@dest,strlen@s
  4566  004F20  C010  F002         	movff	strcat@dest+1,strlen@s+1
  4567  004F24  EC47  F027         	call	_strlen	;wreg free
  4568  004F28  5001               	movf	?_strlen^0,w,c
  4569  004F2A  240F               	addwf	strcat@dest^0,w,c
  4570  004F2C  6E05               	movwf	strcpy@dest^0,c
  4571  004F2E  5002               	movf	(?_strlen+1)^0,w,c
  4572  004F30  2010               	addwfc	(strcat@dest+1)^0,w,c
  4573  004F32  6E06               	movwf	(strcpy@dest+1)^0,c
  4574  004F34  C011  F007         	movff	strcat@src,strcpy@src
  4575  004F38  C012  F008         	movff	strcat@src+1,strcpy@src+1
  4576  004F3C  ECA8  F025         	call	_strcpy	;wreg free
  4577  004F40  0012               	return		;funcret
  4578  004F42                     __end_of_strcat:
  4579                           	opt callstack 0
  4580                           
  4581 ;; *************** function _sprintf *****************
  4582 ;; Defined at:
  4583 ;;		line 9 in file "/opt/microchip/xc8/v2.10/pic/sources/c99/common/nf_sprintf.c"
  4584 ;; Parameters:    Size  Location     Type
  4585 ;;  s               2   76[BANK0 ] PTR unsigned char 
  4586 ;;		 -> INT_EX_0@temp(10), INT_EX_0@data(10), 
  4587 ;;  fmt             2   78[BANK0 ] PTR const unsigned char 
  4588 ;;		 -> STR_5(3), STR_1(5), 
  4589 ;; Auto vars:     Size  Location     Type
  4590 ;;  f               6   88[BANK0 ] struct _IO_FILE
  4591 ;;  ap              2   86[BANK0 ] PTR void [1]
  4592 ;;		 -> ?_sprintf(2), 
  4593 ;;  ret             2    0        int 
  4594 ;; Return value:  Size  Location     Type
  4595 ;;                  2   76[BANK0 ] int 
  4596 ;; Registers used:
  4597 ;;		wreg, fsr1l, fsr1h, fsr2l, fsr2h, status,2, status,0, tblptrl, tblptrh, tblptru, prodl, prodh, cstack
  4598 ;; Tracked objects:
  4599 ;;		On entry : 0/0
  4600 ;;		On exit  : 0/0
  4601 ;;		Unchanged: 0/0
  4602 ;; Data sizes:     COMRAM   BANK0   BANK1   BANK2   BANK3   BANK4   BANK5   BANK6   BANK7
  4603 ;;      Params:         0       8       0       0       0       0       0       0       0
  4604 ;;      Locals:         0      10       0       0       0       0       0       0       0
  4605 ;;      Temps:          0       0       0       0       0       0       0       0       0
  4606 ;;      Totals:         0      18       0       0       0       0       0       0       0
  4607 ;;Total ram usage:       18 bytes
  4608 ;; Hardware stack levels used:    1
  4609 ;; Hardware stack levels required when called:    7
  4610 ;; This function calls:
  4611 ;;		_vfprintf
  4612 ;; This function is called by:
  4613 ;;		_INT_EX_0
  4614 ;; This function uses a non-reentrant model
  4615 ;;
  4616                           
  4617                           	psect	text22
  4618  004BAC                     __ptext22:
  4619                           	opt callstack 0
  4620  004BAC                     _sprintf:
  4621                           	opt callstack 17
  4622  004BAC  0EB0               	movlw	low (?_sprintf+4)
  4623  004BAE  0100               	movlb	0	; () banked
  4624  004BB0  6FB6               	movwf	sprintf@ap& (0+255),b
  4625  004BB2  0E00               	movlw	high (?_sprintf+4)
  4626  004BB4  6FB7               	movwf	(sprintf@ap+1)& (0+255),b
  4627  004BB6  C0AC  F0B8         	movff	sprintf@s,sprintf@f
  4628  004BBA  C0AD  F0B9         	movff	sprintf@s+1,sprintf@f+1
  4629  004BBE                     
  4630                           ; BSR set to: 0
  4631  004BBE  0E00               	movlw	0
  4632  004BC0  6FBB               	movwf	(sprintf@f+3)& (0+255),b
  4633  004BC2  0E00               	movlw	0
  4634  004BC4  6FBA               	movwf	(sprintf@f+2)& (0+255),b
  4635  004BC6                     
  4636                           ; BSR set to: 0
  4637  004BC6  0E00               	movlw	0
  4638  004BC8  6FBD               	movwf	(sprintf@f+5)& (0+255),b
  4639  004BCA  0E00               	movlw	0
  4640  004BCC  6FBC               	movwf	(sprintf@f+4)& (0+255),b
  4641  004BCE                     
  4642                           ; BSR set to: 0
  4643  004BCE  0EB8               	movlw	low sprintf@f
  4644  004BD0  6E55               	movwf	vfprintf@fp^0,c
  4645  004BD2  0E00               	movlw	high sprintf@f
  4646  004BD4  6E56               	movwf	(vfprintf@fp+1)^0,c
  4647  004BD6  C0AE  F057         	movff	sprintf@fmt,vfprintf@fmt
  4648  004BDA  C0AF  F058         	movff	sprintf@fmt+1,vfprintf@fmt+1
  4649  004BDE  0EB6               	movlw	low sprintf@ap
  4650  004BE0  6E59               	movwf	vfprintf@ap^0,c
  4651  004BE2  0E00               	movlw	high sprintf@ap
  4652  004BE4  6E5A               	movwf	(vfprintf@ap+1)^0,c
  4653  004BE6  EC47  F025         	call	_vfprintf	;wreg free
  4654  004BEA  0100               	movlb	0	; () banked
  4655  004BEC  51BA               	movf	(sprintf@f+2)& (0+255),w,b
  4656  004BEE  25AC               	addwf	sprintf@s& (0+255),w,b
  4657  004BF0  6ED9               	movwf	fsr2l,c
  4658  004BF2  51BB               	movf	(sprintf@f+3)& (0+255),w,b
  4659  004BF4  21AD               	addwfc	(sprintf@s+1)& (0+255),w,b
  4660  004BF6  6EDA               	movwf	fsr2h,c
  4661  004BF8  0E00               	movlw	0
  4662  004BFA  6EDF               	movwf	indf2,c
  4663  004BFC                     
  4664                           ; BSR set to: 0
  4665  004BFC  0012               	return		;funcret
  4666  004BFE                     __end_of_sprintf:
  4667                           	opt callstack 0
  4668                           
  4669 ;; *************** function _vfprintf *****************
  4670 ;; Defined at:
  4671 ;;		line 1368 in file "/opt/microchip/xc8/v2.10/pic/sources/c99/common/doprnt.c"
  4672 ;; Parameters:    Size  Location     Type
  4673 ;;  fp              2   84[COMRAM] PTR struct _IO_FILE
  4674 ;;		 -> sprintf@f(6), 
  4675 ;;  fmt             2   86[COMRAM] PTR const unsigned char 
  4676 ;;		 -> STR_5(3), STR_1(5), 
  4677 ;;  ap              2   88[COMRAM] PTR PTR void 
  4678 ;;		 -> sprintf@ap(2), 
  4679 ;; Auto vars:     Size  Location     Type
  4680 ;;  cfmt            2   90[COMRAM] PTR unsigned char 
  4681 ;;		 -> STR_5(3), STR_1(5), 
  4682 ;; Return value:  Size  Location     Type
  4683 ;;                  2   84[COMRAM] int 
  4684 ;; Registers used:
  4685 ;;		wreg, fsr1l, fsr1h, fsr2l, fsr2h, status,2, status,0, tblptrl, tblptrh, tblptru, prodl, prodh, cstack
  4686 ;; Tracked objects:
  4687 ;;		On entry : 0/0
  4688 ;;		On exit  : 0/0
  4689 ;;		Unchanged: 0/0
  4690 ;; Data sizes:     COMRAM   BANK0   BANK1   BANK2   BANK3   BANK4   BANK5   BANK6   BANK7
  4691 ;;      Params:         6       0       0       0       0       0       0       0       0
  4692 ;;      Locals:         2       0       0       0       0       0       0       0       0
  4693 ;;      Temps:          0       0       0       0       0       0       0       0       0
  4694 ;;      Totals:         8       0       0       0       0       0       0       0       0
  4695 ;;Total ram usage:        8 bytes
  4696 ;; Hardware stack levels used:    1
  4697 ;; Hardware stack levels required when called:    6
  4698 ;; This function calls:
  4699 ;;		_vfpfcnvrt
  4700 ;; This function is called by:
  4701 ;;		_sprintf
  4702 ;; This function uses a non-reentrant model
  4703 ;;
  4704                           
  4705                           	psect	text23
  4706  004A8E                     __ptext23:
  4707                           	opt callstack 0
  4708  004A8E                     _vfprintf:
  4709                           	opt callstack 17
  4710  004A8E                     
  4711                           ;/opt/microchip/xc8/v2.10/pic/sources/c99/common/doprnt.c: 1368: int vfprintf(FILE *fp, 
      +                          const char *fmt, va_list ap);/opt/microchip/xc8/v2.10/pic/sources/c99/common/doprnt.c: 1
      +                          369: {;/opt/microchip/xc8/v2.10/pic/sources/c99/common/doprnt.c: 1371:     char *cfmt;;/
      +                          opt/microchip/xc8/v2.10/pic/sources/c99/common/doprnt.c: 1373:     cfmt = (char *)fmt;
  4712  004A8E  C057  F05B         	movff	vfprintf@fmt,vfprintf@cfmt
  4713  004A92  C058  F05C         	movff	vfprintf@fmt+1,vfprintf@cfmt+1
  4714  004A96                     
  4715                           ;/opt/microchip/xc8/v2.10/pic/sources/c99/common/doprnt.c: 1374:     nout = 0;
  4716  004A96  0E00               	movlw	0
  4717  004A98  0100               	movlb	0	; () banked
  4718  004A9A  6FF1               	movwf	(_nout+1)& (0+255),b
  4719  004A9C  0E00               	movlw	0
  4720  004A9E  6FF0               	movwf	_nout& (0+255),b
  4721                           
  4722                           ;/opt/microchip/xc8/v2.10/pic/sources/c99/common/doprnt.c: 1375:     while (*cfmt) {
  4723  004AA0  EF65  F025         	goto	i2l5241
  4724  004AA4                     i2l5239:
  4725                           
  4726                           ; BSR set to: 0
  4727                           ;/opt/microchip/xc8/v2.10/pic/sources/c99/common/doprnt.c: 1376:         nout += vfpfcnv
      +                          rt(fp, &cfmt, ap);
  4728  004AA4  C055  F04B         	movff	vfprintf@fp,vfpfcnvrt@fp
  4729  004AA8  C056  F04C         	movff	vfprintf@fp+1,vfpfcnvrt@fp+1
  4730  004AAC  0E5B               	movlw	low vfprintf@cfmt
  4731  004AAE  6E4D               	movwf	vfpfcnvrt@fmt^0,c
  4732  004AB0  0E00               	movlw	high vfprintf@cfmt
  4733  004AB2  6E4E               	movwf	(vfpfcnvrt@fmt+1)^0,c
  4734  004AB4  C059  F04F         	movff	vfprintf@ap,vfpfcnvrt@ap
  4735  004AB8  C05A  F050         	movff	vfprintf@ap+1,vfpfcnvrt@ap+1
  4736  004ABC  ECF4  F009         	call	_vfpfcnvrt	;wreg free
  4737  004AC0  504B               	movf	?_vfpfcnvrt^0,w,c
  4738  004AC2  0100               	movlb	0	; () banked
  4739  004AC4  27F0               	addwf	_nout& (0+255),f,b
  4740  004AC6  504C               	movf	(?_vfpfcnvrt+1)^0,w,c
  4741  004AC8  23F1               	addwfc	(_nout+1)& (0+255),f,b
  4742  004ACA                     i2l5241:
  4743                           
  4744                           ; BSR set to: 0
  4745                           ;/opt/microchip/xc8/v2.10/pic/sources/c99/common/doprnt.c: 1375:     while (*cfmt) {
  4746  004ACA  C05B  FFF6         	movff	vfprintf@cfmt,tblptrl
  4747  004ACE  C05C  FFF7         	movff	vfprintf@cfmt+1,tblptrh
  4748  004AD2                     	if	0	;tblptru may be non-zero
  4749  004AD2                     	endif
  4750  004AD2                     	if	0	;tblptru may be non-zero
  4751  004AD2                     	endif
  4752  004AD2  0008               	tblrd		*
  4753  004AD4  50F5               	movf	tablat,w,c
  4754  004AD6  0900               	iorlw	0
  4755  004AD8  A4D8               	btfss	status,2,c
  4756  004ADA  EF71  F025         	goto	i2u649_41
  4757  004ADE  EF73  F025         	goto	i2u649_40
  4758  004AE2                     i2u649_41:
  4759  004AE2  EF52  F025         	goto	i2l5239
  4760  004AE6                     i2u649_40:
  4761  004AE6                     
  4762                           ; BSR set to: 0
  4763                           ;/opt/microchip/xc8/v2.10/pic/sources/c99/common/doprnt.c: 1378:     return nout;
  4764  004AE6  C0F0  F055         	movff	_nout,?_vfprintf
  4765  004AEA  C0F1  F056         	movff	_nout+1,?_vfprintf+1
  4766  004AEE                     
  4767                           ; BSR set to: 0
  4768  004AEE  0012               	return		;funcret
  4769  004AF0                     __end_of_vfprintf:
  4770                           	opt callstack 0
  4771                           
  4772 ;; *************** function _vfpfcnvrt *****************
  4773 ;; Defined at:
  4774 ;;		line 670 in file "/opt/microchip/xc8/v2.10/pic/sources/c99/common/doprnt.c"
  4775 ;; Parameters:    Size  Location     Type
  4776 ;;  fp              2   74[COMRAM] PTR struct _IO_FILE
  4777 ;;		 -> sprintf@f(6), 
  4778 ;;  fmt             2   76[COMRAM] PTR PTR unsigned char 
  4779 ;;		 -> vfprintf@cfmt(2), 
  4780 ;;  ap              2   78[COMRAM] PTR PTR void 
  4781 ;;		 -> sprintf@ap(2), 
  4782 ;; Auto vars:     Size  Location     Type
  4783 ;;  ll              8   56[BANK0 ] long long 
  4784 ;;  llu             8    0        unsigned long long 
  4785 ;;  f               4   68[BANK0 ] unsigned long long 
  4786 ;;  ct              3   72[BANK0 ] unsigned char [3]
  4787 ;;  vp              3    0        PTR void 
  4788 ;;  cp              3    0        PTR unsigned char 
  4789 ;;  i               2    0        int 
  4790 ;;  done            2    0        int 
  4791 ;;  c               1   75[BANK0 ] unsigned char 
  4792 ;; Return value:  Size  Location     Type
  4793 ;;                  2   74[COMRAM] int 
  4794 ;; Registers used:
  4795 ;;		wreg, fsr1l, fsr1h, fsr2l, fsr2h, status,2, status,0, tblptrl, tblptrh, tblptru, prodl, prodh, cstack
  4796 ;; Tracked objects:
  4797 ;;		On entry : 0/0
  4798 ;;		On exit  : 0/0
  4799 ;;		Unchanged: 0/0
  4800 ;; Data sizes:     COMRAM   BANK0   BANK1   BANK2   BANK3   BANK4   BANK5   BANK6   BANK7
  4801 ;;      Params:         6       0       0       0       0       0       0       0       0
  4802 ;;      Locals:         0      20       0       0       0       0       0       0       0
  4803 ;;      Temps:          4       0       0       0       0       0       0       0       0
  4804 ;;      Totals:        10      20       0       0       0       0       0       0       0
  4805 ;;Total ram usage:       30 bytes
  4806 ;; Hardware stack levels used:    1
  4807 ;; Hardware stack levels required when called:    5
  4808 ;; This function calls:
  4809 ;;		_atoi
  4810 ;;		_dtoa
  4811 ;;		_efgtoa
  4812 ;;		_fputc
  4813 ;;		_isdigit
  4814 ;;		_isupper
  4815 ;;		_strncmp
  4816 ;;		_tolower
  4817 ;; This function is called by:
  4818 ;;		_vfprintf
  4819 ;; This function uses a non-reentrant model
  4820 ;;
  4821                           
  4822                           	psect	text24
  4823  0013E8                     __ptext24:
  4824                           	opt callstack 0
  4825  0013E8                     _vfpfcnvrt:
  4826                           	opt callstack 17
  4827  0013E8                     
  4828                           ;/opt/microchip/xc8/v2.10/pic/sources/c99/common/doprnt.c: 670: static int vfpfcnvrt(FIL
      +                          E *fp, char *fmt[], va_list ap);/opt/microchip/xc8/v2.10/pic/sources/c99/common/doprnt.c
      +                          : 671: {;/opt/microchip/xc8/v2.10/pic/sources/c99/common/doprnt.c: 672:     char c, *cp,
      +                           ct[3];;/opt/microchip/xc8/v2.10/pic/sources/c99/common/doprnt.c: 673:     int done, i;;
      +                          /opt/microchip/xc8/v2.10/pic/sources/c99/common/doprnt.c: 674:     long long ll;;/opt/mi
      +                          crochip/xc8/v2.10/pic/sources/c99/common/doprnt.c: 675:     unsigned long long llu;
  4829  0013E8  C04D  FFD9         	movff	vfpfcnvrt@fmt,fsr2l
  4830  0013EC  C04E  FFDA         	movff	vfpfcnvrt@fmt+1,fsr2h
  4831  0013F0  CFDE FFF6          	movff	postinc2,tblptrl
  4832  0013F4  CFDD FFF7          	movff	postdec2,tblptrh
  4833  0013F8                     	if	0	;tblptru may be non-zero
  4834  0013F8                     	endif
  4835  0013F8                     	if	0	;tblptru may be non-zero
  4836  0013F8                     	endif
  4837  0013F8  0008               	tblrd		*
  4838  0013FA  50F5               	movf	tablat,w,c
  4839  0013FC  0A25               	xorlw	37
  4840  0013FE  A4D8               	btfss	status,2,c
  4841  001400  EF04  F00A         	goto	i2u616_41
  4842  001404  EF06  F00A         	goto	i2u616_40
  4843  001408                     i2u616_41:
  4844  001408  EF71  F00C         	goto	i2l5095
  4845  00140C                     i2u616_40:
  4846  00140C                     
  4847                           ;/opt/microchip/xc8/v2.10/pic/sources/c99/common/doprnt.c: 681:         ++*fmt;
  4848  00140C  C04D  FFD9         	movff	vfpfcnvrt@fmt,fsr2l
  4849  001410  C04E  FFDA         	movff	vfpfcnvrt@fmt+1,fsr2h
  4850  001414  2ADE               	incf	postinc2,f,c
  4851  001416  0E00               	movlw	0
  4852  001418  22DD               	addwfc	postdec2,f,c
  4853  00141A                     
  4854                           ;/opt/microchip/xc8/v2.10/pic/sources/c99/common/doprnt.c: 683:         flags = width = 
      +                          0;
  4855  00141A  0E00               	movlw	0
  4856  00141C  0100               	movlb	0	; () banked
  4857  00141E  6FF3               	movwf	(_width+1)& (0+255),b
  4858  001420  0E00               	movlw	0
  4859  001422  6FF2               	movwf	_width& (0+255),b
  4860  001424  C0F2  F05D         	movff	_width,_flags
  4861  001428  C0F3  F05E         	movff	_width+1,_flags+1
  4862  00142C                     
  4863                           ; BSR set to: 0
  4864                           ;/opt/microchip/xc8/v2.10/pic/sources/c99/common/doprnt.c: 684:         prec = -1;
  4865  00142C  69F4               	setf	_prec& (0+255),b
  4866  00142E  69F5               	setf	(_prec+1)& (0+255),b
  4867  001430                     
  4868                           ; BSR set to: 0
  4869                           ;/opt/microchip/xc8/v2.10/pic/sources/c99/common/doprnt.c: 740:         if ((*fmt)[0] ==
      +                           '.') {
  4870  001430  C04D  FFD9         	movff	vfpfcnvrt@fmt,fsr2l
  4871  001434  C04E  FFDA         	movff	vfpfcnvrt@fmt+1,fsr2h
  4872  001438  CFDE FFF6          	movff	postinc2,tblptrl
  4873  00143C  CFDD FFF7          	movff	postdec2,tblptrh
  4874  001440                     	if	0	;tblptru may be non-zero
  4875  001440                     	endif
  4876  001440                     	if	0	;tblptru may be non-zero
  4877  001440                     	endif
  4878  001440  0008               	tblrd		*
  4879  001442  50F5               	movf	tablat,w,c
  4880  001444  0A2E               	xorlw	46
  4881  001446  A4D8               	btfss	status,2,c
  4882  001448  EF28  F00A         	goto	i2u617_41
  4883  00144C  EF2A  F00A         	goto	i2u617_40
  4884  001450                     i2u617_41:
  4885  001450  EFA8  F00A         	goto	i2l5031
  4886  001454                     i2u617_40:
  4887  001454                     
  4888                           ; BSR set to: 0
  4889                           ;/opt/microchip/xc8/v2.10/pic/sources/c99/common/doprnt.c: 741:             prec = 0;
  4890  001454  0E00               	movlw	0
  4891  001456  6FF5               	movwf	(_prec+1)& (0+255),b
  4892  001458  0E00               	movlw	0
  4893  00145A  6FF4               	movwf	_prec& (0+255),b
  4894  00145C                     
  4895                           ; BSR set to: 0
  4896                           ;/opt/microchip/xc8/v2.10/pic/sources/c99/common/doprnt.c: 742:             ++*fmt;
  4897  00145C  C04D  FFD9         	movff	vfpfcnvrt@fmt,fsr2l
  4898  001460  C04E  FFDA         	movff	vfpfcnvrt@fmt+1,fsr2h
  4899  001464  2ADE               	incf	postinc2,f,c
  4900  001466  0E00               	movlw	0
  4901  001468  22DD               	addwfc	postdec2,f,c
  4902  00146A                     
  4903                           ; BSR set to: 0
  4904                           ;/opt/microchip/xc8/v2.10/pic/sources/c99/common/doprnt.c: 743:             if ((*fmt)[0
      +                          ] == '*') {
  4905  00146A  C04D  FFD9         	movff	vfpfcnvrt@fmt,fsr2l
  4906  00146E  C04E  FFDA         	movff	vfpfcnvrt@fmt+1,fsr2h
  4907  001472  CFDE FFF6          	movff	postinc2,tblptrl
  4908  001476  CFDD FFF7          	movff	postdec2,tblptrh
  4909  00147A                     	if	0	;tblptru may be non-zero
  4910  00147A                     	endif
  4911  00147A                     	if	0	;tblptru may be non-zero
  4912  00147A                     	endif
  4913  00147A  0008               	tblrd		*
  4914  00147C  50F5               	movf	tablat,w,c
  4915  00147E  0A2A               	xorlw	42
  4916  001480  A4D8               	btfss	status,2,c
  4917  001482  EF45  F00A         	goto	i2u618_41
  4918  001486  EF47  F00A         	goto	i2u618_40
  4919  00148A                     i2u618_41:
  4920  00148A  EF64  F00A         	goto	i2l5021
  4921  00148E                     i2u618_40:
  4922  00148E                     
  4923                           ; BSR set to: 0
  4924                           ;/opt/microchip/xc8/v2.10/pic/sources/c99/common/doprnt.c: 744:                 ++*fmt;
  4925  00148E  C04D  FFD9         	movff	vfpfcnvrt@fmt,fsr2l
  4926  001492  C04E  FFDA         	movff	vfpfcnvrt@fmt+1,fsr2h
  4927  001496  2ADE               	incf	postinc2,f,c
  4928  001498  0E00               	movlw	0
  4929  00149A  22DD               	addwfc	postdec2,f,c
  4930                           
  4931                           ;/opt/microchip/xc8/v2.10/pic/sources/c99/common/doprnt.c: 745:                 prec = (
      +                          *(int *)__va_arg(*(int **)ap, (int)0));
  4932  00149C  C04F  FFD9         	movff	vfpfcnvrt@ap,fsr2l
  4933  0014A0  C050  FFDA         	movff	vfpfcnvrt@ap+1,fsr2h
  4934  0014A4  CFDF F051          	movff	indf2,??_vfpfcnvrt
  4935  0014A8  0E02               	movlw	2
  4936  0014AA  26DE               	addwf	postinc2,f,c
  4937  0014AC  CFDF F052          	movff	indf2,??_vfpfcnvrt+1
  4938  0014B0  0E00               	movlw	0
  4939  0014B2  22DD               	addwfc	postdec2,f,c
  4940  0014B4  C051  FFD9         	movff	??_vfpfcnvrt,fsr2l
  4941  0014B8  C052  FFDA         	movff	??_vfpfcnvrt+1,fsr2h
  4942  0014BC  CFDE F0F4          	movff	postinc2,_prec
  4943  0014C0  CFDD F0F5          	movff	postdec2,_prec+1
  4944                           
  4945                           ;/opt/microchip/xc8/v2.10/pic/sources/c99/common/doprnt.c: 746:             } else {
  4946  0014C4  EFA8  F00A         	goto	i2l5031
  4947  0014C8                     i2l5021:
  4948                           
  4949                           ; BSR set to: 0
  4950                           ;/opt/microchip/xc8/v2.10/pic/sources/c99/common/doprnt.c: 747:                 prec = a
      +                          toi(*fmt);
  4951  0014C8  C04D  FFD9         	movff	vfpfcnvrt@fmt,fsr2l
  4952  0014CC  C04E  FFDA         	movff	vfpfcnvrt@fmt+1,fsr2h
  4953  0014D0  CFDE F008          	movff	postinc2,atoi@s
  4954  0014D4  CFDD F009          	movff	postdec2,atoi@s+1
  4955  0014D8  EC9E  F018         	call	_atoi	;wreg free
  4956  0014DC  C008  F0F4         	movff	?_atoi,_prec
  4957  0014E0  C009  F0F5         	movff	?_atoi+1,_prec+1
  4958                           
  4959                           ;/opt/microchip/xc8/v2.10/pic/sources/c99/common/doprnt.c: 748:                 while ((
      +                          0 ? isdigit((*fmt)[0]) : ((unsigned)((*fmt)[0])-'0') < 10)) {
  4960  0014E4  EF7B  F00A         	goto	i2l5025
  4961  0014E8                     i2l5023:
  4962                           
  4963                           ; BSR set to: 0
  4964                           ;/opt/microchip/xc8/v2.10/pic/sources/c99/common/doprnt.c: 749:                     ++*f
      +                          mt;
  4965  0014E8  C04D  FFD9         	movff	vfpfcnvrt@fmt,fsr2l
  4966  0014EC  C04E  FFDA         	movff	vfpfcnvrt@fmt+1,fsr2h
  4967  0014F0  2ADE               	incf	postinc2,f,c
  4968  0014F2  0E00               	movlw	0
  4969  0014F4  22DD               	addwfc	postdec2,f,c
  4970  0014F6                     i2l5025:
  4971  0014F6  0ED0               	movlw	208
  4972  0014F8  6E51               	movwf	??_vfpfcnvrt^0,c
  4973  0014FA  0EFF               	movlw	255
  4974  0014FC  6E52               	movwf	(??_vfpfcnvrt+1)^0,c
  4975  0014FE  C04D  FFD9         	movff	vfpfcnvrt@fmt,fsr2l
  4976  001502  C04E  FFDA         	movff	vfpfcnvrt@fmt+1,fsr2h
  4977  001506  CFDE FFF6          	movff	postinc2,tblptrl
  4978  00150A  CFDD FFF7          	movff	postdec2,tblptrh
  4979  00150E                     	if	0	;tblptru may be non-zero
  4980  00150E                     	endif
  4981  00150E                     	if	0	;tblptru may be non-zero
  4982  00150E                     	endif
  4983  00150E  0008               	tblrd		*
  4984  001510  50F5               	movf	tablat,w,c
  4985  001512  6E53               	movwf	(??_vfpfcnvrt+2)^0,c
  4986  001514  6A54               	clrf	(??_vfpfcnvrt+3)^0,c
  4987  001516  5051               	movf	??_vfpfcnvrt^0,w,c
  4988  001518  2653               	addwf	(??_vfpfcnvrt+2)^0,f,c
  4989  00151A  5052               	movf	(??_vfpfcnvrt+1)^0,w,c
  4990  00151C  2254               	addwfc	(??_vfpfcnvrt+3)^0,f,c
  4991  00151E  5054               	movf	(??_vfpfcnvrt+3)^0,w,c
  4992  001520  E10A               	bnz	i2u619_40
  4993  001522  0E0A               	movlw	10
  4994  001524  5C53               	subwf	(??_vfpfcnvrt+2)^0,w,c
  4995  001526  A0D8               	btfss	status,0,c
  4996  001528  EF98  F00A         	goto	i2u619_41
  4997  00152C  EF9B  F00A         	goto	i2u619_40
  4998  001530                     i2u619_41:
  4999  001530  0E01               	movlw	1
  5000  001532  EF9C  F00A         	goto	i2u620_40
  5001  001536                     i2u619_40:
  5002  001536  0E00               	movlw	0
  5003  001538                     i2u620_40:
  5004  001538  0100               	movlb	0	; () banked
  5005  00153A  6FA0               	movwf	_vfpfcnvrt$1009& (0+255),b
  5006  00153C  6BA1               	clrf	(_vfpfcnvrt$1009+1)& (0+255),b
  5007  00153E                     
  5008                           ; BSR set to: 0
  5009  00153E  51A0               	movf	_vfpfcnvrt$1009& (0+255),w,b
  5010  001540  11A1               	iorwf	(_vfpfcnvrt$1009+1)& (0+255),w,b
  5011  001542  A4D8               	btfss	status,2,c
  5012  001544  EFA6  F00A         	goto	i2u621_41
  5013  001548  EFA8  F00A         	goto	i2u621_40
  5014  00154C                     i2u621_41:
  5015  00154C  EF74  F00A         	goto	i2l5023
  5016  001550                     i2u621_40:
  5017  001550                     i2l5031:
  5018                           
  5019                           ; BSR set to: 0
  5020                           ;/opt/microchip/xc8/v2.10/pic/sources/c99/common/doprnt.c: 757:         ct[0] = tolower(
      +                          (int)(*fmt)[0]);
  5021  001550  C04D  FFD9         	movff	vfpfcnvrt@fmt,fsr2l
  5022  001554  C04E  FFDA         	movff	vfpfcnvrt@fmt+1,fsr2h
  5023  001558  CFDE FFF6          	movff	postinc2,tblptrl
  5024  00155C  CFDD FFF7          	movff	postdec2,tblptrh
  5025  001560                     	if	0	;tblptru may be non-zero
  5026  001560                     	endif
  5027  001560                     	if	0	;tblptru may be non-zero
  5028  001560                     	endif
  5029  001560  0008               	tblrd		*
  5030  001562  50F5               	movf	tablat,w,c
  5031  001564  6E07               	movwf	tolower@c^0,c
  5032  001566  6A08               	clrf	(tolower@c+1)^0,c
  5033  001568  EC78  F025         	call	_tolower	;wreg free
  5034  00156C  5007               	movf	?_tolower^0,w,c
  5035  00156E  0100               	movlb	0	; () banked
  5036  001570  6FA8               	movwf	vfpfcnvrt@ct& (0+255),b
  5037  001572                     
  5038                           ; BSR set to: 0
  5039                           ;/opt/microchip/xc8/v2.10/pic/sources/c99/common/doprnt.c: 758:         if (ct[0]) {
  5040  001572  51A8               	movf	vfpfcnvrt@ct& (0+255),w,b
  5041  001574  B4D8               	btfsc	status,2,c
  5042  001576  EFBF  F00A         	goto	i2u622_41
  5043  00157A  EFC1  F00A         	goto	i2u622_40
  5044  00157E                     i2u622_41:
  5045  00157E  EFFB  F00A         	goto	i2l5041
  5046  001582                     i2u622_40:
  5047  001582                     
  5048                           ; BSR set to: 0
  5049                           ;/opt/microchip/xc8/v2.10/pic/sources/c99/common/doprnt.c: 759:             ct[1] = tolo
      +                          wer((int)(*fmt)[1]);
  5050  001582  C04D  FFD9         	movff	vfpfcnvrt@fmt,fsr2l
  5051  001586  C04E  FFDA         	movff	vfpfcnvrt@fmt+1,fsr2h
  5052  00158A  CFDE F051          	movff	postinc2,??_vfpfcnvrt
  5053  00158E  CFDD F052          	movff	postdec2,??_vfpfcnvrt+1
  5054  001592  0E01               	movlw	1
  5055  001594  2651               	addwf	??_vfpfcnvrt^0,f,c
  5056  001596  0E00               	movlw	0
  5057  001598  2252               	addwfc	(??_vfpfcnvrt+1)^0,f,c
  5058  00159A  C051  FFF6         	movff	??_vfpfcnvrt,tblptrl
  5059  00159E  C052  FFF7         	movff	??_vfpfcnvrt+1,tblptrh
  5060  0015A2                     	if	0	;tblptru may be non-zero
  5061  0015A2                     	endif
  5062  0015A2                     	if	0	;tblptru may be non-zero
  5063  0015A2                     	endif
  5064  0015A2  0008               	tblrd		*
  5065  0015A4  50F5               	movf	tablat,w,c
  5066  0015A6  6E07               	movwf	tolower@c^0,c
  5067  0015A8  6A08               	clrf	(tolower@c+1)^0,c
  5068  0015AA  EC78  F025         	call	_tolower	;wreg free
  5069  0015AE  5007               	movf	?_tolower^0,w,c
  5070  0015B0  0100               	movlb	0	; () banked
  5071  0015B2  6FA9               	movwf	(vfpfcnvrt@ct+1)& (0+255),b
  5072  0015B4                     
  5073                           ; BSR set to: 0
  5074                           ;/opt/microchip/xc8/v2.10/pic/sources/c99/common/doprnt.c: 760:             if (ct[1]) {
  5075  0015B4  51A9               	movf	(vfpfcnvrt@ct+1)& (0+255),w,b
  5076  0015B6  B4D8               	btfsc	status,2,c
  5077  0015B8  EFE0  F00A         	goto	i2u623_41
  5078  0015BC  EFE2  F00A         	goto	i2u623_40
  5079  0015C0                     i2u623_41:
  5080  0015C0  EFFB  F00A         	goto	i2l5041
  5081  0015C4                     i2u623_40:
  5082  0015C4                     
  5083                           ; BSR set to: 0
  5084                           ;/opt/microchip/xc8/v2.10/pic/sources/c99/common/doprnt.c: 761:                 ct[2] = 
      +                          tolower((int)(*fmt)[2]);
  5085  0015C4  C04D  FFD9         	movff	vfpfcnvrt@fmt,fsr2l
  5086  0015C8  C04E  FFDA         	movff	vfpfcnvrt@fmt+1,fsr2h
  5087  0015CC  CFDE F051          	movff	postinc2,??_vfpfcnvrt
  5088  0015D0  CFDD F052          	movff	postdec2,??_vfpfcnvrt+1
  5089  0015D4  0E02               	movlw	2
  5090  0015D6  2651               	addwf	??_vfpfcnvrt^0,f,c
  5091  0015D8  0E00               	movlw	0
  5092  0015DA  2252               	addwfc	(??_vfpfcnvrt+1)^0,f,c
  5093  0015DC  C051  FFF6         	movff	??_vfpfcnvrt,tblptrl
  5094  0015E0  C052  FFF7         	movff	??_vfpfcnvrt+1,tblptrh
  5095  0015E4                     	if	0	;tblptru may be non-zero
  5096  0015E4                     	endif
  5097  0015E4                     	if	0	;tblptru may be non-zero
  5098  0015E4                     	endif
  5099  0015E4  0008               	tblrd		*
  5100  0015E6  50F5               	movf	tablat,w,c
  5101  0015E8  6E07               	movwf	tolower@c^0,c
  5102  0015EA  6A08               	clrf	(tolower@c+1)^0,c
  5103  0015EC  EC78  F025         	call	_tolower	;wreg free
  5104  0015F0  5007               	movf	?_tolower^0,w,c
  5105  0015F2  0100               	movlb	0	; () banked
  5106  0015F4  6FAA               	movwf	(vfpfcnvrt@ct+2)& (0+255),b
  5107  0015F6                     i2l5041:
  5108                           
  5109                           ; BSR set to: 0
  5110                           ;/opt/microchip/xc8/v2.10/pic/sources/c99/common/doprnt.c: 825:         if ((*fmt[0] == 
      +                          'd') || (*fmt[0] == 'i')) {
  5111  0015F6  C04D  FFD9         	movff	vfpfcnvrt@fmt,fsr2l
  5112  0015FA  C04E  FFDA         	movff	vfpfcnvrt@fmt+1,fsr2h
  5113  0015FE  CFDE FFF6          	movff	postinc2,tblptrl
  5114  001602  CFDD FFF7          	movff	postdec2,tblptrh
  5115  001606                     	if	0	;tblptru may be non-zero
  5116  001606                     	endif
  5117  001606                     	if	0	;tblptru may be non-zero
  5118  001606                     	endif
  5119  001606  0008               	tblrd		*
  5120  001608  50F5               	movf	tablat,w,c
  5121  00160A  0A64               	xorlw	100
  5122  00160C  B4D8               	btfsc	status,2,c
  5123  00160E  EF0B  F00B         	goto	i2u624_41
  5124  001612  EF0D  F00B         	goto	i2u624_40
  5125  001616                     i2u624_41:
  5126  001616  EF1F  F00B         	goto	i2l5045
  5127  00161A                     i2u624_40:
  5128  00161A                     
  5129                           ; BSR set to: 0
  5130  00161A  C04D  FFD9         	movff	vfpfcnvrt@fmt,fsr2l
  5131  00161E  C04E  FFDA         	movff	vfpfcnvrt@fmt+1,fsr2h
  5132  001622  CFDE FFF6          	movff	postinc2,tblptrl
  5133  001626  CFDD FFF7          	movff	postdec2,tblptrh
  5134  00162A                     	if	0	;tblptru may be non-zero
  5135  00162A                     	endif
  5136  00162A                     	if	0	;tblptru may be non-zero
  5137  00162A                     	endif
  5138  00162A  0008               	tblrd		*
  5139  00162C  50F5               	movf	tablat,w,c
  5140  00162E  0A69               	xorlw	105
  5141  001630  A4D8               	btfss	status,2,c
  5142  001632  EF1D  F00B         	goto	i2u625_41
  5143  001636  EF1F  F00B         	goto	i2u625_40
  5144  00163A                     i2u625_41:
  5145  00163A  EF5F  F00B         	goto	i2l5051
  5146  00163E                     i2u625_40:
  5147  00163E                     i2l5045:
  5148                           
  5149                           ; BSR set to: 0
  5150                           ;/opt/microchip/xc8/v2.10/pic/sources/c99/common/doprnt.c: 827:             ++*fmt;
  5151  00163E  C04D  FFD9         	movff	vfpfcnvrt@fmt,fsr2l
  5152  001642  C04E  FFDA         	movff	vfpfcnvrt@fmt+1,fsr2h
  5153  001646  2ADE               	incf	postinc2,f,c
  5154  001648  0E00               	movlw	0
  5155  00164A  22DD               	addwfc	postdec2,f,c
  5156                           
  5157                           ;/opt/microchip/xc8/v2.10/pic/sources/c99/common/doprnt.c: 828:             ll = (long l
      +                          ong)(*(int *)__va_arg(*(int **)ap, (int)0));
  5158  00164C  C04F  FFD9         	movff	vfpfcnvrt@ap,fsr2l
  5159  001650  C050  FFDA         	movff	vfpfcnvrt@ap+1,fsr2h
  5160  001654  CFDF F051          	movff	indf2,??_vfpfcnvrt
  5161  001658  0E02               	movlw	2
  5162  00165A  26DE               	addwf	postinc2,f,c
  5163  00165C  CFDF F052          	movff	indf2,??_vfpfcnvrt+1
  5164  001660  0E00               	movlw	0
  5165  001662  22DD               	addwfc	postdec2,f,c
  5166  001664  C051  FFD9         	movff	??_vfpfcnvrt,fsr2l
  5167  001668  C052  FFDA         	movff	??_vfpfcnvrt+1,fsr2h
  5168  00166C  CFDE F098          	movff	postinc2,vfpfcnvrt@ll
  5169  001670  CFDD F099          	movff	postdec2,vfpfcnvrt@ll+1
  5170  001674  0E00               	movlw	0
  5171  001676  BF99               	btfsc	(vfpfcnvrt@ll+1)& (0+255),7,b
  5172  001678  0EFF               	movlw	-1
  5173  00167A  6F9A               	movwf	(vfpfcnvrt@ll+2)& (0+255),b
  5174  00167C  6F9B               	movwf	(vfpfcnvrt@ll+3)& (0+255),b
  5175  00167E  6F9C               	movwf	(vfpfcnvrt@ll+4)& (0+255),b
  5176  001680  6F9D               	movwf	(vfpfcnvrt@ll+5)& (0+255),b
  5177  001682  6F9E               	movwf	(vfpfcnvrt@ll+6)& (0+255),b
  5178  001684  6F9F               	movwf	(vfpfcnvrt@ll+7)& (0+255),b
  5179  001686                     
  5180                           ; BSR set to: 0
  5181                           ;/opt/microchip/xc8/v2.10/pic/sources/c99/common/doprnt.c: 830:             return dtoa(
      +                          fp, ll);
  5182  001686  C04B  F01C         	movff	vfpfcnvrt@fp,dtoa@fp
  5183  00168A  C04C  F01D         	movff	vfpfcnvrt@fp+1,dtoa@fp+1
  5184  00168E  C098  F01E         	movff	vfpfcnvrt@ll,dtoa@d
  5185  001692  C099  F01F         	movff	vfpfcnvrt@ll+1,dtoa@d+1
  5186  001696  C09A  F020         	movff	vfpfcnvrt@ll+2,dtoa@d+2
  5187  00169A  C09B  F021         	movff	vfpfcnvrt@ll+3,dtoa@d+3
  5188  00169E  C09C  F022         	movff	vfpfcnvrt@ll+4,dtoa@d+4
  5189  0016A2  C09D  F023         	movff	vfpfcnvrt@ll+5,dtoa@d+5
  5190  0016A6  C09E  F024         	movff	vfpfcnvrt@ll+6,dtoa@d+6
  5191  0016AA  C09F  F025         	movff	vfpfcnvrt@ll+7,dtoa@d+7
  5192  0016AE  ECCF  F012         	call	_dtoa	;wreg free
  5193  0016B2  C01C  F04B         	movff	?_dtoa,?_vfpfcnvrt
  5194  0016B6  C01D  F04C         	movff	?_dtoa+1,?_vfpfcnvrt+1
  5195  0016BA  EF8C  F00C         	goto	i2l513
  5196  0016BE                     i2l5051:
  5197                           
  5198                           ; BSR set to: 0
  5199                           ;/opt/microchip/xc8/v2.10/pic/sources/c99/common/doprnt.c: 920:         if (ct[0] == 'f'
      +                          ) {
  5200  0016BE  0E66               	movlw	102
  5201  0016C0  19A8               	xorwf	vfpfcnvrt@ct& (0+255),w,b
  5202  0016C2  A4D8               	btfss	status,2,c
  5203  0016C4  EF66  F00B         	goto	i2u626_41
  5204  0016C8  EF68  F00B         	goto	i2u626_40
  5205  0016CC                     i2u626_41:
  5206  0016CC  EFA8  F00B         	goto	i2l5063
  5207  0016D0                     i2u626_40:
  5208  0016D0                     
  5209                           ; BSR set to: 0
  5210                           ;/opt/microchip/xc8/v2.10/pic/sources/c99/common/doprnt.c: 922:             c = (*fmt)[0
      +                          ];
  5211  0016D0  C04D  FFD9         	movff	vfpfcnvrt@fmt,fsr2l
  5212  0016D4  C04E  FFDA         	movff	vfpfcnvrt@fmt+1,fsr2h
  5213  0016D8  CFDE FFF6          	movff	postinc2,tblptrl
  5214  0016DC  CFDD FFF7          	movff	postdec2,tblptrh
  5215  0016E0                     	if	0	;tblptru may be non-zero
  5216  0016E0                     	endif
  5217  0016E0                     	if	0	;tblptru may be non-zero
  5218  0016E0                     	endif
  5219  0016E0  0008               	tblrd		*
  5220  0016E2  CFF5 F0AB          	movff	tablat,vfpfcnvrt@c
  5221  0016E6                     
  5222                           ; BSR set to: 0
  5223                           ;/opt/microchip/xc8/v2.10/pic/sources/c99/common/doprnt.c: 923:             ++*fmt;
  5224  0016E6  C04D  FFD9         	movff	vfpfcnvrt@fmt,fsr2l
  5225  0016EA  C04E  FFDA         	movff	vfpfcnvrt@fmt+1,fsr2h
  5226  0016EE  2ADE               	incf	postinc2,f,c
  5227  0016F0  0E00               	movlw	0
  5228  0016F2  22DD               	addwfc	postdec2,f,c
  5229  0016F4                     
  5230                           ; BSR set to: 0
  5231                           ;/opt/microchip/xc8/v2.10/pic/sources/c99/common/doprnt.c: 924:             f = (long do
      +                          uble)(*(double *)__va_arg(*(double **)ap, (double)0));
  5232  0016F4  C04F  FFD9         	movff	vfpfcnvrt@ap,fsr2l
  5233  0016F8  C050  FFDA         	movff	vfpfcnvrt@ap+1,fsr2h
  5234  0016FC  CFDF F051          	movff	indf2,??_vfpfcnvrt
  5235  001700  0E04               	movlw	4
  5236  001702  26DE               	addwf	postinc2,f,c
  5237  001704  CFDF F052          	movff	indf2,??_vfpfcnvrt+1
  5238  001708  0E00               	movlw	0
  5239  00170A  22DD               	addwfc	postdec2,f,c
  5240  00170C  C051  FFD9         	movff	??_vfpfcnvrt,fsr2l
  5241  001710  C052  FFDA         	movff	??_vfpfcnvrt+1,fsr2h
  5242  001714  CFDE F0A4          	movff	postinc2,vfpfcnvrt@f
  5243  001718  CFDE F0A5          	movff	postinc2,vfpfcnvrt@f+1
  5244  00171C  CFDE F0A6          	movff	postinc2,vfpfcnvrt@f+2
  5245  001720  CFDE F0A7          	movff	postinc2,vfpfcnvrt@f+3
  5246  001724                     i2l5059:
  5247                           
  5248                           ; BSR set to: 0
  5249                           ;/opt/microchip/xc8/v2.10/pic/sources/c99/common/doprnt.c: 926:             return efgto
      +                          a(fp, f, c);
  5250  001724  C04B  F03F         	movff	vfpfcnvrt@fp,efgtoa@fp
  5251  001728  C04C  F040         	movff	vfpfcnvrt@fp+1,efgtoa@fp+1
  5252  00172C  C0A4  F041         	movff	vfpfcnvrt@f,efgtoa@f
  5253  001730  C0A5  F042         	movff	vfpfcnvrt@f+1,efgtoa@f+1
  5254  001734  C0A6  F043         	movff	vfpfcnvrt@f+2,efgtoa@f+2
  5255  001738  C0A7  F044         	movff	vfpfcnvrt@f+3,efgtoa@f+3
  5256  00173C  C0AB  F045         	movff	vfpfcnvrt@c,efgtoa@c
  5257  001740  EC1B  F004         	call	_efgtoa	;wreg free
  5258  001744  C03F  F04B         	movff	?_efgtoa,?_vfpfcnvrt
  5259  001748  C040  F04C         	movff	?_efgtoa+1,?_vfpfcnvrt+1
  5260  00174C  EF8C  F00C         	goto	i2l513
  5261  001750                     i2l5063:
  5262                           
  5263                           ; BSR set to: 0
  5264                           ;/opt/microchip/xc8/v2.10/pic/sources/c99/common/doprnt.c: 928:         if (!strncmp(ct,
      +                           "lf", ((sizeof("lf")/sizeof("lf"[0]))-1))) {
  5265  001750  0EA8               	movlw	low vfpfcnvrt@ct
  5266  001752  6E01               	movwf	strncmp@_l^0,c
  5267  001754  0E00               	movlw	high vfpfcnvrt@ct
  5268  001756  6E02               	movwf	(strncmp@_l+1)^0,c
  5269  001758  0E2D               	movlw	low STR_14
  5270  00175A  6E03               	movwf	strncmp@_r^0,c
  5271  00175C  0E08               	movlw	high STR_14
  5272  00175E  6E04               	movwf	(strncmp@_r+1)^0,c
  5273  001760  0E00               	movlw	0
  5274  001762  6E06               	movwf	(strncmp@n+1)^0,c
  5275  001764  0E02               	movlw	2
  5276  001766  6E05               	movwf	strncmp@n^0,c
  5277  001768  EC4D  F020         	call	_strncmp	;wreg free
  5278  00176C  5001               	movf	?_strncmp^0,w,c
  5279  00176E  1002               	iorwf	(?_strncmp+1)^0,w,c
  5280  001770  A4D8               	btfss	status,2,c
  5281  001772  EFBD  F00B         	goto	i2u627_41
  5282  001776  EFBF  F00B         	goto	i2u627_40
  5283  00177A                     i2u627_41:
  5284  00177A  EF3B  F00C         	goto	i2l5079
  5285  00177E                     i2u627_40:
  5286  00177E                     
  5287                           ;/opt/microchip/xc8/v2.10/pic/sources/c99/common/doprnt.c: 931:             if ((0 ? isu
      +                          pper((int)(*fmt)[0]) : ((unsigned)((int)(*fmt)[0])-'A') < 26)) {
  5288  00177E  C04D  FFD9         	movff	vfpfcnvrt@fmt,fsr2l
  5289  001782  C04E  FFDA         	movff	vfpfcnvrt@fmt+1,fsr2h
  5290  001786  CFDE F051          	movff	postinc2,??_vfpfcnvrt
  5291  00178A  CFDD F052          	movff	postdec2,??_vfpfcnvrt+1
  5292  00178E  0E01               	movlw	1
  5293  001790  2651               	addwf	??_vfpfcnvrt^0,f,c
  5294  001792  0E00               	movlw	0
  5295  001794  2252               	addwfc	(??_vfpfcnvrt+1)^0,f,c
  5296  001796  C051  FFF6         	movff	??_vfpfcnvrt,tblptrl
  5297  00179A  C052  FFF7         	movff	??_vfpfcnvrt+1,tblptrh
  5298  00179E                     	if	0	;tblptru may be non-zero
  5299  00179E                     	endif
  5300  00179E                     	if	0	;tblptru may be non-zero
  5301  00179E                     	endif
  5302  00179E  0008               	tblrd		*
  5303  0017A0  CFF5 F0AB          	movff	tablat,vfpfcnvrt@c
  5304  0017A4  0EBF               	movlw	191
  5305  0017A6  6E51               	movwf	??_vfpfcnvrt^0,c
  5306  0017A8  0EFF               	movlw	255
  5307  0017AA  6E52               	movwf	(??_vfpfcnvrt+1)^0,c
  5308  0017AC  C04D  FFD9         	movff	vfpfcnvrt@fmt,fsr2l
  5309  0017B0  C04E  FFDA         	movff	vfpfcnvrt@fmt+1,fsr2h
  5310  0017B4  CFDE FFF6          	movff	postinc2,tblptrl
  5311  0017B8  CFDD FFF7          	movff	postdec2,tblptrh
  5312  0017BC                     	if	0	;tblptru may be non-zero
  5313  0017BC                     	endif
  5314  0017BC                     	if	0	;tblptru may be non-zero
  5315  0017BC                     	endif
  5316  0017BC  0008               	tblrd		*
  5317  0017BE  50F5               	movf	tablat,w,c
  5318  0017C0  6E53               	movwf	(??_vfpfcnvrt+2)^0,c
  5319  0017C2  6A54               	clrf	(??_vfpfcnvrt+3)^0,c
  5320  0017C4  5051               	movf	??_vfpfcnvrt^0,w,c
  5321  0017C6  2653               	addwf	(??_vfpfcnvrt+2)^0,f,c
  5322  0017C8  5052               	movf	(??_vfpfcnvrt+1)^0,w,c
  5323  0017CA  2254               	addwfc	(??_vfpfcnvrt+3)^0,f,c
  5324  0017CC  5054               	movf	(??_vfpfcnvrt+3)^0,w,c
  5325  0017CE  E10A               	bnz	i2u628_40
  5326  0017D0  0E1A               	movlw	26
  5327  0017D2  5C53               	subwf	(??_vfpfcnvrt+2)^0,w,c
  5328  0017D4  A0D8               	btfss	status,0,c
  5329  0017D6  EFEF  F00B         	goto	i2u628_41
  5330  0017DA  EFF2  F00B         	goto	i2u628_40
  5331  0017DE                     i2u628_41:
  5332  0017DE  0E01               	movlw	1
  5333  0017E0  EFF3  F00B         	goto	i2u629_40
  5334  0017E4                     i2u628_40:
  5335  0017E4  0E00               	movlw	0
  5336  0017E6                     i2u629_40:
  5337  0017E6  0100               	movlb	0	; () banked
  5338  0017E8  6FA2               	movwf	_vfpfcnvrt$1014& (0+255),b
  5339  0017EA  6BA3               	clrf	(_vfpfcnvrt$1014+1)& (0+255),b
  5340  0017EC                     
  5341                           ; BSR set to: 0
  5342  0017EC  51A2               	movf	_vfpfcnvrt$1014& (0+255),w,b
  5343  0017EE  11A3               	iorwf	(_vfpfcnvrt$1014+1)& (0+255),w,b
  5344  0017F0  B4D8               	btfsc	status,2,c
  5345  0017F2  EFFD  F00B         	goto	i2u630_41
  5346  0017F6  EFFF  F00B         	goto	i2u630_40
  5347  0017FA                     i2u630_41:
  5348  0017FA  EF19  F00C         	goto	i2l5073
  5349  0017FE                     i2u630_40:
  5350  0017FE                     
  5351                           ; BSR set to: 0
  5352                           ;/opt/microchip/xc8/v2.10/pic/sources/c99/common/doprnt.c: 932:                 f = (*(l
      +                          ong double *)__va_arg(*(long double **)ap, (long double)0));
  5353  0017FE  C04F  FFD9         	movff	vfpfcnvrt@ap,fsr2l
  5354  001802  C050  FFDA         	movff	vfpfcnvrt@ap+1,fsr2h
  5355  001806  CFDF F051          	movff	indf2,??_vfpfcnvrt
  5356  00180A  0E04               	movlw	4
  5357  00180C  26DE               	addwf	postinc2,f,c
  5358  00180E  CFDF F052          	movff	indf2,??_vfpfcnvrt+1
  5359  001812  0E00               	movlw	0
  5360  001814  22DD               	addwfc	postdec2,f,c
  5361  001816  C051  FFD9         	movff	??_vfpfcnvrt,fsr2l
  5362  00181A  C052  FFDA         	movff	??_vfpfcnvrt+1,fsr2h
  5363  00181E  CFDE F0A4          	movff	postinc2,vfpfcnvrt@f
  5364  001822  CFDE F0A5          	movff	postinc2,vfpfcnvrt@f+1
  5365  001826  CFDE F0A6          	movff	postinc2,vfpfcnvrt@f+2
  5366  00182A  CFDE F0A7          	movff	postinc2,vfpfcnvrt@f+3
  5367                           
  5368                           ;/opt/microchip/xc8/v2.10/pic/sources/c99/common/doprnt.c: 933:             } else {
  5369  00182E  EF31  F00C         	goto	i2l521
  5370  001832                     i2l5073:
  5371                           
  5372                           ; BSR set to: 0
  5373                           ;/opt/microchip/xc8/v2.10/pic/sources/c99/common/doprnt.c: 934:                 f = (lon
      +                          g double)(*(double *)__va_arg(*(double **)ap, (double)0));
  5374  001832  C04F  FFD9         	movff	vfpfcnvrt@ap,fsr2l
  5375  001836  C050  FFDA         	movff	vfpfcnvrt@ap+1,fsr2h
  5376  00183A  CFDF F051          	movff	indf2,??_vfpfcnvrt
  5377  00183E  0E04               	movlw	4
  5378  001840  26DE               	addwf	postinc2,f,c
  5379  001842  CFDF F052          	movff	indf2,??_vfpfcnvrt+1
  5380  001846  0E00               	movlw	0
  5381  001848  22DD               	addwfc	postdec2,f,c
  5382  00184A  C051  FFD9         	movff	??_vfpfcnvrt,fsr2l
  5383  00184E  C052  FFDA         	movff	??_vfpfcnvrt+1,fsr2h
  5384  001852  CFDE F0A4          	movff	postinc2,vfpfcnvrt@f
  5385  001856  CFDE F0A5          	movff	postinc2,vfpfcnvrt@f+1
  5386  00185A  CFDE F0A6          	movff	postinc2,vfpfcnvrt@f+2
  5387  00185E  CFDE F0A7          	movff	postinc2,vfpfcnvrt@f+3
  5388  001862                     i2l521:
  5389                           
  5390                           ; BSR set to: 0
  5391                           ;/opt/microchip/xc8/v2.10/pic/sources/c99/common/doprnt.c: 936:             *fmt += ((si
      +                          zeof("lf")/sizeof("lf"[0]))-1);
  5392  001862  0E02               	movlw	2
  5393  001864  C04D  FFD9         	movff	vfpfcnvrt@fmt,fsr2l
  5394  001868  C04E  FFDA         	movff	vfpfcnvrt@fmt+1,fsr2h
  5395  00186C  26DE               	addwf	postinc2,f,c
  5396  00186E  0E00               	movlw	0
  5397  001870  22DD               	addwfc	postdec2,f,c
  5398  001872  EF92  F00B         	goto	i2l5059
  5399  001876                     i2l5079:
  5400                           
  5401                           ;/opt/microchip/xc8/v2.10/pic/sources/c99/common/doprnt.c: 1350:         if ((*fmt)[0] =
      +                          = '%') {
  5402  001876  C04D  FFD9         	movff	vfpfcnvrt@fmt,fsr2l
  5403  00187A  C04E  FFDA         	movff	vfpfcnvrt@fmt+1,fsr2h
  5404  00187E  CFDE FFF6          	movff	postinc2,tblptrl
  5405  001882  CFDD FFF7          	movff	postdec2,tblptrh
  5406  001886                     	if	0	;tblptru may be non-zero
  5407  001886                     	endif
  5408  001886                     	if	0	;tblptru may be non-zero
  5409  001886                     	endif
  5410  001886  0008               	tblrd		*
  5411  001888  50F5               	movf	tablat,w,c
  5412  00188A  0A25               	xorlw	37
  5413  00188C  A4D8               	btfss	status,2,c
  5414  00188E  EF4B  F00C         	goto	i2u631_41
  5415  001892  EF4D  F00C         	goto	i2u631_40
  5416  001896                     i2u631_41:
  5417  001896  EF64  F00C         	goto	i2l5089
  5418  00189A                     i2u631_40:
  5419  00189A                     
  5420                           ;/opt/microchip/xc8/v2.10/pic/sources/c99/common/doprnt.c: 1351:             ++*fmt;
  5421  00189A  C04D  FFD9         	movff	vfpfcnvrt@fmt,fsr2l
  5422  00189E  C04E  FFDA         	movff	vfpfcnvrt@fmt+1,fsr2h
  5423  0018A2  2ADE               	incf	postinc2,f,c
  5424  0018A4  0E00               	movlw	0
  5425  0018A6  22DD               	addwfc	postdec2,f,c
  5426  0018A8                     
  5427                           ;/opt/microchip/xc8/v2.10/pic/sources/c99/common/doprnt.c: 1352:             fputc((int)
      +                          '%', fp);
  5428  0018A8  0E00               	movlw	0
  5429  0018AA  6E02               	movwf	(fputc@c+1)^0,c
  5430  0018AC  0E25               	movlw	37
  5431  0018AE  6E01               	movwf	fputc@c^0,c
  5432  0018B0  C04B  F003         	movff	vfpfcnvrt@fp,fputc@fp
  5433  0018B4  C04C  F004         	movff	vfpfcnvrt@fp+1,fputc@fp+1
  5434  0018B8  EC1E  F021         	call	_fputc	;wreg free
  5435  0018BC                     i2l5085:
  5436                           
  5437                           ;/opt/microchip/xc8/v2.10/pic/sources/c99/common/doprnt.c: 1353:             return 1;
  5438  0018BC  0E00               	movlw	0
  5439  0018BE  6E4C               	movwf	(?_vfpfcnvrt+1)^0,c
  5440  0018C0  0E01               	movlw	1
  5441  0018C2  6E4B               	movwf	?_vfpfcnvrt^0,c
  5442  0018C4  EF8C  F00C         	goto	i2l513
  5443  0018C8                     i2l5089:
  5444                           
  5445                           ;/opt/microchip/xc8/v2.10/pic/sources/c99/common/doprnt.c: 1357:         ++*fmt;
  5446  0018C8  C04D  FFD9         	movff	vfpfcnvrt@fmt,fsr2l
  5447  0018CC  C04E  FFDA         	movff	vfpfcnvrt@fmt+1,fsr2h
  5448  0018D0  2ADE               	incf	postinc2,f,c
  5449  0018D2  0E00               	movlw	0
  5450  0018D4  22DD               	addwfc	postdec2,f,c
  5451  0018D6                     
  5452                           ;/opt/microchip/xc8/v2.10/pic/sources/c99/common/doprnt.c: 1358:         return 0;
  5453  0018D6  0E00               	movlw	0
  5454  0018D8  6E4C               	movwf	(?_vfpfcnvrt+1)^0,c
  5455  0018DA  0E00               	movlw	0
  5456  0018DC  6E4B               	movwf	?_vfpfcnvrt^0,c
  5457  0018DE  EF8C  F00C         	goto	i2l513
  5458  0018E2                     i2l5095:
  5459                           
  5460                           ;/opt/microchip/xc8/v2.10/pic/sources/c99/common/doprnt.c: 1362:     fputc((int)(*fmt)[0
      +                          ], fp);
  5461  0018E2  C04D  FFD9         	movff	vfpfcnvrt@fmt,fsr2l
  5462  0018E6  C04E  FFDA         	movff	vfpfcnvrt@fmt+1,fsr2h
  5463  0018EA  CFDE FFF6          	movff	postinc2,tblptrl
  5464  0018EE  CFDD FFF7          	movff	postdec2,tblptrh
  5465  0018F2                     	if	0	;tblptru may be non-zero
  5466  0018F2                     	endif
  5467  0018F2                     	if	0	;tblptru may be non-zero
  5468  0018F2                     	endif
  5469  0018F2  0008               	tblrd		*
  5470  0018F4  50F5               	movf	tablat,w,c
  5471  0018F6  6E01               	movwf	fputc@c^0,c
  5472  0018F8  6A02               	clrf	(fputc@c+1)^0,c
  5473  0018FA  C04B  F003         	movff	vfpfcnvrt@fp,fputc@fp
  5474  0018FE  C04C  F004         	movff	vfpfcnvrt@fp+1,fputc@fp+1
  5475  001902  EC1E  F021         	call	_fputc	;wreg free
  5476  001906                     
  5477                           ;/opt/microchip/xc8/v2.10/pic/sources/c99/common/doprnt.c: 1363:     ++*fmt;
  5478  001906  C04D  FFD9         	movff	vfpfcnvrt@fmt,fsr2l
  5479  00190A  C04E  FFDA         	movff	vfpfcnvrt@fmt+1,fsr2h
  5480  00190E  2ADE               	incf	postinc2,f,c
  5481  001910  0E00               	movlw	0
  5482  001912  22DD               	addwfc	postdec2,f,c
  5483  001914  EF5E  F00C         	goto	i2l5085
  5484  001918                     i2l513:
  5485  001918  0012               	return		;funcret
  5486  00191A                     __end_of_vfpfcnvrt:
  5487                           	opt callstack 0
  5488                           
  5489 ;; *************** function _strncmp *****************
  5490 ;; Defined at:
  5491 ;;		line 3 in file "/opt/microchip/xc8/v2.10/pic/sources/c99/common/strncmp.c"
  5492 ;; Parameters:    Size  Location     Type
  5493 ;;  _l              2    0[COMRAM] PTR const unsigned char 
  5494 ;;		 -> vfpfcnvrt@ct(3), 
  5495 ;;  _r              2    2[COMRAM] PTR const unsigned char 
  5496 ;;		 -> STR_16(3), 
  5497 ;;  n               2    4[COMRAM] unsigned int 
  5498 ;; Auto vars:     Size  Location     Type
  5499 ;;  r               2    9[COMRAM] PTR const unsigned char 
  5500 ;;		 -> STR_16(3), 
  5501 ;;  l               2    7[COMRAM] PTR const unsigned char 
  5502 ;;		 -> vfpfcnvrt@ct(3), 
  5503 ;; Return value:  Size  Location     Type
  5504 ;;                  2    0[COMRAM] int 
  5505 ;; Registers used:
  5506 ;;		wreg, fsr2l, fsr2h, status,2, status,0, tblptrl, tblptrh, tblptru
  5507 ;; Tracked objects:
  5508 ;;		On entry : 0/0
  5509 ;;		On exit  : 0/0
  5510 ;;		Unchanged: 0/0
  5511 ;; Data sizes:     COMRAM   BANK0   BANK1   BANK2   BANK3   BANK4   BANK5   BANK6   BANK7
  5512 ;;      Params:         6       0       0       0       0       0       0       0       0
  5513 ;;      Locals:         4       0       0       0       0       0       0       0       0
  5514 ;;      Temps:          1       0       0       0       0       0       0       0       0
  5515 ;;      Totals:        11       0       0       0       0       0       0       0       0
  5516 ;;Total ram usage:       11 bytes
  5517 ;; Hardware stack levels used:    1
  5518 ;; This function calls:
  5519 ;;		Nothing
  5520 ;; This function is called by:
  5521 ;;		_vfpfcnvrt
  5522 ;; This function uses a non-reentrant model
  5523 ;;
  5524                           
  5525                           	psect	text25
  5526  00409A                     __ptext25:
  5527                           	opt callstack 0
  5528  00409A                     _strncmp:
  5529                           	opt callstack 21
  5530  00409A  C001  F008         	movff	strncmp@_l,strncmp@l
  5531  00409E  C002  F009         	movff	strncmp@_l+1,strncmp@l+1
  5532  0040A2  C003  F00A         	movff	strncmp@_r,strncmp@r
  5533  0040A6  C004  F00B         	movff	strncmp@_r+1,strncmp@r+1
  5534  0040AA  0605               	decf	strncmp@n^0,f,c
  5535  0040AC  A0D8               	btfss	status,0,c
  5536  0040AE  0606               	decf	(strncmp@n+1)^0,f,c
  5537  0040B0  2805               	incf	strncmp@n^0,w,c
  5538  0040B2  E106               	bnz	i2u581_41
  5539  0040B4  2806               	incf	(strncmp@n+1)^0,w,c
  5540  0040B6  A4D8               	btfss	status,2,c
  5541  0040B8  EF60  F020         	goto	i2u581_41
  5542  0040BC  EF62  F020         	goto	i2u581_40
  5543  0040C0                     i2u581_41:
  5544  0040C0  EF6F  F020         	goto	i2l4835
  5545  0040C4                     i2u581_40:
  5546  0040C4  0E00               	movlw	0
  5547  0040C6  6E02               	movwf	(?_strncmp+1)^0,c
  5548  0040C8  0E00               	movlw	0
  5549  0040CA  6E01               	movwf	?_strncmp^0,c
  5550  0040CC  EFB7  F020         	goto	i2l1337
  5551  0040D0                     i2l4833:
  5552  0040D0  4A08               	infsnz	strncmp@l^0,f,c
  5553  0040D2  2A09               	incf	(strncmp@l+1)^0,f,c
  5554  0040D4  4A0A               	infsnz	strncmp@r^0,f,c
  5555  0040D6  2A0B               	incf	(strncmp@r+1)^0,f,c
  5556  0040D8  0605               	decf	strncmp@n^0,f,c
  5557  0040DA  A0D8               	btfss	status,0,c
  5558  0040DC  0606               	decf	(strncmp@n+1)^0,f,c
  5559  0040DE                     i2l4835:
  5560  0040DE  C008  FFD9         	movff	strncmp@l,fsr2l
  5561  0040E2  C009  FFDA         	movff	strncmp@l+1,fsr2h
  5562  0040E6  50DF               	movf	indf2,w,c
  5563  0040E8  B4D8               	btfsc	status,2,c
  5564  0040EA  EF79  F020         	goto	i2u582_41
  5565  0040EE  EF7B  F020         	goto	i2u582_40
  5566  0040F2                     i2u582_41:
  5567  0040F2  EFA6  F020         	goto	i2l4843
  5568  0040F6                     i2u582_40:
  5569  0040F6  C00A  FFF6         	movff	strncmp@r,tblptrl
  5570  0040FA  C00B  FFF7         	movff	strncmp@r+1,tblptrh
  5571  0040FE                     	if	0	;tblptru may be non-zero
  5572  0040FE                     	endif
  5573  0040FE                     	if	0	;tblptru may be non-zero
  5574  0040FE                     	endif
  5575  0040FE  0008               	tblrd		*
  5576  004100  50F5               	movf	tablat,w,c
  5577  004102  0900               	iorlw	0
  5578  004104  B4D8               	btfsc	status,2,c
  5579  004106  EF87  F020         	goto	i2u583_41
  5580  00410A  EF89  F020         	goto	i2u583_40
  5581  00410E                     i2u583_41:
  5582  00410E  EFA6  F020         	goto	i2l4843
  5583  004112                     i2u583_40:
  5584  004112  5005               	movf	strncmp@n^0,w,c
  5585  004114  1006               	iorwf	(strncmp@n+1)^0,w,c
  5586  004116  B4D8               	btfsc	status,2,c
  5587  004118  EF90  F020         	goto	i2u584_41
  5588  00411C  EF92  F020         	goto	i2u584_40
  5589  004120                     i2u584_41:
  5590  004120  EFA6  F020         	goto	i2l4843
  5591  004124                     i2u584_40:
  5592  004124  C008  FFD9         	movff	strncmp@l,fsr2l
  5593  004128  C009  FFDA         	movff	strncmp@l+1,fsr2h
  5594  00412C  50DF               	movf	indf2,w,c
  5595  00412E  6E07               	movwf	??_strncmp^0,c
  5596  004130  C00A  FFF6         	movff	strncmp@r,tblptrl
  5597  004134  C00B  FFF7         	movff	strncmp@r+1,tblptrh
  5598  004138                     	if	0	;tblptru may be non-zero
  5599  004138                     	endif
  5600  004138                     	if	0	;tblptru may be non-zero
  5601  004138                     	endif
  5602  004138  0008               	tblrd		*
  5603  00413A  50F5               	movf	tablat,w,c
  5604  00413C  1807               	xorwf	??_strncmp^0,w,c
  5605  00413E  B4D8               	btfsc	status,2,c
  5606  004140  EFA4  F020         	goto	i2u585_41
  5607  004144  EFA6  F020         	goto	i2u585_40
  5608  004148                     i2u585_41:
  5609  004148  EF68  F020         	goto	i2l4833
  5610  00414C                     i2u585_40:
  5611  00414C                     i2l4843:
  5612  00414C  C008  FFD9         	movff	strncmp@l,fsr2l
  5613  004150  C009  FFDA         	movff	strncmp@l+1,fsr2h
  5614  004154  50DF               	movf	indf2,w,c
  5615  004156  6E07               	movwf	??_strncmp^0,c
  5616  004158  C00A  FFF6         	movff	strncmp@r,tblptrl
  5617  00415C  C00B  FFF7         	movff	strncmp@r+1,tblptrh
  5618  004160                     	if	0	;tblptru may be non-zero
  5619  004160                     	endif
  5620  004160                     	if	0	;tblptru may be non-zero
  5621  004160                     	endif
  5622  004160  0008               	tblrd		*
  5623  004162  50F5               	movf	tablat,w,c
  5624  004164  5C07               	subwf	??_strncmp^0,w,c
  5625  004166  6E01               	movwf	?_strncmp^0,c
  5626  004168  6A02               	clrf	(?_strncmp+1)^0,c
  5627  00416A  A0D8               	btfss	status,0,c
  5628  00416C  0602               	decf	(?_strncmp+1)^0,f,c
  5629  00416E                     i2l1337:
  5630  00416E  0012               	return		;funcret
  5631  004170                     __end_of_strncmp:
  5632                           	opt callstack 0
  5633                           
  5634 ;; *************** function _efgtoa *****************
  5635 ;; Defined at:
  5636 ;;		line 319 in file "/opt/microchip/xc8/v2.10/pic/sources/c99/common/doprnt.c"
  5637 ;; Parameters:    Size  Location     Type
  5638 ;;  fp              2   62[COMRAM] PTR struct _IO_FILE
  5639 ;;		 -> sprintf@f(6), 
  5640 ;;  f               4   64[COMRAM] PTR struct _IO_FILE
  5641 ;;  c               1   68[COMRAM] unsigned char 
  5642 ;; Auto vars:     Size  Location     Type
  5643 ;;  u               4   52[BANK0 ] unsigned char 
  5644 ;;  g               4   44[BANK0 ] unsigned char 
  5645 ;;  l               4   38[BANK0 ] unsigned char 
  5646 ;;  h               4   34[BANK0 ] unsigned char 
  5647 ;;  ou              4    0[BANK0 ] unsigned char 
  5648 ;;  n               2   50[BANK0 ] int 
  5649 ;;  e               2   48[BANK0 ] int 
  5650 ;;  i               2   42[BANK0 ] int 
  5651 ;;  w               2   31[BANK0 ] int 
  5652 ;;  p               2   28[BANK0 ] int 
  5653 ;;  sign            2   26[BANK0 ] int 
  5654 ;;  d               2   24[BANK0 ] int 
  5655 ;;  ne              2   22[BANK0 ] int 
  5656 ;;  m               2   20[BANK0 ] int 
  5657 ;;  pp              2   18[BANK0 ] int 
  5658 ;;  t               2   16[BANK0 ] int 
  5659 ;;  mode            1   33[BANK0 ] unsigned char 
  5660 ;;  nmode           1   30[BANK0 ] unsigned char 
  5661 ;; Return value:  Size  Location     Type
  5662 ;;                  2   62[COMRAM] int 
  5663 ;; Registers used:
  5664 ;;		wreg, fsr1l, fsr1h, fsr2l, fsr2h, status,2, status,0, tblptrl, tblptrh, tblptru, prodl, prodh, cstack
  5665 ;; Tracked objects:
  5666 ;;		On entry : 0/0
  5667 ;;		On exit  : 0/0
  5668 ;;		Unchanged: 0/0
  5669 ;; Data sizes:     COMRAM   BANK0   BANK1   BANK2   BANK3   BANK4   BANK5   BANK6   BANK7
  5670 ;;      Params:         7       0       0       0       0       0       0       0       0
  5671 ;;      Locals:         0      56       0       0       0       0       0       0       0
  5672 ;;      Temps:          5       0       0       0       0       0       0       0       0
  5673 ;;      Totals:        12      56       0       0       0       0       0       0       0
  5674 ;;Total ram usage:       68 bytes
  5675 ;; Hardware stack levels used:    1
  5676 ;; Hardware stack levels required when called:    4
  5677 ;; This function calls:
  5678 ;;		___awdiv
  5679 ;;		___awmod
  5680 ;;		___fladd
  5681 ;;		___fldiv
  5682 ;;		___fleq
  5683 ;;		___flge
  5684 ;;		___flmul
  5685 ;;		___flneg
  5686 ;;		___flsub
  5687 ;;		___fltol
  5688 ;;		___fpclassifyf
  5689 ;;		_floorf
  5690 ;;		_isupper
  5691 ;;		_pad
  5692 ;;		_strcpy
  5693 ;;		_tolower
  5694 ;; This function is called by:
  5695 ;;		_vfpfcnvrt
  5696 ;; This function uses a non-reentrant model
  5697 ;;
  5698                           
  5699                           	psect	text26
  5700  000836                     __ptext26:
  5701                           	opt callstack 0
  5702  000836                     _efgtoa:
  5703                           	opt callstack 17
  5704  000836                     
  5705                           ;/opt/microchip/xc8/v2.10/pic/sources/c99/common/doprnt.c: 319: static int efgtoa(FILE *
      +                          fp, long double f, char c);/opt/microchip/xc8/v2.10/pic/sources/c99/common/doprnt.c: 320
      +                          : {;/opt/microchip/xc8/v2.10/pic/sources/c99/common/doprnt.c: 321:     char mode, nmode;
      +                          ;/opt/microchip/xc8/v2.10/pic/sources/c99/common/doprnt.c: 322:     int d, e, i, m, n, n
      +                          e, p, pp, sign, t, w;;/opt/microchip/xc8/v2.10/pic/sources/c99/common/doprnt.c: 323:    
      +                           long double g, h, l, ou, u;;/opt/microchip/xc8/v2.10/pic/sources/c99/common/doprnt.c: 3
      +                          26:     sign = 0;
  5706  000836  0E00               	movlw	0
  5707  000838  0100               	movlb	0	; () banked
  5708  00083A  6F7B               	movwf	(efgtoa@sign+1)& (0+255),b
  5709  00083C  0E00               	movlw	0
  5710  00083E  6F7A               	movwf	efgtoa@sign& (0+255),b
  5711  000840                     
  5712                           ; BSR set to: 0
  5713                           ;/opt/microchip/xc8/v2.10/pic/sources/c99/common/doprnt.c: 327:     g = f;
  5714  000840  C041  F08C         	movff	efgtoa@f,efgtoa@g
  5715  000844  C042  F08D         	movff	efgtoa@f+1,efgtoa@g+1
  5716  000848  C043  F08E         	movff	efgtoa@f+2,efgtoa@g+2
  5717  00084C  C044  F08F         	movff	efgtoa@f+3,efgtoa@g+3
  5718  000850                     
  5719                           ; BSR set to: 0
  5720                           ;/opt/microchip/xc8/v2.10/pic/sources/c99/common/doprnt.c: 328:     if (g < 0.0) {
  5721  000850  BF8F               	btfsc	(efgtoa@g+3)& (0+255),7,b
  5722  000852  EF2F  F004         	goto	i2u522_40
  5723  000856  EF2D  F004         	goto	i2u522_41
  5724  00085A                     i2u522_41:
  5725  00085A  EF45  F004         	goto	i2l4497
  5726  00085E                     i2u522_40:
  5727  00085E                     
  5728                           ; BSR set to: 0
  5729                           ;/opt/microchip/xc8/v2.10/pic/sources/c99/common/doprnt.c: 329:         sign = 1;
  5730  00085E  0E00               	movlw	0
  5731  000860  6F7B               	movwf	(efgtoa@sign+1)& (0+255),b
  5732  000862  0E01               	movlw	1
  5733  000864  6F7A               	movwf	efgtoa@sign& (0+255),b
  5734  000866                     
  5735                           ; BSR set to: 0
  5736                           ;/opt/microchip/xc8/v2.10/pic/sources/c99/common/doprnt.c: 330:         g = -g;
  5737  000866  C08C  F001         	movff	efgtoa@g,___flneg@f1
  5738  00086A  C08D  F002         	movff	efgtoa@g+1,___flneg@f1+1
  5739  00086E  C08E  F003         	movff	efgtoa@g+2,___flneg@f1+2
  5740  000872  C08F  F004         	movff	efgtoa@g+3,___flneg@f1+3
  5741  000876  EC0F  F027         	call	___flneg	;wreg free
  5742  00087A  C001  F08C         	movff	?___flneg,efgtoa@g
  5743  00087E  C002  F08D         	movff	?___flneg+1,efgtoa@g+1
  5744  000882  C003  F08E         	movff	?___flneg+2,efgtoa@g+2
  5745  000886  C004  F08F         	movff	?___flneg+3,efgtoa@g+3
  5746  00088A                     i2l4497:
  5747                           
  5748                           ;/opt/microchip/xc8/v2.10/pic/sources/c99/common/doprnt.c: 334:     n = 0;
  5749  00088A  0E00               	movlw	0
  5750  00088C  0100               	movlb	0	; () banked
  5751  00088E  6F93               	movwf	(efgtoa@n+1)& (0+255),b
  5752  000890  0E00               	movlw	0
  5753  000892  6F92               	movwf	efgtoa@n& (0+255),b
  5754  000894                     
  5755                           ; BSR set to: 0
  5756                           ;/opt/microchip/xc8/v2.10/pic/sources/c99/common/doprnt.c: 335:     w = width;
  5757  000894  C0F2  F07F         	movff	_width,efgtoa@w
  5758  000898  C0F3  F080         	movff	_width+1,efgtoa@w+1
  5759  00089C                     
  5760                           ; BSR set to: 0
  5761                           ;/opt/microchip/xc8/v2.10/pic/sources/c99/common/doprnt.c: 336:     if (sign || (flags &
      +                           (1 << 2))) {
  5762  00089C  517A               	movf	efgtoa@sign& (0+255),w,b
  5763  00089E  117B               	iorwf	(efgtoa@sign+1)& (0+255),w,b
  5764  0008A0  A4D8               	btfss	status,2,c
  5765  0008A2  EF55  F004         	goto	i2u523_41
  5766  0008A6  EF57  F004         	goto	i2u523_40
  5767  0008AA                     i2u523_41:
  5768  0008AA  EF5E  F004         	goto	i2l4505
  5769  0008AE                     i2u523_40:
  5770  0008AE                     
  5771                           ; BSR set to: 0
  5772  0008AE  A45D               	btfss	_flags^0,2,c
  5773  0008B0  EF5C  F004         	goto	i2u524_41
  5774  0008B4  EF5E  F004         	goto	i2u524_40
  5775  0008B8                     i2u524_41:
  5776  0008B8  EF78  F004         	goto	i2l4517
  5777  0008BC                     i2u524_40:
  5778  0008BC                     i2l4505:
  5779                           
  5780                           ; BSR set to: 0
  5781                           ;/opt/microchip/xc8/v2.10/pic/sources/c99/common/doprnt.c: 337:         dbuf[n] = sign ?
      +                           '-' : '+';
  5782  0008BC  517A               	movf	efgtoa@sign& (0+255),w,b
  5783  0008BE  117B               	iorwf	(efgtoa@sign+1)& (0+255),w,b
  5784  0008C0  A4D8               	btfss	status,2,c
  5785  0008C2  EF65  F004         	goto	i2u525_41
  5786  0008C6  EF67  F004         	goto	i2u525_40
  5787  0008CA                     i2u525_41:
  5788  0008CA  EF6D  F004         	goto	i2l4509
  5789  0008CE                     i2u525_40:
  5790  0008CE                     
  5791                           ; BSR set to: 0
  5792  0008CE  0E00               	movlw	0
  5793  0008D0  6F65               	movwf	(_efgtoa$984+1)& (0+255),b
  5794  0008D2  0E2B               	movlw	43
  5795  0008D4  6F64               	movwf	_efgtoa$984& (0+255),b
  5796  0008D6  EF71  F004         	goto	i2l4511
  5797  0008DA                     i2l4509:
  5798                           
  5799                           ; BSR set to: 0
  5800  0008DA  0E00               	movlw	0
  5801  0008DC  6F65               	movwf	(_efgtoa$984+1)& (0+255),b
  5802  0008DE  0E2D               	movlw	45
  5803  0008E0  6F64               	movwf	_efgtoa$984& (0+255),b
  5804  0008E2                     i2l4511:
  5805                           
  5806                           ; BSR set to: 0
  5807  0008E2  C064  F100         	movff	_efgtoa$984,_dbuf
  5808  0008E6                     
  5809                           ; BSR set to: 0
  5810                           ;/opt/microchip/xc8/v2.10/pic/sources/c99/common/doprnt.c: 338:         ++n;
  5811  0008E6  4B92               	infsnz	efgtoa@n& (0+255),f,b
  5812  0008E8  2B93               	incf	(efgtoa@n+1)& (0+255),f,b
  5813  0008EA                     
  5814                           ; BSR set to: 0
  5815                           ;/opt/microchip/xc8/v2.10/pic/sources/c99/common/doprnt.c: 339:         --w;
  5816  0008EA  077F               	decf	efgtoa@w& (0+255),f,b
  5817  0008EC  A0D8               	btfss	status,0,c
  5818  0008EE  0780               	decf	(efgtoa@w+1)& (0+255),f,b
  5819  0008F0                     i2l4517:
  5820                           
  5821                           ; BSR set to: 0
  5822                           ;/opt/microchip/xc8/v2.10/pic/sources/c99/common/doprnt.c: 344:         if ((0 ? isupper
      +                          ((int)c) : ((unsigned)((int)c)-'A') < 26)) {
  5823  0008F0  C08C  F001         	movff	efgtoa@g,___fpclassifyf@x
  5824  0008F4  C08D  F002         	movff	efgtoa@g+1,___fpclassifyf@x+1
  5825  0008F8  C08E  F003         	movff	efgtoa@g+2,___fpclassifyf@x+2
  5826  0008FC  C08F  F004         	movff	efgtoa@g+3,___fpclassifyf@x+3
  5827  000900  EC5D  F01F         	call	___fpclassifyf	;wreg free
  5828  000904  0401               	decf	?___fpclassifyf^0,w,c
  5829  000906  1002               	iorwf	(?___fpclassifyf+1)^0,w,c
  5830  000908  A4D8               	btfss	status,2,c
  5831  00090A  EF89  F004         	goto	i2u526_41
  5832  00090E  EF8B  F004         	goto	i2u526_40
  5833  000912                     i2u526_41:
  5834  000912  EFE2  F004         	goto	i2l4535
  5835  000916                     i2u526_40:
  5836  000916  0EBF               	movlw	191
  5837  000918  6E46               	movwf	??_efgtoa^0,c
  5838  00091A  0EFF               	movlw	255
  5839  00091C  6E47               	movwf	(??_efgtoa+1)^0,c
  5840  00091E  5045               	movf	efgtoa@c^0,w,c
  5841  000920  6E48               	movwf	(??_efgtoa+2)^0,c
  5842  000922  6A49               	clrf	(??_efgtoa+3)^0,c
  5843  000924  5046               	movf	??_efgtoa^0,w,c
  5844  000926  2648               	addwf	(??_efgtoa+2)^0,f,c
  5845  000928  5047               	movf	(??_efgtoa+1)^0,w,c
  5846  00092A  2249               	addwfc	(??_efgtoa+3)^0,f,c
  5847  00092C  5049               	movf	(??_efgtoa+3)^0,w,c
  5848  00092E  E10A               	bnz	i2u527_40
  5849  000930  0E1A               	movlw	26
  5850  000932  5C48               	subwf	(??_efgtoa+2)^0,w,c
  5851  000934  A0D8               	btfss	status,0,c
  5852  000936  EF9F  F004         	goto	i2u527_41
  5853  00093A  EFA2  F004         	goto	i2u527_40
  5854  00093E                     i2u527_41:
  5855  00093E  0E01               	movlw	1
  5856  000940  EFA3  F004         	goto	i2u528_40
  5857  000944                     i2u527_40:
  5858  000944  0E00               	movlw	0
  5859  000946                     i2u528_40:
  5860  000946  0100               	movlb	0	; () banked
  5861  000948  6F66               	movwf	_efgtoa$985& (0+255),b
  5862  00094A  6B67               	clrf	(_efgtoa$985+1)& (0+255),b
  5863  00094C                     
  5864                           ; BSR set to: 0
  5865  00094C  5166               	movf	_efgtoa$985& (0+255),w,b
  5866  00094E  1167               	iorwf	(_efgtoa$985+1)& (0+255),w,b
  5867  000950  B4D8               	btfsc	status,2,c
  5868  000952  EFAD  F004         	goto	i2u529_41
  5869  000956  EFAF  F004         	goto	i2u529_40
  5870  00095A                     i2u529_41:
  5871  00095A  EFBD  F004         	goto	i2l4527
  5872  00095E                     i2u529_40:
  5873  00095E                     
  5874                           ; BSR set to: 0
  5875                           ;/opt/microchip/xc8/v2.10/pic/sources/c99/common/doprnt.c: 345:             strcpy(&dbuf
      +                          [n], "INF");
  5876  00095E  0E00               	movlw	low _dbuf
  5877  000960  2592               	addwf	efgtoa@n& (0+255),w,b
  5878  000962  6E05               	movwf	strcpy@dest^0,c
  5879  000964  0E01               	movlw	high _dbuf
  5880  000966  2193               	addwfc	(efgtoa@n+1)& (0+255),w,b
  5881  000968  6E06               	movwf	(strcpy@dest+1)^0,c
  5882  00096A  0E1D               	movlw	low STR_6
  5883  00096C  6E07               	movwf	strcpy@src^0,c
  5884  00096E  0E08               	movlw	high STR_6
  5885  000970  6E08               	movwf	(strcpy@src+1)^0,c
  5886  000972  ECA8  F025         	call	_strcpy	;wreg free
  5887                           
  5888                           ;/opt/microchip/xc8/v2.10/pic/sources/c99/common/doprnt.c: 346:         } else {
  5889  000976  EFC9  F004         	goto	i2l4529
  5890  00097A                     i2l4527:
  5891                           
  5892                           ; BSR set to: 0
  5893                           ;/opt/microchip/xc8/v2.10/pic/sources/c99/common/doprnt.c: 347:             strcpy(&dbuf
      +                          [n], "inf");
  5894  00097A  0E00               	movlw	low _dbuf
  5895  00097C  2592               	addwf	efgtoa@n& (0+255),w,b
  5896  00097E  6E05               	movwf	strcpy@dest^0,c
  5897  000980  0E01               	movlw	high _dbuf
  5898  000982  2193               	addwfc	(efgtoa@n+1)& (0+255),w,b
  5899  000984  6E06               	movwf	(strcpy@dest+1)^0,c
  5900  000986  0E25               	movlw	low STR_7
  5901  000988  6E07               	movwf	strcpy@src^0,c
  5902  00098A  0E08               	movlw	high STR_7
  5903  00098C  6E08               	movwf	(strcpy@src+1)^0,c
  5904  00098E  ECA8  F025         	call	_strcpy	;wreg free
  5905  000992                     i2l4529:
  5906                           
  5907                           ;/opt/microchip/xc8/v2.10/pic/sources/c99/common/doprnt.c: 349:         w -= ((sizeof("i
      +                          nf")/sizeof("inf"[0]))-1);
  5908  000992  0100               	movlb	0	; () banked
  5909  000994  0EFD               	movlw	253
  5910  000996  277F               	addwf	efgtoa@w& (0+255),f,b
  5911  000998  0EFF               	movlw	255
  5912  00099A  2380               	addwfc	(efgtoa@w+1)& (0+255),f,b
  5913  00099C                     i2l4531:
  5914                           
  5915                           ;/opt/microchip/xc8/v2.10/pic/sources/c99/common/doprnt.c: 350:         return pad(fp, &
      +                          dbuf[0], w);
  5916  00099C  C03F  F011         	movff	efgtoa@fp,pad@fp
  5917  0009A0  C040  F012         	movff	efgtoa@fp+1,pad@fp+1
  5918  0009A4  0E00               	movlw	low _dbuf
  5919  0009A6  6E13               	movwf	pad@buf^0,c
  5920  0009A8  0E01               	movlw	high _dbuf
  5921  0009AA  6E14               	movwf	(pad@buf+1)^0,c
  5922  0009AC  C07F  F015         	movff	efgtoa@w,pad@p
  5923  0009B0  C080  F016         	movff	efgtoa@w+1,pad@p+1
  5924  0009B4  EC48  F022         	call	_pad	;wreg free
  5925  0009B8  C011  F03F         	movff	?_pad,?_efgtoa
  5926  0009BC  C012  F040         	movff	?_pad+1,?_efgtoa+1
  5927  0009C0  EFF3  F009         	goto	i2l421
  5928  0009C4                     i2l4535:
  5929                           
  5930                           ;/opt/microchip/xc8/v2.10/pic/sources/c99/common/doprnt.c: 353:         if ((0 ? isupper
      +                          ((int)c) : ((unsigned)((int)c)-'A') < 26)) {
  5931  0009C4  C08C  F001         	movff	efgtoa@g,___fpclassifyf@x
  5932  0009C8  C08D  F002         	movff	efgtoa@g+1,___fpclassifyf@x+1
  5933  0009CC  C08E  F003         	movff	efgtoa@g+2,___fpclassifyf@x+2
  5934  0009D0  C08F  F004         	movff	efgtoa@g+3,___fpclassifyf@x+3
  5935  0009D4  EC5D  F01F         	call	___fpclassifyf	;wreg free
  5936  0009D8  5001               	movf	?___fpclassifyf^0,w,c
  5937  0009DA  1002               	iorwf	(?___fpclassifyf+1)^0,w,c
  5938  0009DC  A4D8               	btfss	status,2,c
  5939  0009DE  EFF3  F004         	goto	i2u530_41
  5940  0009E2  EFF5  F004         	goto	i2u530_40
  5941  0009E6                     i2u530_41:
  5942  0009E6  EF35  F005         	goto	i2l4553
  5943  0009EA                     i2u530_40:
  5944  0009EA  0EBF               	movlw	191
  5945  0009EC  6E46               	movwf	??_efgtoa^0,c
  5946  0009EE  0EFF               	movlw	255
  5947  0009F0  6E47               	movwf	(??_efgtoa+1)^0,c
  5948  0009F2  5045               	movf	efgtoa@c^0,w,c
  5949  0009F4  6E48               	movwf	(??_efgtoa+2)^0,c
  5950  0009F6  6A49               	clrf	(??_efgtoa+3)^0,c
  5951  0009F8  5046               	movf	??_efgtoa^0,w,c
  5952  0009FA  2648               	addwf	(??_efgtoa+2)^0,f,c
  5953  0009FC  5047               	movf	(??_efgtoa+1)^0,w,c
  5954  0009FE  2249               	addwfc	(??_efgtoa+3)^0,f,c
  5955  000A00  5049               	movf	(??_efgtoa+3)^0,w,c
  5956  000A02  E10A               	bnz	i2u531_40
  5957  000A04  0E1A               	movlw	26
  5958  000A06  5C48               	subwf	(??_efgtoa+2)^0,w,c
  5959  000A08  A0D8               	btfss	status,0,c
  5960  000A0A  EF09  F005         	goto	i2u531_41
  5961  000A0E  EF0C  F005         	goto	i2u531_40
  5962  000A12                     i2u531_41:
  5963  000A12  0E01               	movlw	1
  5964  000A14  EF0D  F005         	goto	i2u532_40
  5965  000A18                     i2u531_40:
  5966  000A18  0E00               	movlw	0
  5967  000A1A                     i2u532_40:
  5968  000A1A  0100               	movlb	0	; () banked
  5969  000A1C  6F68               	movwf	_efgtoa$989& (0+255),b
  5970  000A1E  6B69               	clrf	(_efgtoa$989+1)& (0+255),b
  5971  000A20                     
  5972                           ; BSR set to: 0
  5973  000A20  5168               	movf	_efgtoa$989& (0+255),w,b
  5974  000A22  1169               	iorwf	(_efgtoa$989+1)& (0+255),w,b
  5975  000A24  B4D8               	btfsc	status,2,c
  5976  000A26  EF17  F005         	goto	i2u533_41
  5977  000A2A  EF19  F005         	goto	i2u533_40
  5978  000A2E                     i2u533_41:
  5979  000A2E  EF27  F005         	goto	i2l4545
  5980  000A32                     i2u533_40:
  5981  000A32                     
  5982                           ; BSR set to: 0
  5983                           ;/opt/microchip/xc8/v2.10/pic/sources/c99/common/doprnt.c: 354:             strcpy(&dbuf
      +                          [n], "NAN");
  5984  000A32  0E00               	movlw	low _dbuf
  5985  000A34  2592               	addwf	efgtoa@n& (0+255),w,b
  5986  000A36  6E05               	movwf	strcpy@dest^0,c
  5987  000A38  0E01               	movlw	high _dbuf
  5988  000A3A  2193               	addwfc	(efgtoa@n+1)& (0+255),w,b
  5989  000A3C  6E06               	movwf	(strcpy@dest+1)^0,c
  5990  000A3E  0E21               	movlw	low STR_10
  5991  000A40  6E07               	movwf	strcpy@src^0,c
  5992  000A42  0E08               	movlw	high STR_10
  5993  000A44  6E08               	movwf	(strcpy@src+1)^0,c
  5994  000A46  ECA8  F025         	call	_strcpy	;wreg free
  5995                           
  5996                           ;/opt/microchip/xc8/v2.10/pic/sources/c99/common/doprnt.c: 355:         } else {
  5997  000A4A  EFC9  F004         	goto	i2l4529
  5998  000A4E                     i2l4545:
  5999                           
  6000                           ; BSR set to: 0
  6001                           ;/opt/microchip/xc8/v2.10/pic/sources/c99/common/doprnt.c: 356:             strcpy(&dbuf
      +                          [n], "nan");
  6002  000A4E  0E00               	movlw	low _dbuf
  6003  000A50  2592               	addwf	efgtoa@n& (0+255),w,b
  6004  000A52  6E05               	movwf	strcpy@dest^0,c
  6005  000A54  0E01               	movlw	high _dbuf
  6006  000A56  2193               	addwfc	(efgtoa@n+1)& (0+255),w,b
  6007  000A58  6E06               	movwf	(strcpy@dest+1)^0,c
  6008  000A5A  0E29               	movlw	low STR_11
  6009  000A5C  6E07               	movwf	strcpy@src^0,c
  6010  000A5E  0E08               	movlw	high STR_11
  6011  000A60  6E08               	movwf	(strcpy@src+1)^0,c
  6012  000A62  ECA8  F025         	call	_strcpy	;wreg free
  6013  000A66  EFC9  F004         	goto	i2l4529
  6014  000A6A                     i2l4553:
  6015                           
  6016                           ;/opt/microchip/xc8/v2.10/pic/sources/c99/common/doprnt.c: 363:     u = 1.0;
  6017  000A6A  0E00               	movlw	0
  6018  000A6C  0100               	movlb	0	; () banked
  6019  000A6E  6F94               	movwf	efgtoa@u& (0+255),b
  6020  000A70  0E00               	movlw	0
  6021  000A72  6F95               	movwf	(efgtoa@u+1)& (0+255),b
  6022  000A74  0E80               	movlw	128
  6023  000A76  6F96               	movwf	(efgtoa@u+2)& (0+255),b
  6024  000A78  0E3F               	movlw	63
  6025  000A7A  6F97               	movwf	(efgtoa@u+3)& (0+255),b
  6026                           
  6027                           ;/opt/microchip/xc8/v2.10/pic/sources/c99/common/doprnt.c: 364:     e = 0;
  6028  000A7C  0E00               	movlw	0
  6029  000A7E  6F91               	movwf	(efgtoa@e+1)& (0+255),b
  6030  000A80  0E00               	movlw	0
  6031  000A82  6F90               	movwf	efgtoa@e& (0+255),b
  6032  000A84                     
  6033                           ; BSR set to: 0
  6034                           ;/opt/microchip/xc8/v2.10/pic/sources/c99/common/doprnt.c: 365:     if (!(g == 0.0)) {
  6035  000A84  C08C  F001         	movff	efgtoa@g,___fleq@ff1
  6036  000A88  C08D  F002         	movff	efgtoa@g+1,___fleq@ff1+1
  6037  000A8C  C08E  F003         	movff	efgtoa@g+2,___fleq@ff1+2
  6038  000A90  C08F  F004         	movff	efgtoa@g+3,___fleq@ff1+3
  6039  000A94  0E00               	movlw	0
  6040  000A96  6E05               	movwf	___fleq@ff2^0,c
  6041  000A98  0E00               	movlw	0
  6042  000A9A  6E06               	movwf	(___fleq@ff2+1)^0,c
  6043  000A9C  0E00               	movlw	0
  6044  000A9E  6E07               	movwf	(___fleq@ff2+2)^0,c
  6045  000AA0  0E00               	movlw	0
  6046  000AA2  6E08               	movwf	(___fleq@ff2+3)^0,c
  6047  000AA4  EC59  F023         	call	___fleq	;wreg free
  6048  000AA8  B0D8               	btfsc	status,0,c
  6049  000AAA  EF59  F005         	goto	i2u534_41
  6050  000AAE  EF5B  F005         	goto	i2u534_40
  6051  000AB2                     i2u534_41:
  6052  000AB2  EFDE  F005         	goto	i2l4571
  6053  000AB6                     i2u534_40:
  6054  000AB6  EF7A  F005         	goto	i2l4563
  6055  000ABA                     i2l4559:
  6056                           
  6057                           ;/opt/microchip/xc8/v2.10/pic/sources/c99/common/doprnt.c: 367:             u = u*10.0;
  6058  000ABA  C094  F01A         	movff	efgtoa@u,___flmul@b
  6059  000ABE  C095  F01B         	movff	efgtoa@u+1,___flmul@b+1
  6060  000AC2  C096  F01C         	movff	efgtoa@u+2,___flmul@b+2
  6061  000AC6  C097  F01D         	movff	efgtoa@u+3,___flmul@b+3
  6062  000ACA  0E00               	movlw	0
  6063  000ACC  6E1E               	movwf	___flmul@a^0,c
  6064  000ACE  0E00               	movlw	0
  6065  000AD0  6E1F               	movwf	(___flmul@a+1)^0,c
  6066  000AD2  0E20               	movlw	32
  6067  000AD4  6E20               	movwf	(___flmul@a+2)^0,c
  6068  000AD6  0E41               	movlw	65
  6069  000AD8  6E21               	movwf	(___flmul@a+3)^0,c
  6070  000ADA  ECED  F00E         	call	___flmul	;wreg free
  6071  000ADE  C01A  F094         	movff	?___flmul,efgtoa@u
  6072  000AE2  C01B  F095         	movff	?___flmul+1,efgtoa@u+1
  6073  000AE6  C01C  F096         	movff	?___flmul+2,efgtoa@u+2
  6074  000AEA  C01D  F097         	movff	?___flmul+3,efgtoa@u+3
  6075  000AEE                     
  6076                           ;/opt/microchip/xc8/v2.10/pic/sources/c99/common/doprnt.c: 368:             ++e;
  6077  000AEE  0100               	movlb	0	; () banked
  6078  000AF0  4B90               	infsnz	efgtoa@e& (0+255),f,b
  6079  000AF2  2B91               	incf	(efgtoa@e+1)& (0+255),f,b
  6080  000AF4                     i2l4563:
  6081                           
  6082                           ;/opt/microchip/xc8/v2.10/pic/sources/c99/common/doprnt.c: 366:         while (!(g < (u*
      +                          10.0))) {
  6083  000AF4  C08C  F033         	movff	efgtoa@g,___flge@ff1
  6084  000AF8  C08D  F034         	movff	efgtoa@g+1,___flge@ff1+1
  6085  000AFC  C08E  F035         	movff	efgtoa@g+2,___flge@ff1+2
  6086  000B00  C08F  F036         	movff	efgtoa@g+3,___flge@ff1+3
  6087  000B04  0E00               	movlw	0
  6088  000B06  6E1E               	movwf	___flmul@a^0,c
  6089  000B08  0E00               	movlw	0
  6090  000B0A  6E1F               	movwf	(___flmul@a+1)^0,c
  6091  000B0C  0E20               	movlw	32
  6092  000B0E  6E20               	movwf	(___flmul@a+2)^0,c
  6093  000B10  0E41               	movlw	65
  6094  000B12  6E21               	movwf	(___flmul@a+3)^0,c
  6095  000B14  C094  F01A         	movff	efgtoa@u,___flmul@b
  6096  000B18  C095  F01B         	movff	efgtoa@u+1,___flmul@b+1
  6097  000B1C  C096  F01C         	movff	efgtoa@u+2,___flmul@b+2
  6098  000B20  C097  F01D         	movff	efgtoa@u+3,___flmul@b+3
  6099  000B24  ECED  F00E         	call	___flmul	;wreg free
  6100  000B28  C01A  F037         	movff	?___flmul,___flge@ff2
  6101  000B2C  C01B  F038         	movff	?___flmul+1,___flge@ff2+1
  6102  000B30  C01C  F039         	movff	?___flmul+2,___flge@ff2+2
  6103  000B34  C01D  F03A         	movff	?___flmul+3,___flge@ff2+3
  6104  000B38  ECDB  F01E         	call	___flge	;wreg free
  6105  000B3C  B0D8               	btfsc	status,0,c
  6106  000B3E  EFA3  F005         	goto	i2u535_41
  6107  000B42  EFA5  F005         	goto	i2u535_40
  6108  000B46                     i2u535_41:
  6109  000B46  EF5D  F005         	goto	i2l4559
  6110  000B4A                     i2u535_40:
  6111  000B4A  EFC5  F005         	goto	i2l4569
  6112  000B4E                     i2l4565:
  6113                           
  6114                           ;/opt/microchip/xc8/v2.10/pic/sources/c99/common/doprnt.c: 371:             u = u/10.0;
  6115  000B4E  C094  F001         	movff	efgtoa@u,___fldiv@b
  6116  000B52  C095  F002         	movff	efgtoa@u+1,___fldiv@b+1
  6117  000B56  C096  F003         	movff	efgtoa@u+2,___fldiv@b+2
  6118  000B5A  C097  F004         	movff	efgtoa@u+3,___fldiv@b+3
  6119  000B5E  0E00               	movlw	0
  6120  000B60  6E05               	movwf	___fldiv@a^0,c
  6121  000B62  0E00               	movlw	0
  6122  000B64  6E06               	movwf	(___fldiv@a+1)^0,c
  6123  000B66  0E20               	movlw	32
  6124  000B68  6E07               	movwf	(___fldiv@a+2)^0,c
  6125  000B6A  0E41               	movlw	65
  6126  000B6C  6E08               	movwf	(___fldiv@a+3)^0,c
  6127  000B6E  EC02  F011         	call	___fldiv	;wreg free
  6128  000B72  C001  F094         	movff	?___fldiv,efgtoa@u
  6129  000B76  C002  F095         	movff	?___fldiv+1,efgtoa@u+1
  6130  000B7A  C003  F096         	movff	?___fldiv+2,efgtoa@u+2
  6131  000B7E  C004  F097         	movff	?___fldiv+3,efgtoa@u+3
  6132  000B82                     
  6133                           ;/opt/microchip/xc8/v2.10/pic/sources/c99/common/doprnt.c: 372:             --e;
  6134  000B82  0100               	movlb	0	; () banked
  6135  000B84  0790               	decf	efgtoa@e& (0+255),f,b
  6136  000B86  A0D8               	btfss	status,0,c
  6137  000B88  0791               	decf	(efgtoa@e+1)& (0+255),f,b
  6138  000B8A                     i2l4569:
  6139                           
  6140                           ;/opt/microchip/xc8/v2.10/pic/sources/c99/common/doprnt.c: 370:         while (g < u) {
  6141  000B8A  C08C  F033         	movff	efgtoa@g,___flge@ff1
  6142  000B8E  C08D  F034         	movff	efgtoa@g+1,___flge@ff1+1
  6143  000B92  C08E  F035         	movff	efgtoa@g+2,___flge@ff1+2
  6144  000B96  C08F  F036         	movff	efgtoa@g+3,___flge@ff1+3
  6145  000B9A  C094  F037         	movff	efgtoa@u,___flge@ff2
  6146  000B9E  C095  F038         	movff	efgtoa@u+1,___flge@ff2+1
  6147  000BA2  C096  F039         	movff	efgtoa@u+2,___flge@ff2+2
  6148  000BA6  C097  F03A         	movff	efgtoa@u+3,___flge@ff2+3
  6149  000BAA  ECDB  F01E         	call	___flge	;wreg free
  6150  000BAE  A0D8               	btfss	status,0,c
  6151  000BB0  EFDC  F005         	goto	i2u536_41
  6152  000BB4  EFDE  F005         	goto	i2u536_40
  6153  000BB8                     i2u536_41:
  6154  000BB8  EFA7  F005         	goto	i2l4565
  6155  000BBC                     i2u536_40:
  6156  000BBC                     i2l4571:
  6157                           
  6158                           ;/opt/microchip/xc8/v2.10/pic/sources/c99/common/doprnt.c: 377:     mode = tolower((int)
      +                          c);
  6159  000BBC  C045  F007         	movff	efgtoa@c,tolower@c
  6160  000BC0  6A08               	clrf	(tolower@c+1)^0,c
  6161  000BC2  EC78  F025         	call	_tolower	;wreg free
  6162  000BC6  5007               	movf	?_tolower^0,w,c
  6163  000BC8  0100               	movlb	0	; () banked
  6164  000BCA  6F81               	movwf	efgtoa@mode& (0+255),b
  6165  000BCC                     
  6166                           ; BSR set to: 0
  6167                           ;/opt/microchip/xc8/v2.10/pic/sources/c99/common/doprnt.c: 378:     nmode = mode;
  6168  000BCC  C081  F07E         	movff	efgtoa@mode,efgtoa@nmode
  6169  000BD0                     
  6170                           ; BSR set to: 0
  6171                           ;/opt/microchip/xc8/v2.10/pic/sources/c99/common/doprnt.c: 379:     if (mode == 'g') {
  6172  000BD0  0E67               	movlw	103
  6173  000BD2  1981               	xorwf	efgtoa@mode& (0+255),w,b
  6174  000BD4  A4D8               	btfss	status,2,c
  6175  000BD6  EFEF  F005         	goto	i2u537_41
  6176  000BDA  EFF1  F005         	goto	i2u537_40
  6177  000BDE                     i2u537_41:
  6178  000BDE  EF17  F006         	goto	i2l4585
  6179  000BE2                     i2u537_40:
  6180  000BE2                     
  6181                           ; BSR set to: 0
  6182                           ;/opt/microchip/xc8/v2.10/pic/sources/c99/common/doprnt.c: 380:   if (prec == 0) {
  6183  000BE2  51F4               	movf	_prec& (0+255),w,b
  6184  000BE4  11F5               	iorwf	(_prec+1)& (0+255),w,b
  6185  000BE6  A4D8               	btfss	status,2,c
  6186  000BE8  EFF8  F005         	goto	i2u538_41
  6187  000BEC  EFFA  F005         	goto	i2u538_40
  6188  000BF0                     i2u538_41:
  6189  000BF0  EFFE  F005         	goto	i2l4581
  6190  000BF4                     i2u538_40:
  6191  000BF4                     
  6192                           ; BSR set to: 0
  6193                           ;/opt/microchip/xc8/v2.10/pic/sources/c99/common/doprnt.c: 381:    prec = 1;
  6194  000BF4  0E00               	movlw	0
  6195  000BF6  6FF5               	movwf	(_prec+1)& (0+255),b
  6196  000BF8  0E01               	movlw	1
  6197  000BFA  6FF4               	movwf	_prec& (0+255),b
  6198  000BFC                     i2l4581:
  6199                           
  6200                           ; BSR set to: 0
  6201                           ;/opt/microchip/xc8/v2.10/pic/sources/c99/common/doprnt.c: 383:         p = (0 < prec) ?
      +                           prec : 6;
  6202  000BFC  BFF5               	btfsc	(_prec+1)& (0+255),7,b
  6203  000BFE  EF0B  F006         	goto	i2u539_40
  6204  000C02  51F5               	movf	(_prec+1)& (0+255),w,b
  6205  000C04  E106               	bnz	i2u539_41
  6206  000C06  05F4               	decf	_prec& (0+255),w,b
  6207  000C08  B0D8               	btfsc	status,0,c
  6208  000C0A  EF09  F006         	goto	i2u539_41
  6209  000C0E  EF0B  F006         	goto	i2u539_40
  6210  000C12                     i2u539_41:
  6211  000C12  EF11  F006         	goto	i2l439
  6212  000C16                     i2u539_40:
  6213  000C16                     i2l4583:
  6214                           
  6215                           ; BSR set to: 0
  6216  000C16  0E00               	movlw	0
  6217  000C18  6F7D               	movwf	(efgtoa@p+1)& (0+255),b
  6218  000C1A  0E06               	movlw	6
  6219  000C1C  6F7C               	movwf	efgtoa@p& (0+255),b
  6220  000C1E  EF20  F006         	goto	i2l4591
  6221  000C22                     i2l439:
  6222                           
  6223                           ; BSR set to: 0
  6224  000C22  C0F4  F07C         	movff	_prec,efgtoa@p
  6225  000C26  C0F5  F07D         	movff	_prec+1,efgtoa@p+1
  6226  000C2A  EF20  F006         	goto	i2l4591
  6227  000C2E                     i2l4585:
  6228                           
  6229                           ; BSR set to: 0
  6230                           ;/opt/microchip/xc8/v2.10/pic/sources/c99/common/doprnt.c: 385:         p = (prec < 0) ?
      +                           6 : prec;
  6231  000C2E  BFF5               	btfsc	(_prec+1)& (0+255),7,b
  6232  000C30  EF1C  F006         	goto	i2u540_41
  6233  000C34  EF1E  F006         	goto	i2u540_40
  6234  000C38                     i2u540_41:
  6235  000C38  EF0B  F006         	goto	i2l4583
  6236  000C3C                     i2u540_40:
  6237  000C3C  EF11  F006         	goto	i2l439
  6238  000C40                     i2l4591:
  6239                           
  6240                           ; BSR set to: 0
  6241                           ;/opt/microchip/xc8/v2.10/pic/sources/c99/common/doprnt.c: 389:     if (mode == 'g') {
  6242  000C40  0E67               	movlw	103
  6243  000C42  1981               	xorwf	efgtoa@mode& (0+255),w,b
  6244  000C44  A4D8               	btfss	status,2,c
  6245  000C46  EF27  F006         	goto	i2u541_41
  6246  000C4A  EF29  F006         	goto	i2u541_40
  6247  000C4E                     i2u541_41:
  6248  000C4E  EF58  F006         	goto	i2l4601
  6249  000C52                     i2u541_40:
  6250  000C52                     
  6251                           ; BSR set to: 0
  6252                           ;/opt/microchip/xc8/v2.10/pic/sources/c99/common/doprnt.c: 390:         if (!(e < -4) &&
      +                           !((p - 1) < e)) {
  6253  000C52  AF91               	btfss	(efgtoa@e+1)& (0+255),7,b
  6254  000C54  EF37  F006         	goto	i2u542_40
  6255  000C58  0EFC               	movlw	252
  6256  000C5A  5D90               	subwf	efgtoa@e& (0+255),w,b
  6257  000C5C  0EFF               	movlw	255
  6258  000C5E  5991               	subwfb	(efgtoa@e+1)& (0+255),w,b
  6259  000C60  A0D8               	btfss	status,0,c
  6260  000C62  EF35  F006         	goto	i2u542_41
  6261  000C66  EF37  F006         	goto	i2u542_40
  6262  000C6A                     i2u542_41:
  6263  000C6A  EF56  F006         	goto	i2l4599
  6264  000C6E                     i2u542_40:
  6265  000C6E                     
  6266                           ; BSR set to: 0
  6267  000C6E  0EFF               	movlw	255
  6268  000C70  6E46               	movwf	??_efgtoa^0,c
  6269  000C72  0EFF               	movlw	255
  6270  000C74  6E47               	movwf	(??_efgtoa+1)^0,c
  6271  000C76  C07C  F048         	movff	efgtoa@p,??_efgtoa+2
  6272  000C7A  C07D  F049         	movff	efgtoa@p+1,??_efgtoa+3
  6273  000C7E  5046               	movf	??_efgtoa^0,w,c
  6274  000C80  2648               	addwf	(??_efgtoa+2)^0,f,c
  6275  000C82  5047               	movf	(??_efgtoa+1)^0,w,c
  6276  000C84  2249               	addwfc	(??_efgtoa+3)^0,f,c
  6277  000C86  5190               	movf	efgtoa@e& (0+255),w,b
  6278  000C88  5C48               	subwf	(??_efgtoa+2)^0,w,c
  6279  000C8A  5049               	movf	(??_efgtoa+3)^0,w,c
  6280  000C8C  0A80               	xorlw	128
  6281  000C8E  6E4A               	movwf	(??_efgtoa+4)^0,c
  6282  000C90  5191               	movf	(efgtoa@e+1)& (0+255),w,b
  6283  000C92  0A80               	xorlw	128
  6284  000C94  584A               	subwfb	(??_efgtoa+4)^0,w,c
  6285  000C96  A0D8               	btfss	status,0,c
  6286  000C98  EF50  F006         	goto	i2u543_41
  6287  000C9C  EF52  F006         	goto	i2u543_40
  6288  000CA0                     i2u543_41:
  6289  000CA0  EF56  F006         	goto	i2l4599
  6290  000CA4                     i2u543_40:
  6291  000CA4                     
  6292                           ; BSR set to: 0
  6293                           ;/opt/microchip/xc8/v2.10/pic/sources/c99/common/doprnt.c: 391:             nmode = 'f';
  6294  000CA4  0E66               	movlw	102
  6295  000CA6  6F7E               	movwf	efgtoa@nmode& (0+255),b
  6296                           
  6297                           ;/opt/microchip/xc8/v2.10/pic/sources/c99/common/doprnt.c: 392:         } else {
  6298  000CA8  EF58  F006         	goto	i2l4601
  6299  000CAC                     i2l4599:
  6300                           
  6301                           ; BSR set to: 0
  6302                           ;/opt/microchip/xc8/v2.10/pic/sources/c99/common/doprnt.c: 393:             nmode = 'e';
  6303  000CAC  0E65               	movlw	101
  6304  000CAE  6F7E               	movwf	efgtoa@nmode& (0+255),b
  6305  000CB0                     i2l4601:
  6306                           
  6307                           ; BSR set to: 0
  6308                           ;/opt/microchip/xc8/v2.10/pic/sources/c99/common/doprnt.c: 398:     m = p;
  6309  000CB0  C07C  F074         	movff	efgtoa@p,efgtoa@m
  6310  000CB4  C07D  F075         	movff	efgtoa@p+1,efgtoa@m+1
  6311  000CB8                     
  6312                           ; BSR set to: 0
  6313                           ;/opt/microchip/xc8/v2.10/pic/sources/c99/common/doprnt.c: 399:     if (!(mode == 'g') |
      +                          | ((nmode == 'f') && (e < 0))) {
  6314  000CB8  0E67               	movlw	103
  6315  000CBA  1981               	xorwf	efgtoa@mode& (0+255),w,b
  6316  000CBC  A4D8               	btfss	status,2,c
  6317  000CBE  EF63  F006         	goto	i2u544_41
  6318  000CC2  EF65  F006         	goto	i2u544_40
  6319  000CC6                     i2u544_41:
  6320  000CC6  EF75  F006         	goto	i2l4609
  6321  000CCA                     i2u544_40:
  6322  000CCA                     
  6323                           ; BSR set to: 0
  6324  000CCA  0E66               	movlw	102
  6325  000CCC  197E               	xorwf	efgtoa@nmode& (0+255),w,b
  6326  000CCE  A4D8               	btfss	status,2,c
  6327  000CD0  EF6C  F006         	goto	i2u545_41
  6328  000CD4  EF6E  F006         	goto	i2u545_40
  6329  000CD8                     i2u545_41:
  6330  000CD8  EF77  F006         	goto	i2l4611
  6331  000CDC                     i2u545_40:
  6332  000CDC                     
  6333                           ; BSR set to: 0
  6334  000CDC  BF91               	btfsc	(efgtoa@e+1)& (0+255),7,b
  6335  000CDE  EF75  F006         	goto	i2u546_40
  6336  000CE2  EF73  F006         	goto	i2u546_41
  6337  000CE6                     i2u546_41:
  6338  000CE6  EF77  F006         	goto	i2l4611
  6339  000CEA                     i2u546_40:
  6340  000CEA                     i2l4609:
  6341                           
  6342                           ; BSR set to: 0
  6343                           ;/opt/microchip/xc8/v2.10/pic/sources/c99/common/doprnt.c: 400:         ++m;
  6344  000CEA  4B74               	infsnz	efgtoa@m& (0+255),f,b
  6345  000CEC  2B75               	incf	(efgtoa@m+1)& (0+255),f,b
  6346  000CEE                     i2l4611:
  6347                           
  6348                           ; BSR set to: 0
  6349                           ;/opt/microchip/xc8/v2.10/pic/sources/c99/common/doprnt.c: 404:     if (nmode == 'f') {
  6350  000CEE  0E66               	movlw	102
  6351  000CF0  197E               	xorwf	efgtoa@nmode& (0+255),w,b
  6352  000CF2  A4D8               	btfss	status,2,c
  6353  000CF4  EF7E  F006         	goto	i2u547_41
  6354  000CF8  EF80  F006         	goto	i2u547_40
  6355  000CFC                     i2u547_41:
  6356  000CFC  EFA0  F006         	goto	i2l4621
  6357  000D00                     i2u547_40:
  6358  000D00                     
  6359                           ; BSR set to: 0
  6360                           ;/opt/microchip/xc8/v2.10/pic/sources/c99/common/doprnt.c: 405:         if (e < 0) {
  6361  000D00  BF91               	btfsc	(efgtoa@e+1)& (0+255),7,b
  6362  000D02  EF87  F006         	goto	i2u548_40
  6363  000D06  EF85  F006         	goto	i2u548_41
  6364  000D0A                     i2u548_41:
  6365  000D0A  EF93  F006         	goto	i2l4617
  6366  000D0E                     i2u548_40:
  6367  000D0E                     
  6368                           ; BSR set to: 0
  6369                           ;/opt/microchip/xc8/v2.10/pic/sources/c99/common/doprnt.c: 406:             u = 1.0;
  6370  000D0E  0E00               	movlw	0
  6371  000D10  6F94               	movwf	efgtoa@u& (0+255),b
  6372  000D12  0E00               	movlw	0
  6373  000D14  6F95               	movwf	(efgtoa@u+1)& (0+255),b
  6374  000D16  0E80               	movlw	128
  6375  000D18  6F96               	movwf	(efgtoa@u+2)& (0+255),b
  6376  000D1A  0E3F               	movlw	63
  6377  000D1C  6F97               	movwf	(efgtoa@u+3)& (0+255),b
  6378                           
  6379                           ;/opt/microchip/xc8/v2.10/pic/sources/c99/common/doprnt.c: 407:             e = 0;
  6380  000D1E  0E00               	movlw	0
  6381  000D20  6F91               	movwf	(efgtoa@e+1)& (0+255),b
  6382  000D22  0E00               	movlw	0
  6383  000D24  6F90               	movwf	efgtoa@e& (0+255),b
  6384  000D26                     i2l4617:
  6385                           
  6386                           ; BSR set to: 0
  6387                           ;/opt/microchip/xc8/v2.10/pic/sources/c99/common/doprnt.c: 409:         if (!(mode == 'g
      +                          ')) {
  6388  000D26  0E67               	movlw	103
  6389  000D28  1981               	xorwf	efgtoa@mode& (0+255),w,b
  6390  000D2A  B4D8               	btfsc	status,2,c
  6391  000D2C  EF9A  F006         	goto	i2u549_41
  6392  000D30  EF9C  F006         	goto	i2u549_40
  6393  000D34                     i2u549_41:
  6394  000D34  EFA0  F006         	goto	i2l4621
  6395  000D38                     i2u549_40:
  6396  000D38                     
  6397                           ; BSR set to: 0
  6398                           ;/opt/microchip/xc8/v2.10/pic/sources/c99/common/doprnt.c: 410:             m += e;
  6399  000D38  5190               	movf	efgtoa@e& (0+255),w,b
  6400  000D3A  2774               	addwf	efgtoa@m& (0+255),f,b
  6401  000D3C  5191               	movf	(efgtoa@e+1)& (0+255),w,b
  6402  000D3E  2375               	addwfc	(efgtoa@m+1)& (0+255),f,b
  6403  000D40                     i2l4621:
  6404                           
  6405                           ; BSR set to: 0
  6406                           ;/opt/microchip/xc8/v2.10/pic/sources/c99/common/doprnt.c: 415:     i = 0;
  6407  000D40  0E00               	movlw	0
  6408  000D42  6F8B               	movwf	(efgtoa@i+1)& (0+255),b
  6409  000D44  0E00               	movlw	0
  6410  000D46  6F8A               	movwf	efgtoa@i& (0+255),b
  6411  000D48                     
  6412                           ; BSR set to: 0
  6413                           ;/opt/microchip/xc8/v2.10/pic/sources/c99/common/doprnt.c: 416:     h = g;
  6414  000D48  C08C  F082         	movff	efgtoa@g,efgtoa@h
  6415  000D4C  C08D  F083         	movff	efgtoa@g+1,efgtoa@h+1
  6416  000D50  C08E  F084         	movff	efgtoa@g+2,efgtoa@h+2
  6417  000D54  C08F  F085         	movff	efgtoa@g+3,efgtoa@h+3
  6418  000D58                     
  6419                           ; BSR set to: 0
  6420                           ;/opt/microchip/xc8/v2.10/pic/sources/c99/common/doprnt.c: 417:     ou = u;
  6421  000D58  C094  F060         	movff	efgtoa@u,efgtoa@ou
  6422  000D5C  C095  F061         	movff	efgtoa@u+1,efgtoa@ou+1
  6423  000D60  C096  F062         	movff	efgtoa@u+2,efgtoa@ou+2
  6424  000D64  C097  F063         	movff	efgtoa@u+3,efgtoa@ou+3
  6425                           
  6426                           ;/opt/microchip/xc8/v2.10/pic/sources/c99/common/doprnt.c: 418:     while (i < m) {
  6427  000D68  EF31  F007         	goto	i2l4635
  6428  000D6C                     i2l4627:
  6429                           
  6430                           ; BSR set to: 0
  6431                           ;/opt/microchip/xc8/v2.10/pic/sources/c99/common/doprnt.c: 419:         l = floorf(h/u);
  6432  000D6C  C082  F001         	movff	efgtoa@h,___fldiv@b
  6433  000D70  C083  F002         	movff	efgtoa@h+1,___fldiv@b+1
  6434  000D74  C084  F003         	movff	efgtoa@h+2,___fldiv@b+2
  6435  000D78  C085  F004         	movff	efgtoa@h+3,___fldiv@b+3
  6436  000D7C  C094  F005         	movff	efgtoa@u,___fldiv@a
  6437  000D80  C095  F006         	movff	efgtoa@u+1,___fldiv@a+1
  6438  000D84  C096  F007         	movff	efgtoa@u+2,___fldiv@a+2
  6439  000D88  C097  F008         	movff	efgtoa@u+3,___fldiv@a+3
  6440  000D8C  EC02  F011         	call	___fldiv	;wreg free
  6441  000D90  C001  F01A         	movff	?___fldiv,floorf@x
  6442  000D94  C002  F01B         	movff	?___fldiv+1,floorf@x+1
  6443  000D98  C003  F01C         	movff	?___fldiv+2,floorf@x+2
  6444  000D9C  C004  F01D         	movff	?___fldiv+3,floorf@x+3
  6445  000DA0  ECBB  F016         	call	_floorf	;wreg free
  6446  000DA4  C01A  F086         	movff	?_floorf,efgtoa@l
  6447  000DA8  C01B  F087         	movff	?_floorf+1,efgtoa@l+1
  6448  000DAC  C01C  F088         	movff	?_floorf+2,efgtoa@l+2
  6449  000DB0  C01D  F089         	movff	?_floorf+3,efgtoa@l+3
  6450                           
  6451                           ;/opt/microchip/xc8/v2.10/pic/sources/c99/common/doprnt.c: 420:         d = (int)l;
  6452  000DB4  C086  F033         	movff	efgtoa@l,___fltol@f1
  6453  000DB8  C087  F034         	movff	efgtoa@l+1,___fltol@f1+1
  6454  000DBC  C088  F035         	movff	efgtoa@l+2,___fltol@f1+2
  6455  000DC0  C089  F036         	movff	efgtoa@l+3,___fltol@f1+3
  6456  000DC4  EC58  F01E         	call	___fltol	;wreg free
  6457  000DC8  C033  F078         	movff	?___fltol,efgtoa@d
  6458  000DCC  C034  F079         	movff	?___fltol+1,efgtoa@d+1
  6459  000DD0                     
  6460                           ;/opt/microchip/xc8/v2.10/pic/sources/c99/common/doprnt.c: 421:         h -= l*u;
  6461  000DD0  C082  F033         	movff	efgtoa@h,___flsub@b
  6462  000DD4  C083  F034         	movff	efgtoa@h+1,___flsub@b+1
  6463  000DD8  C084  F035         	movff	efgtoa@h+2,___flsub@b+2
  6464  000DDC  C085  F036         	movff	efgtoa@h+3,___flsub@b+3
  6465  000DE0  C094  F01E         	movff	efgtoa@u,___flmul@a
  6466  000DE4  C095  F01F         	movff	efgtoa@u+1,___flmul@a+1
  6467  000DE8  C096  F020         	movff	efgtoa@u+2,___flmul@a+2
  6468  000DEC  C097  F021         	movff	efgtoa@u+3,___flmul@a+3
  6469  000DF0  C086  F01A         	movff	efgtoa@l,___flmul@b
  6470  000DF4  C087  F01B         	movff	efgtoa@l+1,___flmul@b+1
  6471  000DF8  C088  F01C         	movff	efgtoa@l+2,___flmul@b+2
  6472  000DFC  C089  F01D         	movff	efgtoa@l+3,___flmul@b+3
  6473  000E00  ECED  F00E         	call	___flmul	;wreg free
  6474  000E04  C01A  F037         	movff	?___flmul,___flsub@a
  6475  000E08  C01B  F038         	movff	?___flmul+1,___flsub@a+1
  6476  000E0C  C01C  F039         	movff	?___flmul+2,___flsub@a+2
  6477  000E10  C01D  F03A         	movff	?___flmul+3,___flsub@a+3
  6478  000E14  EC70  F026         	call	___flsub	;wreg free
  6479  000E18  C033  F082         	movff	?___flsub,efgtoa@h
  6480  000E1C  C034  F083         	movff	?___flsub+1,efgtoa@h+1
  6481  000E20  C035  F084         	movff	?___flsub+2,efgtoa@h+2
  6482  000E24  C036  F085         	movff	?___flsub+3,efgtoa@h+3
  6483  000E28                     
  6484                           ;/opt/microchip/xc8/v2.10/pic/sources/c99/common/doprnt.c: 422:         u = u/10.0;
  6485  000E28  C094  F001         	movff	efgtoa@u,___fldiv@b
  6486  000E2C  C095  F002         	movff	efgtoa@u+1,___fldiv@b+1
  6487  000E30  C096  F003         	movff	efgtoa@u+2,___fldiv@b+2
  6488  000E34  C097  F004         	movff	efgtoa@u+3,___fldiv@b+3
  6489  000E38  0E00               	movlw	0
  6490  000E3A  6E05               	movwf	___fldiv@a^0,c
  6491  000E3C  0E00               	movlw	0
  6492  000E3E  6E06               	movwf	(___fldiv@a+1)^0,c
  6493  000E40  0E20               	movlw	32
  6494  000E42  6E07               	movwf	(___fldiv@a+2)^0,c
  6495  000E44  0E41               	movlw	65
  6496  000E46  6E08               	movwf	(___fldiv@a+3)^0,c
  6497  000E48  EC02  F011         	call	___fldiv	;wreg free
  6498  000E4C  C001  F094         	movff	?___fldiv,efgtoa@u
  6499  000E50  C002  F095         	movff	?___fldiv+1,efgtoa@u+1
  6500  000E54  C003  F096         	movff	?___fldiv+2,efgtoa@u+2
  6501  000E58  C004  F097         	movff	?___fldiv+3,efgtoa@u+3
  6502  000E5C                     
  6503                           ;/opt/microchip/xc8/v2.10/pic/sources/c99/common/doprnt.c: 423:         ++i;
  6504  000E5C  0100               	movlb	0	; () banked
  6505  000E5E  4B8A               	infsnz	efgtoa@i& (0+255),f,b
  6506  000E60  2B8B               	incf	(efgtoa@i+1)& (0+255),f,b
  6507  000E62                     i2l4635:
  6508                           
  6509                           ; BSR set to: 0
  6510                           ;/opt/microchip/xc8/v2.10/pic/sources/c99/common/doprnt.c: 418:     while (i < m) {
  6511  000E62  5174               	movf	efgtoa@m& (0+255),w,b
  6512  000E64  5D8A               	subwf	efgtoa@i& (0+255),w,b
  6513  000E66  518B               	movf	(efgtoa@i+1)& (0+255),w,b
  6514  000E68  0A80               	xorlw	128
  6515  000E6A  6E46               	movwf	??_efgtoa^0,c
  6516  000E6C  5175               	movf	(efgtoa@m+1)& (0+255),w,b
  6517  000E6E  0A80               	xorlw	128
  6518  000E70  5846               	subwfb	??_efgtoa^0,w,c
  6519  000E72  A0D8               	btfss	status,0,c
  6520  000E74  EF3E  F007         	goto	i2u550_41
  6521  000E78  EF40  F007         	goto	i2u550_40
  6522  000E7C                     i2u550_41:
  6523  000E7C  EFB6  F006         	goto	i2l4627
  6524  000E80                     i2u550_40:
  6525  000E80                     
  6526                           ; BSR set to: 0
  6527                           ;/opt/microchip/xc8/v2.10/pic/sources/c99/common/doprnt.c: 427:     l = u*5.0;
  6528  000E80  C094  F01A         	movff	efgtoa@u,___flmul@b
  6529  000E84  C095  F01B         	movff	efgtoa@u+1,___flmul@b+1
  6530  000E88  C096  F01C         	movff	efgtoa@u+2,___flmul@b+2
  6531  000E8C  C097  F01D         	movff	efgtoa@u+3,___flmul@b+3
  6532  000E90  0E00               	movlw	0
  6533  000E92  6E1E               	movwf	___flmul@a^0,c
  6534  000E94  0E00               	movlw	0
  6535  000E96  6E1F               	movwf	(___flmul@a+1)^0,c
  6536  000E98  0EA0               	movlw	160
  6537  000E9A  6E20               	movwf	(___flmul@a+2)^0,c
  6538  000E9C  0E40               	movlw	64
  6539  000E9E  6E21               	movwf	(___flmul@a+3)^0,c
  6540  000EA0  ECED  F00E         	call	___flmul	;wreg free
  6541  000EA4  C01A  F086         	movff	?___flmul,efgtoa@l
  6542  000EA8  C01B  F087         	movff	?___flmul+1,efgtoa@l+1
  6543  000EAC  C01C  F088         	movff	?___flmul+2,efgtoa@l+2
  6544  000EB0  C01D  F089         	movff	?___flmul+3,efgtoa@l+3
  6545  000EB4                     
  6546                           ;/opt/microchip/xc8/v2.10/pic/sources/c99/common/doprnt.c: 428:     if (h < l) {
  6547  000EB4  C082  F033         	movff	efgtoa@h,___flge@ff1
  6548  000EB8  C083  F034         	movff	efgtoa@h+1,___flge@ff1+1
  6549  000EBC  C084  F035         	movff	efgtoa@h+2,___flge@ff1+2
  6550  000EC0  C085  F036         	movff	efgtoa@h+3,___flge@ff1+3
  6551  000EC4  C086  F037         	movff	efgtoa@l,___flge@ff2
  6552  000EC8  C087  F038         	movff	efgtoa@l+1,___flge@ff2+1
  6553  000ECC  C088  F039         	movff	efgtoa@l+2,___flge@ff2+2
  6554  000ED0  C089  F03A         	movff	efgtoa@l+3,___flge@ff2+3
  6555  000ED4  ECDB  F01E         	call	___flge	;wreg free
  6556  000ED8  B0D8               	btfsc	status,0,c
  6557  000EDA  EF71  F007         	goto	i2u551_41
  6558  000EDE  EF73  F007         	goto	i2u551_40
  6559  000EE2                     i2u551_41:
  6560  000EE2  EF7E  F007         	goto	i2l4643
  6561  000EE6                     i2u551_40:
  6562  000EE6                     
  6563                           ;/opt/microchip/xc8/v2.10/pic/sources/c99/common/doprnt.c: 429:         l = 0.0;
  6564  000EE6  0E00               	movlw	0
  6565  000EE8  0100               	movlb	0	; () banked
  6566  000EEA  6F86               	movwf	efgtoa@l& (0+255),b
  6567  000EEC  0E00               	movlw	0
  6568  000EEE  6F87               	movwf	(efgtoa@l+1)& (0+255),b
  6569  000EF0  0E00               	movlw	0
  6570  000EF2  6F88               	movwf	(efgtoa@l+2)& (0+255),b
  6571  000EF4  0E00               	movlw	0
  6572  000EF6  6F89               	movwf	(efgtoa@l+3)& (0+255),b
  6573                           
  6574                           ;/opt/microchip/xc8/v2.10/pic/sources/c99/common/doprnt.c: 430:     } else {
  6575  000EF8  EFA7  F007         	goto	i2l4649
  6576  000EFC                     i2l4643:
  6577                           
  6578                           ;/opt/microchip/xc8/v2.10/pic/sources/c99/common/doprnt.c: 432:         if ((h == l) && 
      +                          !(d % 2)) {
  6579  000EFC  C082  F001         	movff	efgtoa@h,___fleq@ff1
  6580  000F00  C083  F002         	movff	efgtoa@h+1,___fleq@ff1+1
  6581  000F04  C084  F003         	movff	efgtoa@h+2,___fleq@ff1+2
  6582  000F08  C085  F004         	movff	efgtoa@h+3,___fleq@ff1+3
  6583  000F0C  C086  F005         	movff	efgtoa@l,___fleq@ff2
  6584  000F10  C087  F006         	movff	efgtoa@l+1,___fleq@ff2+1
  6585  000F14  C088  F007         	movff	efgtoa@l+2,___fleq@ff2+2
  6586  000F18  C089  F008         	movff	efgtoa@l+3,___fleq@ff2+3
  6587  000F1C  EC59  F023         	call	___fleq	;wreg free
  6588  000F20  A0D8               	btfss	status,0,c
  6589  000F22  EF95  F007         	goto	i2u552_41
  6590  000F26  EF97  F007         	goto	i2u552_40
  6591  000F2A                     i2u552_41:
  6592  000F2A  EFA7  F007         	goto	i2l4649
  6593  000F2E                     i2u552_40:
  6594  000F2E  0100               	movlb	0	; () banked
  6595  000F30  B178               	btfsc	efgtoa@d& (0+255),0,b
  6596  000F32  EF9D  F007         	goto	i2u553_41
  6597  000F36  EF9F  F007         	goto	i2u553_40
  6598  000F3A                     i2u553_41:
  6599  000F3A  EFA7  F007         	goto	i2l4649
  6600  000F3E                     i2u553_40:
  6601  000F3E                     
  6602                           ; BSR set to: 0
  6603                           ;/opt/microchip/xc8/v2.10/pic/sources/c99/common/doprnt.c: 433:             l = 0.0;
  6604  000F3E  0E00               	movlw	0
  6605  000F40  6F86               	movwf	efgtoa@l& (0+255),b
  6606  000F42  0E00               	movlw	0
  6607  000F44  6F87               	movwf	(efgtoa@l+1)& (0+255),b
  6608  000F46  0E00               	movlw	0
  6609  000F48  6F88               	movwf	(efgtoa@l+2)& (0+255),b
  6610  000F4A  0E00               	movlw	0
  6611  000F4C  6F89               	movwf	(efgtoa@l+3)& (0+255),b
  6612  000F4E                     i2l4649:
  6613                           
  6614                           ;/opt/microchip/xc8/v2.10/pic/sources/c99/common/doprnt.c: 438:     h = g + l;
  6615  000F4E  C08C  F001         	movff	efgtoa@g,___fladd@b
  6616  000F52  C08D  F002         	movff	efgtoa@g+1,___fladd@b+1
  6617  000F56  C08E  F003         	movff	efgtoa@g+2,___fladd@b+2
  6618  000F5A  C08F  F004         	movff	efgtoa@g+3,___fladd@b+3
  6619  000F5E  C086  F005         	movff	efgtoa@l,___fladd@a
  6620  000F62  C087  F006         	movff	efgtoa@l+1,___fladd@a+1
  6621  000F66  C088  F007         	movff	efgtoa@l+2,___fladd@a+2
  6622  000F6A  C089  F008         	movff	efgtoa@l+3,___fladd@a+3
  6623  000F6E  EC8D  F00C         	call	___fladd	;wreg free
  6624  000F72  C001  F082         	movff	?___fladd,efgtoa@h
  6625  000F76  C002  F083         	movff	?___fladd+1,efgtoa@h+1
  6626  000F7A  C003  F084         	movff	?___fladd+2,efgtoa@h+2
  6627  000F7E  C004  F085         	movff	?___fladd+3,efgtoa@h+3
  6628  000F82                     
  6629                           ;/opt/microchip/xc8/v2.10/pic/sources/c99/common/doprnt.c: 441:     u = ou;
  6630  000F82  C060  F094         	movff	efgtoa@ou,efgtoa@u
  6631  000F86  C061  F095         	movff	efgtoa@ou+1,efgtoa@u+1
  6632  000F8A  C062  F096         	movff	efgtoa@ou+2,efgtoa@u+2
  6633  000F8E  C063  F097         	movff	efgtoa@ou+3,efgtoa@u+3
  6634  000F92                     
  6635                           ;/opt/microchip/xc8/v2.10/pic/sources/c99/common/doprnt.c: 442:     ne = (nmode == 'e') 
      +                          ? 0 : e;
  6636  000F92  0E65               	movlw	101
  6637  000F94  0100               	movlb	0	; () banked
  6638  000F96  197E               	xorwf	efgtoa@nmode& (0+255),w,b
  6639  000F98  B4D8               	btfsc	status,2,c
  6640  000F9A  EFD1  F007         	goto	i2u554_41
  6641  000F9E  EFD3  F007         	goto	i2u554_40
  6642  000FA2                     i2u554_41:
  6643  000FA2  EFD9  F007         	goto	i2l4657
  6644  000FA6                     i2u554_40:
  6645  000FA6                     
  6646                           ; BSR set to: 0
  6647  000FA6  C090  F076         	movff	efgtoa@e,efgtoa@ne
  6648  000FAA  C091  F077         	movff	efgtoa@e+1,efgtoa@ne+1
  6649  000FAE  EFDD  F007         	goto	i2l465
  6650  000FB2                     i2l4657:
  6651                           
  6652                           ; BSR set to: 0
  6653  000FB2  0E00               	movlw	0
  6654  000FB4  6F77               	movwf	(efgtoa@ne+1)& (0+255),b
  6655  000FB6  0E00               	movlw	0
  6656  000FB8  6F76               	movwf	efgtoa@ne& (0+255),b
  6657  000FBA                     i2l465:
  6658                           
  6659                           ; BSR set to: 0
  6660                           ;/opt/microchip/xc8/v2.10/pic/sources/c99/common/doprnt.c: 443:     pp = 0;
  6661  000FBA  0E00               	movlw	0
  6662  000FBC  6F73               	movwf	(efgtoa@pp+1)& (0+255),b
  6663  000FBE  0E00               	movlw	0
  6664  000FC0  6F72               	movwf	efgtoa@pp& (0+255),b
  6665                           
  6666                           ;/opt/microchip/xc8/v2.10/pic/sources/c99/common/doprnt.c: 444:     t = 0;
  6667  000FC2  0E00               	movlw	0
  6668  000FC4  6F71               	movwf	(efgtoa@t+1)& (0+255),b
  6669  000FC6  0E00               	movlw	0
  6670  000FC8  6F70               	movwf	efgtoa@t& (0+255),b
  6671                           
  6672                           ;/opt/microchip/xc8/v2.10/pic/sources/c99/common/doprnt.c: 445:     i = 0;
  6673  000FCA  0E00               	movlw	0
  6674  000FCC  6F8B               	movwf	(efgtoa@i+1)& (0+255),b
  6675  000FCE  0E00               	movlw	0
  6676  000FD0  6F8A               	movwf	efgtoa@i& (0+255),b
  6677                           
  6678                           ;/opt/microchip/xc8/v2.10/pic/sources/c99/common/doprnt.c: 446:     while ((i < m) && (n
      +                           < (80 - 5))) {
  6679  000FD2  EFD9  F008         	goto	i2l4707
  6680  000FD6                     i2l4659:
  6681                           
  6682                           ; BSR set to: 0
  6683                           ;/opt/microchip/xc8/v2.10/pic/sources/c99/common/doprnt.c: 447:         l = floorf(h/u);
  6684  000FD6  C082  F001         	movff	efgtoa@h,___fldiv@b
  6685  000FDA  C083  F002         	movff	efgtoa@h+1,___fldiv@b+1
  6686  000FDE  C084  F003         	movff	efgtoa@h+2,___fldiv@b+2
  6687  000FE2  C085  F004         	movff	efgtoa@h+3,___fldiv@b+3
  6688  000FE6  C094  F005         	movff	efgtoa@u,___fldiv@a
  6689  000FEA  C095  F006         	movff	efgtoa@u+1,___fldiv@a+1
  6690  000FEE  C096  F007         	movff	efgtoa@u+2,___fldiv@a+2
  6691  000FF2  C097  F008         	movff	efgtoa@u+3,___fldiv@a+3
  6692  000FF6  EC02  F011         	call	___fldiv	;wreg free
  6693  000FFA  C001  F01A         	movff	?___fldiv,floorf@x
  6694  000FFE  C002  F01B         	movff	?___fldiv+1,floorf@x+1
  6695  001002  C003  F01C         	movff	?___fldiv+2,floorf@x+2
  6696  001006  C004  F01D         	movff	?___fldiv+3,floorf@x+3
  6697  00100A  ECBB  F016         	call	_floorf	;wreg free
  6698  00100E  C01A  F086         	movff	?_floorf,efgtoa@l
  6699  001012  C01B  F087         	movff	?_floorf+1,efgtoa@l+1
  6700  001016  C01C  F088         	movff	?_floorf+2,efgtoa@l+2
  6701  00101A  C01D  F089         	movff	?_floorf+3,efgtoa@l+3
  6702                           
  6703                           ;/opt/microchip/xc8/v2.10/pic/sources/c99/common/doprnt.c: 448:         d = (int)l;
  6704  00101E  C086  F033         	movff	efgtoa@l,___fltol@f1
  6705  001022  C087  F034         	movff	efgtoa@l+1,___fltol@f1+1
  6706  001026  C088  F035         	movff	efgtoa@l+2,___fltol@f1+2
  6707  00102A  C089  F036         	movff	efgtoa@l+3,___fltol@f1+3
  6708  00102E  EC58  F01E         	call	___fltol	;wreg free
  6709  001032  C033  F078         	movff	?___fltol,efgtoa@d
  6710  001036  C034  F079         	movff	?___fltol+1,efgtoa@d+1
  6711  00103A                     
  6712                           ;/opt/microchip/xc8/v2.10/pic/sources/c99/common/doprnt.c: 449:         if (!(flags & (1
      +                           << 4)) && !d && (mode == 'g') && (ne < 0)) {
  6713  00103A  B85D               	btfsc	_flags^0,4,c
  6714  00103C  EF22  F008         	goto	i2u555_41
  6715  001040  EF24  F008         	goto	i2u555_40
  6716  001044                     i2u555_41:
  6717  001044  EF42  F008         	goto	i2l4671
  6718  001048                     i2u555_40:
  6719  001048  0100               	movlb	0	; () banked
  6720  00104A  5178               	movf	efgtoa@d& (0+255),w,b
  6721  00104C  1179               	iorwf	(efgtoa@d+1)& (0+255),w,b
  6722  00104E  A4D8               	btfss	status,2,c
  6723  001050  EF2C  F008         	goto	i2u556_41
  6724  001054  EF2E  F008         	goto	i2u556_40
  6725  001058                     i2u556_41:
  6726  001058  EF42  F008         	goto	i2l4671
  6727  00105C                     i2u556_40:
  6728  00105C                     
  6729                           ; BSR set to: 0
  6730  00105C  0E67               	movlw	103
  6731  00105E  1981               	xorwf	efgtoa@mode& (0+255),w,b
  6732  001060  A4D8               	btfss	status,2,c
  6733  001062  EF35  F008         	goto	i2u557_41
  6734  001066  EF37  F008         	goto	i2u557_40
  6735  00106A                     i2u557_41:
  6736  00106A  EF42  F008         	goto	i2l4671
  6737  00106E                     i2u557_40:
  6738  00106E                     
  6739                           ; BSR set to: 0
  6740  00106E  BF77               	btfsc	(efgtoa@ne+1)& (0+255),7,b
  6741  001070  EF3E  F008         	goto	i2u558_40
  6742  001074  EF3C  F008         	goto	i2u558_41
  6743  001078                     i2u558_41:
  6744  001078  EF42  F008         	goto	i2l4671
  6745  00107C                     i2u558_40:
  6746  00107C                     
  6747                           ; BSR set to: 0
  6748                           ;/opt/microchip/xc8/v2.10/pic/sources/c99/common/doprnt.c: 450:             ++t;
  6749  00107C  4B70               	infsnz	efgtoa@t& (0+255),f,b
  6750  00107E  2B71               	incf	(efgtoa@t+1)& (0+255),f,b
  6751                           
  6752                           ;/opt/microchip/xc8/v2.10/pic/sources/c99/common/doprnt.c: 451:         } else {
  6753  001080  EF8D  F008         	goto	i2l4699
  6754  001084                     i2l4671:
  6755                           
  6756                           ;/opt/microchip/xc8/v2.10/pic/sources/c99/common/doprnt.c: 452:             if (!pp && (
      +                          ne < 0)) {
  6757  001084  0100               	movlb	0	; () banked
  6758  001086  5172               	movf	efgtoa@pp& (0+255),w,b
  6759  001088  1173               	iorwf	(efgtoa@pp+1)& (0+255),w,b
  6760  00108A  A4D8               	btfss	status,2,c
  6761  00108C  EF4A  F008         	goto	i2u559_41
  6762  001090  EF4C  F008         	goto	i2u559_40
  6763  001094                     i2u559_41:
  6764  001094  EF76  F008         	goto	i2l4691
  6765  001098                     i2u559_40:
  6766  001098                     
  6767                           ; BSR set to: 0
  6768  001098  BF77               	btfsc	(efgtoa@ne+1)& (0+255),7,b
  6769  00109A  EF53  F008         	goto	i2u560_40
  6770  00109E  EF51  F008         	goto	i2u560_41
  6771  0010A2                     i2u560_41:
  6772  0010A2  EF76  F008         	goto	i2l4691
  6773  0010A6                     i2u560_40:
  6774  0010A6                     
  6775                           ; BSR set to: 0
  6776                           ;/opt/microchip/xc8/v2.10/pic/sources/c99/common/doprnt.c: 453:                 dbuf[n++
      +                          ] = '.';
  6777  0010A6  0E00               	movlw	low _dbuf
  6778  0010A8  2592               	addwf	efgtoa@n& (0+255),w,b
  6779  0010AA  6ED9               	movwf	fsr2l,c
  6780  0010AC  0E01               	movlw	high _dbuf
  6781  0010AE  2193               	addwfc	(efgtoa@n+1)& (0+255),w,b
  6782  0010B0  6EDA               	movwf	fsr2h,c
  6783  0010B2  0E2E               	movlw	46
  6784  0010B4  6EDF               	movwf	indf2,c
  6785  0010B6                     
  6786                           ; BSR set to: 0
  6787  0010B6  4B92               	infsnz	efgtoa@n& (0+255),f,b
  6788  0010B8  2B93               	incf	(efgtoa@n+1)& (0+255),f,b
  6789  0010BA                     
  6790                           ; BSR set to: 0
  6791                           ;/opt/microchip/xc8/v2.10/pic/sources/c99/common/doprnt.c: 454:                 --w;
  6792  0010BA  077F               	decf	efgtoa@w& (0+255),f,b
  6793  0010BC  A0D8               	btfss	status,0,c
  6794  0010BE  0780               	decf	(efgtoa@w+1)& (0+255),f,b
  6795  0010C0                     
  6796                           ; BSR set to: 0
  6797                           ;/opt/microchip/xc8/v2.10/pic/sources/c99/common/doprnt.c: 455:                 pp = 1;
  6798  0010C0  0E00               	movlw	0
  6799  0010C2  6F73               	movwf	(efgtoa@pp+1)& (0+255),b
  6800  0010C4  0E01               	movlw	1
  6801  0010C6  6F72               	movwf	efgtoa@pp& (0+255),b
  6802  0010C8  EF76  F008         	goto	i2l4691
  6803  0010CC                     i2l4683:
  6804                           
  6805                           ; BSR set to: 0
  6806                           ;/opt/microchip/xc8/v2.10/pic/sources/c99/common/doprnt.c: 458:                 dbuf[n++
      +                          ] = '0';
  6807  0010CC  0E00               	movlw	low _dbuf
  6808  0010CE  2592               	addwf	efgtoa@n& (0+255),w,b
  6809  0010D0  6ED9               	movwf	fsr2l,c
  6810  0010D2  0E01               	movlw	high _dbuf
  6811  0010D4  2193               	addwfc	(efgtoa@n+1)& (0+255),w,b
  6812  0010D6  6EDA               	movwf	fsr2h,c
  6813  0010D8  0E30               	movlw	48
  6814  0010DA  6EDF               	movwf	indf2,c
  6815  0010DC                     
  6816                           ; BSR set to: 0
  6817  0010DC  4B92               	infsnz	efgtoa@n& (0+255),f,b
  6818  0010DE  2B93               	incf	(efgtoa@n+1)& (0+255),f,b
  6819  0010E0                     
  6820                           ; BSR set to: 0
  6821                           ;/opt/microchip/xc8/v2.10/pic/sources/c99/common/doprnt.c: 459:                 --w;
  6822  0010E0  077F               	decf	efgtoa@w& (0+255),f,b
  6823  0010E2  A0D8               	btfss	status,0,c
  6824  0010E4  0780               	decf	(efgtoa@w+1)& (0+255),f,b
  6825  0010E6                     
  6826                           ; BSR set to: 0
  6827                           ;/opt/microchip/xc8/v2.10/pic/sources/c99/common/doprnt.c: 460:                 --t;
  6828  0010E6  0770               	decf	efgtoa@t& (0+255),f,b
  6829  0010E8  A0D8               	btfss	status,0,c
  6830  0010EA  0771               	decf	(efgtoa@t+1)& (0+255),f,b
  6831  0010EC                     i2l4691:
  6832                           
  6833                           ; BSR set to: 0
  6834                           ;/opt/microchip/xc8/v2.10/pic/sources/c99/common/doprnt.c: 457:             while (t) {
  6835  0010EC  5170               	movf	efgtoa@t& (0+255),w,b
  6836  0010EE  1171               	iorwf	(efgtoa@t+1)& (0+255),w,b
  6837  0010F0  A4D8               	btfss	status,2,c
  6838  0010F2  EF7D  F008         	goto	i2u561_41
  6839  0010F6  EF7F  F008         	goto	i2u561_40
  6840  0010FA                     i2u561_41:
  6841  0010FA  EF66  F008         	goto	i2l4683
  6842  0010FE                     i2u561_40:
  6843  0010FE                     
  6844                           ; BSR set to: 0
  6845                           ;/opt/microchip/xc8/v2.10/pic/sources/c99/common/doprnt.c: 462:             dbuf[n++] = 
      +                          '0' + d;
  6846  0010FE  0E00               	movlw	low _dbuf
  6847  001100  2592               	addwf	efgtoa@n& (0+255),w,b
  6848  001102  6ED9               	movwf	fsr2l,c
  6849  001104  0E01               	movlw	high _dbuf
  6850  001106  2193               	addwfc	(efgtoa@n+1)& (0+255),w,b
  6851  001108  6EDA               	movwf	fsr2h,c
  6852  00110A  5178               	movf	efgtoa@d& (0+255),w,b
  6853  00110C  0F30               	addlw	48
  6854  00110E  6EDF               	movwf	indf2,c
  6855  001110                     
  6856                           ; BSR set to: 0
  6857  001110  4B92               	infsnz	efgtoa@n& (0+255),f,b
  6858  001112  2B93               	incf	(efgtoa@n+1)& (0+255),f,b
  6859  001114                     
  6860                           ; BSR set to: 0
  6861                           ;/opt/microchip/xc8/v2.10/pic/sources/c99/common/doprnt.c: 463:             --w;
  6862  001114  077F               	decf	efgtoa@w& (0+255),f,b
  6863  001116  A0D8               	btfss	status,0,c
  6864  001118  0780               	decf	(efgtoa@w+1)& (0+255),f,b
  6865  00111A                     i2l4699:
  6866                           
  6867                           ; BSR set to: 0
  6868                           ;/opt/microchip/xc8/v2.10/pic/sources/c99/common/doprnt.c: 465:         h -= l*u;
  6869  00111A  C082  F033         	movff	efgtoa@h,___flsub@b
  6870  00111E  C083  F034         	movff	efgtoa@h+1,___flsub@b+1
  6871  001122  C084  F035         	movff	efgtoa@h+2,___flsub@b+2
  6872  001126  C085  F036         	movff	efgtoa@h+3,___flsub@b+3
  6873  00112A  C094  F01E         	movff	efgtoa@u,___flmul@a
  6874  00112E  C095  F01F         	movff	efgtoa@u+1,___flmul@a+1
  6875  001132  C096  F020         	movff	efgtoa@u+2,___flmul@a+2
  6876  001136  C097  F021         	movff	efgtoa@u+3,___flmul@a+3
  6877  00113A  C086  F01A         	movff	efgtoa@l,___flmul@b
  6878  00113E  C087  F01B         	movff	efgtoa@l+1,___flmul@b+1
  6879  001142  C088  F01C         	movff	efgtoa@l+2,___flmul@b+2
  6880  001146  C089  F01D         	movff	efgtoa@l+3,___flmul@b+3
  6881  00114A  ECED  F00E         	call	___flmul	;wreg free
  6882  00114E  C01A  F037         	movff	?___flmul,___flsub@a
  6883  001152  C01B  F038         	movff	?___flmul+1,___flsub@a+1
  6884  001156  C01C  F039         	movff	?___flmul+2,___flsub@a+2
  6885  00115A  C01D  F03A         	movff	?___flmul+3,___flsub@a+3
  6886  00115E  EC70  F026         	call	___flsub	;wreg free
  6887  001162  C033  F082         	movff	?___flsub,efgtoa@h
  6888  001166  C034  F083         	movff	?___flsub+1,efgtoa@h+1
  6889  00116A  C035  F084         	movff	?___flsub+2,efgtoa@h+2
  6890  00116E  C036  F085         	movff	?___flsub+3,efgtoa@h+3
  6891  001172                     
  6892                           ;/opt/microchip/xc8/v2.10/pic/sources/c99/common/doprnt.c: 466:         u = u/10.0;
  6893  001172  C094  F001         	movff	efgtoa@u,___fldiv@b
  6894  001176  C095  F002         	movff	efgtoa@u+1,___fldiv@b+1
  6895  00117A  C096  F003         	movff	efgtoa@u+2,___fldiv@b+2
  6896  00117E  C097  F004         	movff	efgtoa@u+3,___fldiv@b+3
  6897  001182  0E00               	movlw	0
  6898  001184  6E05               	movwf	___fldiv@a^0,c
  6899  001186  0E00               	movlw	0
  6900  001188  6E06               	movwf	(___fldiv@a+1)^0,c
  6901  00118A  0E20               	movlw	32
  6902  00118C  6E07               	movwf	(___fldiv@a+2)^0,c
  6903  00118E  0E41               	movlw	65
  6904  001190  6E08               	movwf	(___fldiv@a+3)^0,c
  6905  001192  EC02  F011         	call	___fldiv	;wreg free
  6906  001196  C001  F094         	movff	?___fldiv,efgtoa@u
  6907  00119A  C002  F095         	movff	?___fldiv+1,efgtoa@u+1
  6908  00119E  C003  F096         	movff	?___fldiv+2,efgtoa@u+2
  6909  0011A2  C004  F097         	movff	?___fldiv+3,efgtoa@u+3
  6910  0011A6                     
  6911                           ;/opt/microchip/xc8/v2.10/pic/sources/c99/common/doprnt.c: 467:         --ne;
  6912  0011A6  0100               	movlb	0	; () banked
  6913  0011A8  0776               	decf	efgtoa@ne& (0+255),f,b
  6914  0011AA  A0D8               	btfss	status,0,c
  6915  0011AC  0777               	decf	(efgtoa@ne+1)& (0+255),f,b
  6916  0011AE                     
  6917                           ; BSR set to: 0
  6918                           ;/opt/microchip/xc8/v2.10/pic/sources/c99/common/doprnt.c: 468:         ++i;
  6919  0011AE  4B8A               	infsnz	efgtoa@i& (0+255),f,b
  6920  0011B0  2B8B               	incf	(efgtoa@i+1)& (0+255),f,b
  6921  0011B2                     i2l4707:
  6922                           
  6923                           ; BSR set to: 0
  6924                           ;/opt/microchip/xc8/v2.10/pic/sources/c99/common/doprnt.c: 446:     while ((i < m) && (n
      +                           < (80 - 5))) {
  6925  0011B2  5174               	movf	efgtoa@m& (0+255),w,b
  6926  0011B4  5D8A               	subwf	efgtoa@i& (0+255),w,b
  6927  0011B6  518B               	movf	(efgtoa@i+1)& (0+255),w,b
  6928  0011B8  0A80               	xorlw	128
  6929  0011BA  6E46               	movwf	??_efgtoa^0,c
  6930  0011BC  5175               	movf	(efgtoa@m+1)& (0+255),w,b
  6931  0011BE  0A80               	xorlw	128
  6932  0011C0  5846               	subwfb	??_efgtoa^0,w,c
  6933  0011C2  B0D8               	btfsc	status,0,c
  6934  0011C4  EFE6  F008         	goto	i2u562_41
  6935  0011C8  EFE8  F008         	goto	i2u562_40
  6936  0011CC                     i2u562_41:
  6937  0011CC  EFF6  F008         	goto	i2l4711
  6938  0011D0                     i2u562_40:
  6939  0011D0                     
  6940                           ; BSR set to: 0
  6941  0011D0  BF93               	btfsc	(efgtoa@n+1)& (0+255),7,b
  6942  0011D2  EFF4  F008         	goto	i2u563_41
  6943  0011D6  5193               	movf	(efgtoa@n+1)& (0+255),w,b
  6944  0011D8  E109               	bnz	i2u563_40
  6945  0011DA  0E4B               	movlw	75
  6946  0011DC  5D92               	subwf	efgtoa@n& (0+255),w,b
  6947  0011DE  A0D8               	btfss	status,0,c
  6948  0011E0  EFF4  F008         	goto	i2u563_41
  6949  0011E4  EFF6  F008         	goto	i2u563_40
  6950  0011E8                     i2u563_41:
  6951  0011E8  EFEB  F007         	goto	i2l4659
  6952  0011EC                     i2u563_40:
  6953  0011EC                     i2l4711:
  6954                           
  6955                           ; BSR set to: 0
  6956                           ;/opt/microchip/xc8/v2.10/pic/sources/c99/common/doprnt.c: 470:     if (!pp && (flags & 
      +                          (1 << 4))) {
  6957  0011EC  5172               	movf	efgtoa@pp& (0+255),w,b
  6958  0011EE  1173               	iorwf	(efgtoa@pp+1)& (0+255),w,b
  6959  0011F0  A4D8               	btfss	status,2,c
  6960  0011F2  EFFD  F008         	goto	i2u564_41
  6961  0011F6  EFFF  F008         	goto	i2u564_40
  6962  0011FA                     i2u564_41:
  6963  0011FA  EF10  F009         	goto	i2l4719
  6964  0011FE                     i2u564_40:
  6965  0011FE                     
  6966                           ; BSR set to: 0
  6967  0011FE  A85D               	btfss	_flags^0,4,c
  6968  001200  EF04  F009         	goto	i2u565_41
  6969  001204  EF06  F009         	goto	i2u565_40
  6970  001208                     i2u565_41:
  6971  001208  EF10  F009         	goto	i2l4719
  6972  00120C                     i2u565_40:
  6973  00120C                     
  6974                           ; BSR set to: 0
  6975                           ;/opt/microchip/xc8/v2.10/pic/sources/c99/common/doprnt.c: 471:         dbuf[n++] = '.';
  6976  00120C  0E00               	movlw	low _dbuf
  6977  00120E  2592               	addwf	efgtoa@n& (0+255),w,b
  6978  001210  6ED9               	movwf	fsr2l,c
  6979  001212  0E01               	movlw	high _dbuf
  6980  001214  2193               	addwfc	(efgtoa@n+1)& (0+255),w,b
  6981  001216  6EDA               	movwf	fsr2h,c
  6982  001218  0E2E               	movlw	46
  6983  00121A  6EDF               	movwf	indf2,c
  6984  00121C                     
  6985                           ; BSR set to: 0
  6986  00121C  4B92               	infsnz	efgtoa@n& (0+255),f,b
  6987  00121E  2B93               	incf	(efgtoa@n+1)& (0+255),f,b
  6988  001220                     i2l4719:
  6989                           
  6990                           ; BSR set to: 0
  6991                           ;/opt/microchip/xc8/v2.10/pic/sources/c99/common/doprnt.c: 473:     dbuf[n] = '\0';
  6992  001220  0E00               	movlw	low _dbuf
  6993  001222  2592               	addwf	efgtoa@n& (0+255),w,b
  6994  001224  6ED9               	movwf	fsr2l,c
  6995  001226  0E01               	movlw	high _dbuf
  6996  001228  2193               	addwfc	(efgtoa@n+1)& (0+255),w,b
  6997  00122A  6EDA               	movwf	fsr2h,c
  6998  00122C  0E00               	movlw	0
  6999  00122E  6EDF               	movwf	indf2,c
  7000  001230                     
  7001                           ; BSR set to: 0
  7002                           ;/opt/microchip/xc8/v2.10/pic/sources/c99/common/doprnt.c: 476:     if (nmode == 'e') {
  7003  001230  0E65               	movlw	101
  7004  001232  197E               	xorwf	efgtoa@nmode& (0+255),w,b
  7005  001234  A4D8               	btfss	status,2,c
  7006  001236  EF1F  F009         	goto	i2u566_41
  7007  00123A  EF21  F009         	goto	i2u566_40
  7008  00123E                     i2u566_41:
  7009  00123E  EFCE  F004         	goto	i2l4531
  7010  001242                     i2u566_40:
  7011  001242                     
  7012                           ; BSR set to: 0
  7013                           ;/opt/microchip/xc8/v2.10/pic/sources/c99/common/doprnt.c: 477:         i = sizeof(dbuf)
      +                           - 1;
  7014  001242  0E00               	movlw	0
  7015  001244  6F8B               	movwf	(efgtoa@i+1)& (0+255),b
  7016  001246  0E4F               	movlw	79
  7017  001248  6F8A               	movwf	efgtoa@i& (0+255),b
  7018  00124A                     
  7019                           ; BSR set to: 0
  7020                           ;/opt/microchip/xc8/v2.10/pic/sources/c99/common/doprnt.c: 478:         dbuf[i] = '\0';
  7021  00124A  0E00               	movlw	low _dbuf
  7022  00124C  258A               	addwf	efgtoa@i& (0+255),w,b
  7023  00124E  6ED9               	movwf	fsr2l,c
  7024  001250  0E01               	movlw	high _dbuf
  7025  001252  218B               	addwfc	(efgtoa@i+1)& (0+255),w,b
  7026  001254  6EDA               	movwf	fsr2h,c
  7027  001256  0E00               	movlw	0
  7028  001258  6EDF               	movwf	indf2,c
  7029  00125A                     
  7030                           ; BSR set to: 0
  7031                           ;/opt/microchip/xc8/v2.10/pic/sources/c99/common/doprnt.c: 479:         sign = 0;
  7032  00125A  0E00               	movlw	0
  7033  00125C  6F7B               	movwf	(efgtoa@sign+1)& (0+255),b
  7034  00125E  0E00               	movlw	0
  7035  001260  6F7A               	movwf	efgtoa@sign& (0+255),b
  7036  001262                     
  7037                           ; BSR set to: 0
  7038                           ;/opt/microchip/xc8/v2.10/pic/sources/c99/common/doprnt.c: 480:         if (e < 0) {
  7039  001262  BF91               	btfsc	(efgtoa@e+1)& (0+255),7,b
  7040  001264  EF38  F009         	goto	i2u567_40
  7041  001268  EF36  F009         	goto	i2u567_41
  7042  00126C                     i2u567_41:
  7043  00126C  EF40  F009         	goto	i2l4735
  7044  001270                     i2u567_40:
  7045  001270                     
  7046                           ; BSR set to: 0
  7047                           ;/opt/microchip/xc8/v2.10/pic/sources/c99/common/doprnt.c: 481:             sign = 1;
  7048  001270  0E00               	movlw	0
  7049  001272  6F7B               	movwf	(efgtoa@sign+1)& (0+255),b
  7050  001274  0E01               	movlw	1
  7051  001276  6F7A               	movwf	efgtoa@sign& (0+255),b
  7052  001278                     
  7053                           ; BSR set to: 0
  7054                           ;/opt/microchip/xc8/v2.10/pic/sources/c99/common/doprnt.c: 482:             e = -e;
  7055  001278  6D90               	negf	efgtoa@e& (0+255),b
  7056  00127A  1F91               	comf	(efgtoa@e+1)& (0+255),f,b
  7057  00127C  B0D8               	btfsc	status,0,c
  7058  00127E  2B91               	incf	(efgtoa@e+1)& (0+255),f,b
  7059  001280                     i2l4735:
  7060                           
  7061                           ; BSR set to: 0
  7062                           ;/opt/microchip/xc8/v2.10/pic/sources/c99/common/doprnt.c: 484:         p = 2;
  7063  001280  0E00               	movlw	0
  7064  001282  6F7D               	movwf	(efgtoa@p+1)& (0+255),b
  7065  001284  0E02               	movlw	2
  7066  001286  6F7C               	movwf	efgtoa@p& (0+255),b
  7067                           
  7068                           ;/opt/microchip/xc8/v2.10/pic/sources/c99/common/doprnt.c: 485:         while (e || (0 <
      +                           p)) {
  7069  001288  EF71  F009         	goto	i2l4747
  7070  00128C                     i2l4737:
  7071                           
  7072                           ; BSR set to: 0
  7073                           ;/opt/microchip/xc8/v2.10/pic/sources/c99/common/doprnt.c: 486:             --i;
  7074  00128C  078A               	decf	efgtoa@i& (0+255),f,b
  7075  00128E  A0D8               	btfss	status,0,c
  7076  001290  078B               	decf	(efgtoa@i+1)& (0+255),f,b
  7077  001292                     
  7078                           ; BSR set to: 0
  7079                           ;/opt/microchip/xc8/v2.10/pic/sources/c99/common/doprnt.c: 487:             dbuf[i] = '0
      +                          ' + (e % 10);
  7080  001292  0E00               	movlw	low _dbuf
  7081  001294  258A               	addwf	efgtoa@i& (0+255),w,b
  7082  001296  6ED9               	movwf	fsr2l,c
  7083  001298  0E01               	movlw	high _dbuf
  7084  00129A  218B               	addwfc	(efgtoa@i+1)& (0+255),w,b
  7085  00129C  6EDA               	movwf	fsr2h,c
  7086  00129E  C090  F001         	movff	efgtoa@e,___awmod@dividend
  7087  0012A2  C091  F002         	movff	efgtoa@e+1,___awmod@dividend+1
  7088  0012A6  0E00               	movlw	0
  7089  0012A8  6E04               	movwf	(___awmod@divisor+1)^0,c
  7090  0012AA  0E0A               	movlw	10
  7091  0012AC  6E03               	movwf	___awmod@divisor^0,c
  7092  0012AE  EC01  F023         	call	___awmod	;wreg free
  7093  0012B2  5001               	movf	?___awmod^0,w,c
  7094  0012B4  0F30               	addlw	48
  7095  0012B6  6EDF               	movwf	indf2,c
  7096  0012B8                     
  7097                           ;/opt/microchip/xc8/v2.10/pic/sources/c99/common/doprnt.c: 488:             e = e / 10;
  7098  0012B8  C090  F001         	movff	efgtoa@e,___awdiv@dividend
  7099  0012BC  C091  F002         	movff	efgtoa@e+1,___awdiv@dividend+1
  7100  0012C0  0E00               	movlw	0
  7101  0012C2  6E04               	movwf	(___awdiv@divisor+1)^0,c
  7102  0012C4  0E0A               	movlw	10
  7103  0012C6  6E03               	movwf	___awdiv@divisor^0,c
  7104  0012C8  ECE6  F021         	call	___awdiv	;wreg free
  7105  0012CC  C001  F090         	movff	?___awdiv,efgtoa@e
  7106  0012D0  C002  F091         	movff	?___awdiv+1,efgtoa@e+1
  7107  0012D4                     
  7108                           ;/opt/microchip/xc8/v2.10/pic/sources/c99/common/doprnt.c: 489:             --p;
  7109  0012D4  0100               	movlb	0	; () banked
  7110  0012D6  077C               	decf	efgtoa@p& (0+255),f,b
  7111  0012D8  A0D8               	btfss	status,0,c
  7112  0012DA  077D               	decf	(efgtoa@p+1)& (0+255),f,b
  7113  0012DC                     
  7114                           ; BSR set to: 0
  7115                           ;/opt/microchip/xc8/v2.10/pic/sources/c99/common/doprnt.c: 490:             --w;
  7116  0012DC  077F               	decf	efgtoa@w& (0+255),f,b
  7117  0012DE  A0D8               	btfss	status,0,c
  7118  0012E0  0780               	decf	(efgtoa@w+1)& (0+255),f,b
  7119  0012E2                     i2l4747:
  7120                           
  7121                           ; BSR set to: 0
  7122                           ;/opt/microchip/xc8/v2.10/pic/sources/c99/common/doprnt.c: 485:         while (e || (0 <
      +                           p)) {
  7123  0012E2  5190               	movf	efgtoa@e& (0+255),w,b
  7124  0012E4  1191               	iorwf	(efgtoa@e+1)& (0+255),w,b
  7125  0012E6  A4D8               	btfss	status,2,c
  7126  0012E8  EF78  F009         	goto	i2u568_41
  7127  0012EC  EF7A  F009         	goto	i2u568_40
  7128  0012F0                     i2u568_41:
  7129  0012F0  EF46  F009         	goto	i2l4737
  7130  0012F4                     i2u568_40:
  7131  0012F4                     
  7132                           ; BSR set to: 0
  7133  0012F4  BF7D               	btfsc	(efgtoa@p+1)& (0+255),7,b
  7134  0012F6  EF87  F009         	goto	i2u569_40
  7135  0012FA  517D               	movf	(efgtoa@p+1)& (0+255),w,b
  7136  0012FC  E106               	bnz	i2u569_41
  7137  0012FE  057C               	decf	efgtoa@p& (0+255),w,b
  7138  001300  B0D8               	btfsc	status,0,c
  7139  001302  EF85  F009         	goto	i2u569_41
  7140  001306  EF87  F009         	goto	i2u569_40
  7141  00130A                     i2u569_41:
  7142  00130A  EF46  F009         	goto	i2l4737
  7143  00130E                     i2u569_40:
  7144  00130E                     
  7145                           ; BSR set to: 0
  7146                           ;/opt/microchip/xc8/v2.10/pic/sources/c99/common/doprnt.c: 492:         --i;
  7147  00130E  078A               	decf	efgtoa@i& (0+255),f,b
  7148  001310  A0D8               	btfss	status,0,c
  7149  001312  078B               	decf	(efgtoa@i+1)& (0+255),f,b
  7150  001314                     
  7151                           ; BSR set to: 0
  7152                           ;/opt/microchip/xc8/v2.10/pic/sources/c99/common/doprnt.c: 493:         dbuf[i] = sign ?
      +                           '-' : '+';
  7153  001314  517A               	movf	efgtoa@sign& (0+255),w,b
  7154  001316  117B               	iorwf	(efgtoa@sign+1)& (0+255),w,b
  7155  001318  A4D8               	btfss	status,2,c
  7156  00131A  EF91  F009         	goto	i2u570_41
  7157  00131E  EF93  F009         	goto	i2u570_40
  7158  001322                     i2u570_41:
  7159  001322  EF99  F009         	goto	i2l4757
  7160  001326                     i2u570_40:
  7161  001326                     
  7162                           ; BSR set to: 0
  7163  001326  0E00               	movlw	0
  7164  001328  6F6B               	movwf	(_efgtoa$993+1)& (0+255),b
  7165  00132A  0E2B               	movlw	43
  7166  00132C  6F6A               	movwf	_efgtoa$993& (0+255),b
  7167  00132E  EF9D  F009         	goto	i2l4759
  7168  001332                     i2l4757:
  7169                           
  7170                           ; BSR set to: 0
  7171  001332  0E00               	movlw	0
  7172  001334  6F6B               	movwf	(_efgtoa$993+1)& (0+255),b
  7173  001336  0E2D               	movlw	45
  7174  001338  6F6A               	movwf	_efgtoa$993& (0+255),b
  7175  00133A                     i2l4759:
  7176                           
  7177                           ; BSR set to: 0
  7178  00133A  0E00               	movlw	low _dbuf
  7179  00133C  258A               	addwf	efgtoa@i& (0+255),w,b
  7180  00133E  6ED9               	movwf	fsr2l,c
  7181  001340  0E01               	movlw	high _dbuf
  7182  001342  218B               	addwfc	(efgtoa@i+1)& (0+255),w,b
  7183  001344  6EDA               	movwf	fsr2h,c
  7184  001346  C06A  FFDF         	movff	_efgtoa$993,indf2
  7185  00134A                     
  7186                           ; BSR set to: 0
  7187                           ;/opt/microchip/xc8/v2.10/pic/sources/c99/common/doprnt.c: 494:         --w;
  7188  00134A  077F               	decf	efgtoa@w& (0+255),f,b
  7189  00134C  A0D8               	btfss	status,0,c
  7190  00134E  0780               	decf	(efgtoa@w+1)& (0+255),f,b
  7191  001350                     
  7192                           ; BSR set to: 0
  7193                           ;/opt/microchip/xc8/v2.10/pic/sources/c99/common/doprnt.c: 496:         dbuf[i] = (0 ? i
      +                          supper((int)c) : ((unsigned)((int)c)-'A') < 26) ? 'E' : 'e';
  7194  001350  078A               	decf	efgtoa@i& (0+255),f,b
  7195  001352  A0D8               	btfss	status,0,c
  7196  001354  078B               	decf	(efgtoa@i+1)& (0+255),f,b
  7197  001356                     
  7198                           ; BSR set to: 0
  7199  001356  0EBF               	movlw	191
  7200  001358  6E46               	movwf	??_efgtoa^0,c
  7201  00135A  0EFF               	movlw	255
  7202  00135C  6E47               	movwf	(??_efgtoa+1)^0,c
  7203  00135E  5045               	movf	efgtoa@c^0,w,c
  7204  001360  6E48               	movwf	(??_efgtoa+2)^0,c
  7205  001362  6A49               	clrf	(??_efgtoa+3)^0,c
  7206  001364  5046               	movf	??_efgtoa^0,w,c
  7207  001366  2648               	addwf	(??_efgtoa+2)^0,f,c
  7208  001368  5047               	movf	(??_efgtoa+1)^0,w,c
  7209  00136A  2249               	addwfc	(??_efgtoa+3)^0,f,c
  7210  00136C  5049               	movf	(??_efgtoa+3)^0,w,c
  7211  00136E  E10A               	bnz	i2u571_40
  7212  001370  0E1A               	movlw	26
  7213  001372  5C48               	subwf	(??_efgtoa+2)^0,w,c
  7214  001374  A0D8               	btfss	status,0,c
  7215  001376  EFBF  F009         	goto	i2u571_41
  7216  00137A  EFC2  F009         	goto	i2u571_40
  7217  00137E                     i2u571_41:
  7218  00137E  0E01               	movlw	1
  7219  001380  EFC3  F009         	goto	i2u572_40
  7220  001384                     i2u571_40:
  7221  001384  0E00               	movlw	0
  7222  001386                     i2u572_40:
  7223  001386  6F6E               	movwf	_efgtoa$995& (0+255),b
  7224  001388  6B6F               	clrf	(_efgtoa$995+1)& (0+255),b
  7225  00138A                     
  7226                           ; BSR set to: 0
  7227  00138A  516E               	movf	_efgtoa$995& (0+255),w,b
  7228  00138C  116F               	iorwf	(_efgtoa$995+1)& (0+255),w,b
  7229  00138E  A4D8               	btfss	status,2,c
  7230  001390  EFCC  F009         	goto	i2u573_41
  7231  001394  EFCE  F009         	goto	i2u573_40
  7232  001398                     i2u573_41:
  7233  001398  EFD4  F009         	goto	i2l4773
  7234  00139C                     i2u573_40:
  7235  00139C                     
  7236                           ; BSR set to: 0
  7237  00139C  0E00               	movlw	0
  7238  00139E  6F6D               	movwf	(_efgtoa$994+1)& (0+255),b
  7239  0013A0  0E65               	movlw	101
  7240  0013A2  6F6C               	movwf	_efgtoa$994& (0+255),b
  7241  0013A4  EFD8  F009         	goto	i2l4775
  7242  0013A8                     i2l4773:
  7243                           
  7244                           ; BSR set to: 0
  7245  0013A8  0E00               	movlw	0
  7246  0013AA  6F6D               	movwf	(_efgtoa$994+1)& (0+255),b
  7247  0013AC  0E45               	movlw	69
  7248  0013AE  6F6C               	movwf	_efgtoa$994& (0+255),b
  7249  0013B0                     i2l4775:
  7250                           
  7251                           ; BSR set to: 0
  7252  0013B0  0E00               	movlw	low _dbuf
  7253  0013B2  258A               	addwf	efgtoa@i& (0+255),w,b
  7254  0013B4  6ED9               	movwf	fsr2l,c
  7255  0013B6  0E01               	movlw	high _dbuf
  7256  0013B8  218B               	addwfc	(efgtoa@i+1)& (0+255),w,b
  7257  0013BA  6EDA               	movwf	fsr2h,c
  7258  0013BC  C06C  FFDF         	movff	_efgtoa$994,indf2
  7259  0013C0                     
  7260                           ; BSR set to: 0
  7261                           ;/opt/microchip/xc8/v2.10/pic/sources/c99/common/doprnt.c: 497:         --w;
  7262  0013C0  077F               	decf	efgtoa@w& (0+255),f,b
  7263  0013C2  A0D8               	btfss	status,0,c
  7264  0013C4  0780               	decf	(efgtoa@w+1)& (0+255),f,b
  7265  0013C6                     
  7266                           ; BSR set to: 0
  7267                           ;/opt/microchip/xc8/v2.10/pic/sources/c99/common/doprnt.c: 498:         strcpy(&dbuf[n],
      +                           &dbuf[i]);
  7268  0013C6  0E00               	movlw	low _dbuf
  7269  0013C8  2592               	addwf	efgtoa@n& (0+255),w,b
  7270  0013CA  6E05               	movwf	strcpy@dest^0,c
  7271  0013CC  0E01               	movlw	high _dbuf
  7272  0013CE  2193               	addwfc	(efgtoa@n+1)& (0+255),w,b
  7273  0013D0  6E06               	movwf	(strcpy@dest+1)^0,c
  7274  0013D2  0E00               	movlw	low _dbuf
  7275  0013D4  258A               	addwf	efgtoa@i& (0+255),w,b
  7276  0013D6  6E07               	movwf	strcpy@src^0,c
  7277  0013D8  0E01               	movlw	high _dbuf
  7278  0013DA  218B               	addwfc	(efgtoa@i+1)& (0+255),w,b
  7279  0013DC  6E08               	movwf	(strcpy@src+1)^0,c
  7280  0013DE  ECA8  F025         	call	_strcpy	;wreg free
  7281  0013E2  EFCE  F004         	goto	i2l4531
  7282  0013E6                     i2l421:
  7283  0013E6  0012               	return		;funcret
  7284  0013E8                     __end_of_efgtoa:
  7285                           	opt callstack 0
  7286                           
  7287 ;; *************** function _tolower *****************
  7288 ;; Defined at:
  7289 ;;		line 4 in file "/opt/microchip/xc8/v2.10/pic/sources/c99/common/tolower.c"
  7290 ;; Parameters:    Size  Location     Type
  7291 ;;  c               2    6[COMRAM] int 
  7292 ;; Auto vars:     Size  Location     Type
  7293 ;;		None
  7294 ;; Return value:  Size  Location     Type
  7295 ;;                  2    6[COMRAM] int 
  7296 ;; Registers used:
  7297 ;;		wreg, status,2, status,0
  7298 ;; Tracked objects:
  7299 ;;		On entry : 0/0
  7300 ;;		On exit  : 0/0
  7301 ;;		Unchanged: 0/0
  7302 ;; Data sizes:     COMRAM   BANK0   BANK1   BANK2   BANK3   BANK4   BANK5   BANK6   BANK7
  7303 ;;      Params:         2       0       0       0       0       0       0       0       0
  7304 ;;      Locals:         2       0       0       0       0       0       0       0       0
  7305 ;;      Temps:          4       0       0       0       0       0       0       0       0
  7306 ;;      Totals:         8       0       0       0       0       0       0       0       0
  7307 ;;Total ram usage:        8 bytes
  7308 ;; Hardware stack levels used:    1
  7309 ;; Hardware stack levels required when called:    1
  7310 ;; This function calls:
  7311 ;;		_isupper
  7312 ;; This function is called by:
  7313 ;;		_efgtoa
  7314 ;;		_vfpfcnvrt
  7315 ;; This function uses a non-reentrant model
  7316 ;;
  7317                           
  7318                           	psect	text27
  7319  004AF0                     __ptext27:
  7320                           	opt callstack 0
  7321  004AF0                     _tolower:
  7322                           	opt callstack 20
  7323  004AF0  0EBF               	movlw	191
  7324  004AF2  6E09               	movwf	??_tolower^0,c
  7325  004AF4  0EFF               	movlw	255
  7326  004AF6  6E0A               	movwf	(??_tolower+1)^0,c
  7327  004AF8  C007  F00B         	movff	tolower@c,??_tolower+2
  7328  004AFC  C008  F00C         	movff	tolower@c+1,??_tolower+3
  7329  004B00  5009               	movf	??_tolower^0,w,c
  7330  004B02  260B               	addwf	(??_tolower+2)^0,f,c
  7331  004B04  500A               	movf	(??_tolower+1)^0,w,c
  7332  004B06  220C               	addwfc	(??_tolower+3)^0,f,c
  7333  004B08  500C               	movf	(??_tolower+3)^0,w,c
  7334  004B0A  E10A               	bnz	i2u407_40
  7335  004B0C  0E1A               	movlw	26
  7336  004B0E  5C0B               	subwf	(??_tolower+2)^0,w,c
  7337  004B10  A0D8               	btfss	status,0,c
  7338  004B12  EF8D  F025         	goto	i2u407_41
  7339  004B16  EF90  F025         	goto	i2u407_40
  7340  004B1A                     i2u407_41:
  7341  004B1A  0E01               	movlw	1
  7342  004B1C  EF91  F025         	goto	i2u408_40
  7343  004B20                     i2u407_40:
  7344  004B20  0E00               	movlw	0
  7345  004B22                     i2u408_40:
  7346  004B22  6E0D               	movwf	_tolower$1610^0,c
  7347  004B24  6A0E               	clrf	(_tolower$1610+1)^0,c
  7348  004B26  500D               	movf	_tolower$1610^0,w,c
  7349  004B28  100E               	iorwf	(_tolower$1610+1)^0,w,c
  7350  004B2A  B4D8               	btfsc	status,2,c
  7351  004B2C  EF9A  F025         	goto	i2u409_41
  7352  004B30  EF9C  F025         	goto	i2u409_40
  7353  004B34                     i2u409_41:
  7354  004B34  EFA3  F025         	goto	i2l1347
  7355  004B38                     i2u409_40:
  7356  004B38  0E20               	movlw	32
  7357  004B3A  1007               	iorwf	tolower@c^0,w,c
  7358  004B3C  6E07               	movwf	?_tolower^0,c
  7359  004B3E  5008               	movf	(tolower@c+1)^0,w,c
  7360  004B40  6E08               	movwf	(?_tolower+1)^0,c
  7361  004B42  EFA7  F025         	goto	i2l1352
  7362  004B46                     i2l1347:
  7363  004B46  C007  F007         	movff	tolower@c,?_tolower
  7364  004B4A  C008  F008         	movff	tolower@c+1,?_tolower+1
  7365  004B4E                     i2l1352:
  7366  004B4E  0012               	return		;funcret
  7367  004B50                     __end_of_tolower:
  7368                           	opt callstack 0
  7369                           
  7370 ;; *************** function _isupper *****************
  7371 ;; Defined at:
  7372 ;;		line 5 in file "/opt/microchip/xc8/v2.10/pic/sources/c99/common/isupper.c"
  7373 ;; Parameters:    Size  Location     Type
  7374 ;;  c               2    0[COMRAM] int 
  7375 ;; Auto vars:     Size  Location     Type
  7376 ;;		None
  7377 ;; Return value:  Size  Location     Type
  7378 ;;                  2    0[COMRAM] int 
  7379 ;; Registers used:
  7380 ;;		wreg, status,2, status,0
  7381 ;; Tracked objects:
  7382 ;;		On entry : 0/0
  7383 ;;		On exit  : 0/0
  7384 ;;		Unchanged: 0/0
  7385 ;; Data sizes:     COMRAM   BANK0   BANK1   BANK2   BANK3   BANK4   BANK5   BANK6   BANK7
  7386 ;;      Params:         2       0       0       0       0       0       0       0       0
  7387 ;;      Locals:         0       0       0       0       0       0       0       0       0
  7388 ;;      Temps:          4       0       0       0       0       0       0       0       0
  7389 ;;      Totals:         6       0       0       0       0       0       0       0       0
  7390 ;;Total ram usage:        6 bytes
  7391 ;; Hardware stack levels used:    1
  7392 ;; This function calls:
  7393 ;;		Nothing
  7394 ;; This function is called by:
  7395 ;;		_efgtoa
  7396 ;;		_vfpfcnvrt
  7397 ;;		_tolower
  7398 ;; This function uses a non-reentrant model
  7399 ;;
  7400                           
  7401                           	psect	text28
  7402  004DE6                     __ptext28:
  7403                           	opt callstack 0
  7404  004DE6                     _isupper:
  7405                           	opt callstack 20
  7406  004DE6  0EBF               	movlw	191
  7407  004DE8  6E03               	movwf	??_isupper^0,c
  7408  004DEA  0EFF               	movlw	255
  7409  004DEC  6E04               	movwf	(??_isupper+1)^0,c
  7410  004DEE  C001  F005         	movff	isupper@c,??_isupper+2
  7411  004DF2  C002  F006         	movff	isupper@c+1,??_isupper+3
  7412  004DF6  5003               	movf	??_isupper^0,w,c
  7413  004DF8  2605               	addwf	(??_isupper+2)^0,f,c
  7414  004DFA  5004               	movf	(??_isupper+1)^0,w,c
  7415  004DFC  2206               	addwfc	(??_isupper+3)^0,f,c
  7416  004DFE  5006               	movf	(??_isupper+3)^0,w,c
  7417  004E00  E10A               	bnz	i2u352_40
  7418  004E02  0E1A               	movlw	26
  7419  004E04  5C05               	subwf	(??_isupper+2)^0,w,c
  7420  004E06  A0D8               	btfss	status,0,c
  7421  004E08  EF08  F027         	goto	i2u352_41
  7422  004E0C  EF0B  F027         	goto	i2u352_40
  7423  004E10                     i2u352_41:
  7424  004E10  0E01               	movlw	1
  7425  004E12  EF0C  F027         	goto	i2u353_40
  7426  004E16                     i2u352_40:
  7427  004E16  0E00               	movlw	0
  7428  004E18                     i2u353_40:
  7429  004E18  6E01               	movwf	?_isupper^0,c
  7430  004E1A  6A02               	clrf	(?_isupper+1)^0,c
  7431  004E1C  0012               	return		;funcret
  7432  004E1E                     __end_of_isupper:
  7433                           	opt callstack 0
  7434                           
  7435 ;; *************** function _strcpy *****************
  7436 ;; Defined at:
  7437 ;;		line 3 in file "/opt/microchip/xc8/v2.10/pic/sources/c99/common/strcpy.c"
  7438 ;; Parameters:    Size  Location     Type
  7439 ;;  dest            2    4[COMRAM] PTR unsigned char 
  7440 ;;		 -> dbuf(80), INT_EX_0@data(10), 
  7441 ;;  src             2    6[COMRAM] PTR const unsigned char 
  7442 ;;		 -> STR_11(4), STR_10(4), STR_7(4), STR_6(4), 
  7443 ;;		 -> dbuf(80), STR_2(2), 
  7444 ;; Auto vars:     Size  Location     Type
  7445 ;;  d               2   12[COMRAM] PTR unsigned char 
  7446 ;;		 -> dbuf(80), INT_EX_0@data(10), 
  7447 ;;  s               2   10[COMRAM] PTR const unsigned char 
  7448 ;;		 -> STR_11(4), STR_10(4), STR_7(4), STR_6(4), 
  7449 ;;		 -> dbuf(80), STR_2(2), 
  7450 ;; Return value:  Size  Location     Type
  7451 ;;                  2    4[COMRAM] PTR unsigned char 
  7452 ;; Registers used:
  7453 ;;		wreg, fsr1l, fsr1h, fsr2l, fsr2h, status,2, status,0, tblptrl, tblptrh, tblptru
  7454 ;; Tracked objects:
  7455 ;;		On entry : 0/0
  7456 ;;		On exit  : 0/0
  7457 ;;		Unchanged: 0/0
  7458 ;; Data sizes:     COMRAM   BANK0   BANK1   BANK2   BANK3   BANK4   BANK5   BANK6   BANK7
  7459 ;;      Params:         4       0       0       0       0       0       0       0       0
  7460 ;;      Locals:         4       0       0       0       0       0       0       0       0
  7461 ;;      Temps:          2       0       0       0       0       0       0       0       0
  7462 ;;      Totals:        10       0       0       0       0       0       0       0       0
  7463 ;;Total ram usage:       10 bytes
  7464 ;; Hardware stack levels used:    1
  7465 ;; This function calls:
  7466 ;;		Nothing
  7467 ;; This function is called by:
  7468 ;;		_efgtoa
  7469 ;;		_strcat
  7470 ;; This function uses a non-reentrant model
  7471 ;;
  7472                           
  7473                           	psect	text29
  7474  004B50                     __ptext29:
  7475                           	opt callstack 0
  7476  004B50                     _strcpy:
  7477                           	opt callstack 23
  7478  004B50  C007  F00B         	movff	strcpy@src,strcpy@s
  7479  004B54  C008  F00C         	movff	strcpy@src+1,strcpy@s+1
  7480  004B58  C005  F00D         	movff	strcpy@dest,strcpy@d
  7481  004B5C  C006  F00E         	movff	strcpy@dest+1,strcpy@d+1
  7482  004B60                     i2l3839:
  7483  004B60  500B               	movf	strcpy@s^0,w,c
  7484  004B62  6E09               	movwf	??_strcpy^0,c
  7485  004B64  500C               	movf	(strcpy@s+1)^0,w,c
  7486  004B66  6E0A               	movwf	(??_strcpy+1)^0,c
  7487  004B68  4A0B               	infsnz	strcpy@s^0,f,c
  7488  004B6A  2A0C               	incf	(strcpy@s+1)^0,f,c
  7489  004B6C  C009  FFF6         	movff	??_strcpy,tblptrl
  7490  004B70  C00A  FFF7         	movff	??_strcpy+1,tblptrh
  7491  004B74  6AF8               	clrf	tblptru,c
  7492  004B76  C00D  FFD9         	movff	strcpy@d,fsr2l
  7493  004B7A  C00E  FFDA         	movff	strcpy@d+1,fsr2h
  7494  004B7E  4A0D               	infsnz	strcpy@d^0,f,c
  7495  004B80  2A0E               	incf	(strcpy@d+1)^0,f,c
  7496  004B82  0E07               	movlw	(high __ramtop+-1)
  7497  004B84  64F7               	cpfsgt	tblptrh,c
  7498  004B86  D003               	bra	i2u405_47
  7499  004B88  0008               	tblrd		*
  7500  004B8A  50F5               	movf	tablat,w,c
  7501  004B8C  D005               	bra	i2u405_40
  7502  004B8E                     i2u405_47:
  7503  004B8E  CFF6 FFE1          	movff	tblptrl,fsr1l
  7504  004B92  CFF7 FFE2          	movff	tblptrh,fsr1h
  7505  004B96  50E7               	movf	indf1,w,c
  7506  004B98                     i2u405_40:
  7507  004B98  6EDF               	movwf	indf2,c
  7508  004B9A  50DF               	movf	indf2,w,c
  7509  004B9C  A4D8               	btfss	status,2,c
  7510  004B9E  EFD3  F025         	goto	i2u406_41
  7511  004BA2  EFD5  F025         	goto	i2u406_40
  7512  004BA6                     i2u406_41:
  7513  004BA6  EFB0  F025         	goto	i2l3839
  7514  004BAA                     i2u406_40:
  7515  004BAA  0012               	return		;funcret
  7516  004BAC                     __end_of_strcpy:
  7517                           	opt callstack 0
  7518                           
  7519 ;; *************** function _floorf *****************
  7520 ;; Defined at:
  7521 ;;		line 3 in file "/opt/microchip/xc8/v2.10/pic/sources/c99/common/floorf.c"
  7522 ;; Parameters:    Size  Location     Type
  7523 ;;  x               4   25[COMRAM] float 
  7524 ;; Auto vars:     Size  Location     Type
  7525 ;;  u               4   41[COMRAM] struct .
  7526 ;;  m               4   35[COMRAM] unsigned long 
  7527 ;;  e               2   39[COMRAM] int 
  7528 ;; Return value:  Size  Location     Type
  7529 ;;                  4   25[COMRAM] float 
  7530 ;; Registers used:
  7531 ;;		wreg, status,2, status,0
  7532 ;; Tracked objects:
  7533 ;;		On entry : 0/0
  7534 ;;		On exit  : 0/0
  7535 ;;		Unchanged: 0/0
  7536 ;; Data sizes:     COMRAM   BANK0   BANK1   BANK2   BANK3   BANK4   BANK5   BANK6   BANK7
  7537 ;;      Params:         4       0       0       0       0       0       0       0       0
  7538 ;;      Locals:        10       0       0       0       0       0       0       0       0
  7539 ;;      Temps:          6       0       0       0       0       0       0       0       0
  7540 ;;      Totals:        20       0       0       0       0       0       0       0       0
  7541 ;;Total ram usage:       20 bytes
  7542 ;; Hardware stack levels used:    1
  7543 ;; This function calls:
  7544 ;;		Nothing
  7545 ;; This function is called by:
  7546 ;;		_efgtoa
  7547 ;; This function uses a non-reentrant model
  7548 ;;
  7549                           
  7550                           	psect	text30
  7551  002D76                     __ptext30:
  7552                           	opt callstack 0
  7553  002D76                     _floorf:
  7554                           	opt callstack 20
  7555  002D76  C0E8  F02A         	movff	floorf@F524,floorf@u
  7556  002D7A  C0E9  F02B         	movff	floorf@F524+1,floorf@u+1
  7557  002D7E  C0EA  F02C         	movff	floorf@F524+2,floorf@u+2
  7558  002D82  C0EB  F02D         	movff	floorf@F524+3,floorf@u+3
  7559  002D86  C01A  F02A         	movff	floorf@x,floorf@u
  7560  002D8A  C01B  F02B         	movff	floorf@x+1,floorf@u+1
  7561  002D8E  C01C  F02C         	movff	floorf@x+2,floorf@u+2
  7562  002D92  C01D  F02D         	movff	floorf@x+3,floorf@u+3
  7563  002D96  0E81               	movlw	129
  7564  002D98  6E1E               	movwf	??_floorf^0,c
  7565  002D9A  0EFF               	movlw	255
  7566  002D9C  6E1F               	movwf	(??_floorf+1)^0,c
  7567  002D9E  C02A  F020         	movff	floorf@u,??_floorf+2
  7568  002DA2  C02B  F021         	movff	floorf@u+1,??_floorf+3
  7569  002DA6  C02C  F022         	movff	floorf@u+2,??_floorf+4
  7570  002DAA  C02D  F023         	movff	floorf@u+3,??_floorf+5
  7571  002DAE  0E18               	movlw	24
  7572  002DB0  EFDF  F016         	goto	i2u410_40
  7573  002DB4                     i2u410_45:
  7574  002DB4  90D8               	bcf	status,0,c
  7575  002DB6  3223               	rrcf	(??_floorf+5)^0,f,c
  7576  002DB8  3222               	rrcf	(??_floorf+4)^0,f,c
  7577  002DBA  3221               	rrcf	(??_floorf+3)^0,f,c
  7578  002DBC  3220               	rrcf	(??_floorf+2)^0,f,c
  7579  002DBE                     i2u410_40:
  7580  002DBE  2EE8               	decfsz	wreg,f,c
  7581  002DC0  EFDA  F016         	goto	i2u410_45
  7582  002DC4  5020               	movf	(??_floorf+2)^0,w,c
  7583  002DC6  241E               	addwf	??_floorf^0,w,c
  7584  002DC8  6E28               	movwf	floorf@e^0,c
  7585  002DCA  0E00               	movlw	0
  7586  002DCC  201F               	addwfc	(??_floorf+1)^0,w,c
  7587  002DCE  6E29               	movwf	(floorf@e+1)^0,c
  7588  002DD0  BE29               	btfsc	(floorf@e+1)^0,7,c
  7589  002DD2  EFF4  F016         	goto	i2u411_41
  7590  002DD6  5029               	movf	(floorf@e+1)^0,w,c
  7591  002DD8  E109               	bnz	i2u411_40
  7592  002DDA  0E17               	movlw	23
  7593  002DDC  5C28               	subwf	floorf@e^0,w,c
  7594  002DDE  A0D8               	btfss	status,0,c
  7595  002DE0  EFF4  F016         	goto	i2u411_41
  7596  002DE4  EFF6  F016         	goto	i2u411_40
  7597  002DE8                     i2u411_41:
  7598  002DE8  EF00  F017         	goto	i2l3857
  7599  002DEC                     i2u411_40:
  7600  002DEC                     i2l3855:
  7601  002DEC  C01A  F01A         	movff	floorf@x,?_floorf
  7602  002DF0  C01B  F01B         	movff	floorf@x+1,?_floorf+1
  7603  002DF4  C01C  F01C         	movff	floorf@x+2,?_floorf+2
  7604  002DF8  C01D  F01D         	movff	floorf@x+3,?_floorf+3
  7605  002DFC  EFC3  F017         	goto	i2l1257
  7606  002E00                     i2l3857:
  7607  002E00  BE29               	btfsc	(floorf@e+1)^0,7,c
  7608  002E02  EF05  F017         	goto	i2u412_41
  7609  002E06  EF07  F017         	goto	i2u412_40
  7610  002E0A                     i2u412_41:
  7611  002E0A  EF77  F017         	goto	i2l3867
  7612  002E0E                     i2u412_40:
  7613  002E0E  C028  F01E         	movff	floorf@e,??_floorf
  7614  002E12  0EFF               	movlw	255
  7615  002E14  6E1F               	movwf	(??_floorf+1)^0,c
  7616  002E16  0EFF               	movlw	255
  7617  002E18  6E20               	movwf	(??_floorf+2)^0,c
  7618  002E1A  0E7F               	movlw	127
  7619  002E1C  6E21               	movwf	(??_floorf+3)^0,c
  7620  002E1E  0E00               	movlw	0
  7621  002E20  6E22               	movwf	(??_floorf+4)^0,c
  7622  002E22                     i2u413_45:
  7623  002E22  661E               	tstfsz	??_floorf^0,c
  7624  002E24  EF16  F017         	goto	i2u413_46
  7625  002E28  EF1E  F017         	goto	i2u413_47
  7626  002E2C                     i2u413_46:
  7627  002E2C  3422               	rlcf	(??_floorf+4)^0,w,c
  7628  002E2E  3222               	rrcf	(??_floorf+4)^0,f,c
  7629  002E30  3221               	rrcf	(??_floorf+3)^0,f,c
  7630  002E32  3220               	rrcf	(??_floorf+2)^0,f,c
  7631  002E34  321F               	rrcf	(??_floorf+1)^0,f,c
  7632  002E36  2E1E               	decfsz	??_floorf^0,f,c
  7633  002E38  EF11  F017         	goto	i2u413_45
  7634  002E3C                     i2u413_47:
  7635  002E3C  C01F  F024         	movff	??_floorf+1,floorf@m
  7636  002E40  C020  F025         	movff	??_floorf+2,floorf@m+1
  7637  002E44  C021  F026         	movff	??_floorf+3,floorf@m+2
  7638  002E48  C022  F027         	movff	??_floorf+4,floorf@m+3
  7639  002E4C  5024               	movf	floorf@m^0,w,c
  7640  002E4E  142A               	andwf	floorf@u^0,w,c
  7641  002E50  6E1E               	movwf	??_floorf^0,c
  7642  002E52  5025               	movf	(floorf@m+1)^0,w,c
  7643  002E54  142B               	andwf	(floorf@u+1)^0,w,c
  7644  002E56  6E1F               	movwf	(??_floorf+1)^0,c
  7645  002E58  5026               	movf	(floorf@m+2)^0,w,c
  7646  002E5A  142C               	andwf	(floorf@u+2)^0,w,c
  7647  002E5C  6E20               	movwf	(??_floorf+2)^0,c
  7648  002E5E  5027               	movf	(floorf@m+3)^0,w,c
  7649  002E60  142D               	andwf	(floorf@u+3)^0,w,c
  7650  002E62  6E21               	movwf	(??_floorf+3)^0,c
  7651  002E64  501E               	movf	??_floorf^0,w,c
  7652  002E66  101F               	iorwf	(??_floorf+1)^0,w,c
  7653  002E68  1020               	iorwf	(??_floorf+2)^0,w,c
  7654  002E6A  1021               	iorwf	(??_floorf+3)^0,w,c
  7655  002E6C  A4D8               	btfss	status,2,c
  7656  002E6E  EF3B  F017         	goto	i2u414_41
  7657  002E72  EF3D  F017         	goto	i2u414_40
  7658  002E76                     i2u414_41:
  7659  002E76  EF3F  F017         	goto	i2l3863
  7660  002E7A                     i2u414_40:
  7661  002E7A  EFF6  F016         	goto	i2l3855
  7662  002E7E                     i2l3863:
  7663  002E7E  C02A  F01E         	movff	floorf@u,??_floorf
  7664  002E82  C02B  F01F         	movff	floorf@u+1,??_floorf+1
  7665  002E86  C02C  F020         	movff	floorf@u+2,??_floorf+2
  7666  002E8A  C02D  F021         	movff	floorf@u+3,??_floorf+3
  7667  002E8E  0E20               	movlw	32
  7668  002E90  EF4F  F017         	goto	i2u415_40
  7669  002E94                     i2u415_45:
  7670  002E94  90D8               	bcf	status,0,c
  7671  002E96  3221               	rrcf	(??_floorf+3)^0,f,c
  7672  002E98  3220               	rrcf	(??_floorf+2)^0,f,c
  7673  002E9A  321F               	rrcf	(??_floorf+1)^0,f,c
  7674  002E9C  321E               	rrcf	??_floorf^0,f,c
  7675  002E9E                     i2u415_40:
  7676  002E9E  2EE8               	decfsz	wreg,f,c
  7677  002EA0  EF4A  F017         	goto	i2u415_45
  7678  002EA4  501E               	movf	??_floorf^0,w,c
  7679  002EA6  101F               	iorwf	(??_floorf+1)^0,w,c
  7680  002EA8  1020               	iorwf	(??_floorf+2)^0,w,c
  7681  002EAA  1021               	iorwf	(??_floorf+3)^0,w,c
  7682  002EAC  B4D8               	btfsc	status,2,c
  7683  002EAE  EF5B  F017         	goto	i2u416_41
  7684  002EB2  EF5D  F017         	goto	i2u416_40
  7685  002EB6                     i2u416_41:
  7686  002EB6  EF65  F017         	goto	i2l1260
  7687  002EBA                     i2u416_40:
  7688  002EBA  5024               	movf	floorf@m^0,w,c
  7689  002EBC  262A               	addwf	floorf@u^0,f,c
  7690  002EBE  5025               	movf	(floorf@m+1)^0,w,c
  7691  002EC0  222B               	addwfc	(floorf@u+1)^0,f,c
  7692  002EC2  5026               	movf	(floorf@m+2)^0,w,c
  7693  002EC4  222C               	addwfc	(floorf@u+2)^0,f,c
  7694  002EC6  5027               	movf	(floorf@m+3)^0,w,c
  7695  002EC8  222D               	addwfc	(floorf@u+3)^0,f,c
  7696  002ECA                     i2l1260:
  7697  002ECA  1C24               	comf	floorf@m^0,w,c
  7698  002ECC  6E1E               	movwf	??_floorf^0,c
  7699  002ECE  1C25               	comf	(floorf@m+1)^0,w,c
  7700  002ED0  6E1F               	movwf	(??_floorf+1)^0,c
  7701  002ED2  1C26               	comf	(floorf@m+2)^0,w,c
  7702  002ED4  6E20               	movwf	(??_floorf+2)^0,c
  7703  002ED6  1C27               	comf	(floorf@m+3)^0,w,c
  7704  002ED8  6E21               	movwf	(??_floorf+3)^0,c
  7705  002EDA  501E               	movf	??_floorf^0,w,c
  7706  002EDC  162A               	andwf	floorf@u^0,f,c
  7707  002EDE  501F               	movf	(??_floorf+1)^0,w,c
  7708  002EE0  162B               	andwf	(floorf@u+1)^0,f,c
  7709  002EE2  5020               	movf	(??_floorf+2)^0,w,c
  7710  002EE4  162C               	andwf	(floorf@u+2)^0,f,c
  7711  002EE6  5021               	movf	(??_floorf+3)^0,w,c
  7712  002EE8  162D               	andwf	(floorf@u+3)^0,f,c
  7713  002EEA  EFBB  F017         	goto	i2l3875
  7714  002EEE                     i2l3867:
  7715  002EEE  C02A  F01E         	movff	floorf@u,??_floorf
  7716  002EF2  C02B  F01F         	movff	floorf@u+1,??_floorf+1
  7717  002EF6  C02C  F020         	movff	floorf@u+2,??_floorf+2
  7718  002EFA  C02D  F021         	movff	floorf@u+3,??_floorf+3
  7719  002EFE  0E20               	movlw	32
  7720  002F00  EF87  F017         	goto	i2u417_40
  7721  002F04                     i2u417_45:
  7722  002F04  90D8               	bcf	status,0,c
  7723  002F06  3221               	rrcf	(??_floorf+3)^0,f,c
  7724  002F08  3220               	rrcf	(??_floorf+2)^0,f,c
  7725  002F0A  321F               	rrcf	(??_floorf+1)^0,f,c
  7726  002F0C  321E               	rrcf	??_floorf^0,f,c
  7727  002F0E                     i2u417_40:
  7728  002F0E  2EE8               	decfsz	wreg,f,c
  7729  002F10  EF82  F017         	goto	i2u417_45
  7730  002F14  501E               	movf	??_floorf^0,w,c
  7731  002F16  101F               	iorwf	(??_floorf+1)^0,w,c
  7732  002F18  1020               	iorwf	(??_floorf+2)^0,w,c
  7733  002F1A  1021               	iorwf	(??_floorf+3)^0,w,c
  7734  002F1C  A4D8               	btfss	status,2,c
  7735  002F1E  EF93  F017         	goto	i2u418_41
  7736  002F22  EF95  F017         	goto	i2u418_40
  7737  002F26                     i2u418_41:
  7738  002F26  EF9F  F017         	goto	i2l3871
  7739  002F2A                     i2u418_40:
  7740  002F2A  0E00               	movlw	0
  7741  002F2C  6E2A               	movwf	floorf@u^0,c
  7742  002F2E  0E00               	movlw	0
  7743  002F30  6E2B               	movwf	(floorf@u+1)^0,c
  7744  002F32  0E00               	movlw	0
  7745  002F34  6E2C               	movwf	(floorf@u+2)^0,c
  7746  002F36  0E00               	movlw	0
  7747  002F38  6E2D               	movwf	(floorf@u+3)^0,c
  7748  002F3A  EFBB  F017         	goto	i2l3875
  7749  002F3E                     i2l3871:
  7750  002F3E  90D8               	bcf	status,0,c
  7751  002F40  342A               	rlcf	floorf@u^0,w,c
  7752  002F42  6E1E               	movwf	??_floorf^0,c
  7753  002F44  342B               	rlcf	(floorf@u+1)^0,w,c
  7754  002F46  6E1F               	movwf	(??_floorf+1)^0,c
  7755  002F48  342C               	rlcf	(floorf@u+2)^0,w,c
  7756  002F4A  6E20               	movwf	(??_floorf+2)^0,c
  7757  002F4C  342D               	rlcf	(floorf@u+3)^0,w,c
  7758  002F4E  6E21               	movwf	(??_floorf+3)^0,c
  7759  002F50  501E               	movf	??_floorf^0,w,c
  7760  002F52  101F               	iorwf	(??_floorf+1)^0,w,c
  7761  002F54  1020               	iorwf	(??_floorf+2)^0,w,c
  7762  002F56  1021               	iorwf	(??_floorf+3)^0,w,c
  7763  002F58  B4D8               	btfsc	status,2,c
  7764  002F5A  EFB1  F017         	goto	i2u419_41
  7765  002F5E  EFB3  F017         	goto	i2u419_40
  7766  002F62                     i2u419_41:
  7767  002F62  EFBB  F017         	goto	i2l3875
  7768  002F66                     i2u419_40:
  7769  002F66  0E00               	movlw	0
  7770  002F68  6E2A               	movwf	floorf@u^0,c
  7771  002F6A  0E00               	movlw	0
  7772  002F6C  6E2B               	movwf	(floorf@u+1)^0,c
  7773  002F6E  0E80               	movlw	128
  7774  002F70  6E2C               	movwf	(floorf@u+2)^0,c
  7775  002F72  0EBF               	movlw	191
  7776  002F74  6E2D               	movwf	(floorf@u+3)^0,c
  7777  002F76                     i2l3875:
  7778  002F76  C02A  F01A         	movff	floorf@u,?_floorf
  7779  002F7A  C02B  F01B         	movff	floorf@u+1,?_floorf+1
  7780  002F7E  C02C  F01C         	movff	floorf@u+2,?_floorf+2
  7781  002F82  C02D  F01D         	movff	floorf@u+3,?_floorf+3
  7782  002F86                     i2l1257:
  7783  002F86  0012               	return		;funcret
  7784  002F88                     __end_of_floorf:
  7785                           	opt callstack 0
  7786                           
  7787 ;; *************** function ___fpclassifyf *****************
  7788 ;; Defined at:
  7789 ;;		line 4 in file "/opt/microchip/xc8/v2.10/pic/sources/c99/common/__fpclassifyf.c"
  7790 ;; Parameters:    Size  Location     Type
  7791 ;;  x               4    0[COMRAM] float 
  7792 ;; Auto vars:     Size  Location     Type
  7793 ;;  u               4   10[COMRAM] struct .
  7794 ;;  e               2    8[COMRAM] int 
  7795 ;; Return value:  Size  Location     Type
  7796 ;;                  2    0[COMRAM] int 
  7797 ;; Registers used:
  7798 ;;		wreg, status,2, status,0
  7799 ;; Tracked objects:
  7800 ;;		On entry : 0/0
  7801 ;;		On exit  : 0/0
  7802 ;;		Unchanged: 0/0
  7803 ;; Data sizes:     COMRAM   BANK0   BANK1   BANK2   BANK3   BANK4   BANK5   BANK6   BANK7
  7804 ;;      Params:         4       0       0       0       0       0       0       0       0
  7805 ;;      Locals:         6       0       0       0       0       0       0       0       0
  7806 ;;      Temps:          4       0       0       0       0       0       0       0       0
  7807 ;;      Totals:        14       0       0       0       0       0       0       0       0
  7808 ;;Total ram usage:       14 bytes
  7809 ;; Hardware stack levels used:    1
  7810 ;; This function calls:
  7811 ;;		Nothing
  7812 ;; This function is called by:
  7813 ;;		_efgtoa
  7814 ;; This function uses a non-reentrant model
  7815 ;;
  7816                           
  7817                           	psect	text31
  7818  003EBA                     __ptext31:
  7819                           	opt callstack 0
  7820  003EBA                     ___fpclassifyf:
  7821                           	opt callstack 20
  7822  003EBA  C0EC  F00B         	movff	___fpclassifyf@F463,___fpclassifyf@u
  7823  003EBE  C0ED  F00C         	movff	___fpclassifyf@F463+1,___fpclassifyf@u+1
  7824  003EC2  C0EE  F00D         	movff	___fpclassifyf@F463+2,___fpclassifyf@u+2
  7825  003EC6  C0EF  F00E         	movff	___fpclassifyf@F463+3,___fpclassifyf@u+3
  7826  003ECA  C001  F00B         	movff	___fpclassifyf@x,___fpclassifyf@u
  7827  003ECE  C002  F00C         	movff	___fpclassifyf@x+1,___fpclassifyf@u+1
  7828  003ED2  C003  F00D         	movff	___fpclassifyf@x+2,___fpclassifyf@u+2
  7829  003ED6  C004  F00E         	movff	___fpclassifyf@x+3,___fpclassifyf@u+3
  7830  003EDA  C00B  F005         	movff	___fpclassifyf@u,??___fpclassifyf
  7831  003EDE  C00C  F006         	movff	___fpclassifyf@u+1,??___fpclassifyf+1
  7832  003EE2  C00D  F007         	movff	___fpclassifyf@u+2,??___fpclassifyf+2
  7833  003EE6  C00E  F008         	movff	___fpclassifyf@u+3,??___fpclassifyf+3
  7834  003EEA  0E18               	movlw	24
  7835  003EEC  EF7D  F01F         	goto	i2u398_40
  7836  003EF0                     i2u398_45:
  7837  003EF0  90D8               	bcf	status,0,c
  7838  003EF2  3208               	rrcf	(??___fpclassifyf+3)^0,f,c
  7839  003EF4  3207               	rrcf	(??___fpclassifyf+2)^0,f,c
  7840  003EF6  3206               	rrcf	(??___fpclassifyf+1)^0,f,c
  7841  003EF8  3205               	rrcf	??___fpclassifyf^0,f,c
  7842  003EFA                     i2u398_40:
  7843  003EFA  2EE8               	decfsz	wreg,f,c
  7844  003EFC  EF78  F01F         	goto	i2u398_45
  7845  003F00  5005               	movf	??___fpclassifyf^0,w,c
  7846  003F02  6E09               	movwf	___fpclassifyf@e^0,c
  7847  003F04  6A0A               	clrf	(___fpclassifyf@e+1)^0,c
  7848  003F06  5009               	movf	___fpclassifyf@e^0,w,c
  7849  003F08  100A               	iorwf	(___fpclassifyf@e+1)^0,w,c
  7850  003F0A  A4D8               	btfss	status,2,c
  7851  003F0C  EF8A  F01F         	goto	i2u399_41
  7852  003F10  EF8C  F01F         	goto	i2u399_40
  7853  003F14                     i2u399_41:
  7854  003F14  EFAC  F01F         	goto	i2l3827
  7855  003F18                     i2u399_40:
  7856  003F18  90D8               	bcf	status,0,c
  7857  003F1A  340B               	rlcf	___fpclassifyf@u^0,w,c
  7858  003F1C  6E05               	movwf	??___fpclassifyf^0,c
  7859  003F1E  340C               	rlcf	(___fpclassifyf@u+1)^0,w,c
  7860  003F20  6E06               	movwf	(??___fpclassifyf+1)^0,c
  7861  003F22  340D               	rlcf	(___fpclassifyf@u+2)^0,w,c
  7862  003F24  6E07               	movwf	(??___fpclassifyf+2)^0,c
  7863  003F26  340E               	rlcf	(___fpclassifyf@u+3)^0,w,c
  7864  003F28  6E08               	movwf	(??___fpclassifyf+3)^0,c
  7865  003F2A  5005               	movf	??___fpclassifyf^0,w,c
  7866  003F2C  1006               	iorwf	(??___fpclassifyf+1)^0,w,c
  7867  003F2E  1007               	iorwf	(??___fpclassifyf+2)^0,w,c
  7868  003F30  1008               	iorwf	(??___fpclassifyf+3)^0,w,c
  7869  003F32  A4D8               	btfss	status,2,c
  7870  003F34  EF9E  F01F         	goto	i2u400_41
  7871  003F38  EFA0  F01F         	goto	i2u400_40
  7872  003F3C                     i2u400_41:
  7873  003F3C  EFA6  F01F         	goto	i2l3823
  7874  003F40                     i2u400_40:
  7875  003F40  0E00               	movlw	0
  7876  003F42  6E02               	movwf	(?___fpclassifyf+1)^0,c
  7877  003F44  0E02               	movlw	2
  7878  003F46  6E01               	movwf	?___fpclassifyf^0,c
  7879  003F48  EFDB  F01F         	goto	i2l1212
  7880  003F4C                     i2l3823:
  7881  003F4C  0E00               	movlw	0
  7882  003F4E  6E02               	movwf	(?___fpclassifyf+1)^0,c
  7883  003F50  0E03               	movlw	3
  7884  003F52  6E01               	movwf	?___fpclassifyf^0,c
  7885  003F54  EFDB  F01F         	goto	i2l1212
  7886  003F58                     i2l3827:
  7887  003F58  2809               	incf	___fpclassifyf@e^0,w,c
  7888  003F5A  100A               	iorwf	(___fpclassifyf@e+1)^0,w,c
  7889  003F5C  A4D8               	btfss	status,2,c
  7890  003F5E  EFB3  F01F         	goto	i2u401_41
  7891  003F62  EFB5  F01F         	goto	i2u401_40
  7892  003F66                     i2u401_41:
  7893  003F66  EFD7  F01F         	goto	i2l3833
  7894  003F6A                     i2u401_40:
  7895  003F6A  C00B  F005         	movff	___fpclassifyf@u,??___fpclassifyf
  7896  003F6E  C00C  F006         	movff	___fpclassifyf@u+1,??___fpclassifyf+1
  7897  003F72  C00D  F007         	movff	___fpclassifyf@u+2,??___fpclassifyf+2
  7898  003F76  C00E  F008         	movff	___fpclassifyf@u+3,??___fpclassifyf+3
  7899  003F7A  0E09               	movlw	9
  7900  003F7C                     i2u402_45:
  7901  003F7C  90D8               	bcf	status,0,c
  7902  003F7E  3605               	rlcf	??___fpclassifyf^0,f,c
  7903  003F80  3606               	rlcf	(??___fpclassifyf+1)^0,f,c
  7904  003F82  3607               	rlcf	(??___fpclassifyf+2)^0,f,c
  7905  003F84  3608               	rlcf	(??___fpclassifyf+3)^0,f,c
  7906  003F86  2EE8               	decfsz	wreg,f,c
  7907  003F88  EFBE  F01F         	goto	i2u402_45
  7908  003F8C  5005               	movf	??___fpclassifyf^0,w,c
  7909  003F8E  1006               	iorwf	(??___fpclassifyf+1)^0,w,c
  7910  003F90  1007               	iorwf	(??___fpclassifyf+2)^0,w,c
  7911  003F92  1008               	iorwf	(??___fpclassifyf+3)^0,w,c
  7912  003F94  B4D8               	btfsc	status,2,c
  7913  003F96  EFCF  F01F         	goto	i2u403_41
  7914  003F9A  EFD2  F01F         	goto	i2u403_40
  7915  003F9E                     i2u403_41:
  7916  003F9E  0E01               	movlw	1
  7917  003FA0  EFD3  F01F         	goto	i2u404_40
  7918  003FA4                     i2u403_40:
  7919  003FA4  0E00               	movlw	0
  7920  003FA6                     i2u404_40:
  7921  003FA6  6E01               	movwf	?___fpclassifyf^0,c
  7922  003FA8  6A02               	clrf	(?___fpclassifyf+1)^0,c
  7923  003FAA  EFDB  F01F         	goto	i2l1212
  7924  003FAE                     i2l3833:
  7925  003FAE  0E00               	movlw	0
  7926  003FB0  6E02               	movwf	(?___fpclassifyf+1)^0,c
  7927  003FB2  0E04               	movlw	4
  7928  003FB4  6E01               	movwf	?___fpclassifyf^0,c
  7929  003FB6                     i2l1212:
  7930  003FB6  0012               	return		;funcret
  7931  003FB8                     __end_of___fpclassifyf:
  7932                           	opt callstack 0
  7933                           
  7934 ;; *************** function ___fltol *****************
  7935 ;; Defined at:
  7936 ;;		line 43 in file "/opt/microchip/xc8/v2.10/pic/sources/c99/common/fltol.c"
  7937 ;; Parameters:    Size  Location     Type
  7938 ;;  f1              4   50[COMRAM] int 
  7939 ;; Auto vars:     Size  Location     Type
  7940 ;;  exp1            1   59[COMRAM] unsigned char 
  7941 ;;  sign1           1   58[COMRAM] unsigned char 
  7942 ;; Return value:  Size  Location     Type
  7943 ;;                  4   50[COMRAM] long 
  7944 ;; Registers used:
  7945 ;;		wreg, status,2, status,0
  7946 ;; Tracked objects:
  7947 ;;		On entry : 0/0
  7948 ;;		On exit  : 0/0
  7949 ;;		Unchanged: 0/0
  7950 ;; Data sizes:     COMRAM   BANK0   BANK1   BANK2   BANK3   BANK4   BANK5   BANK6   BANK7
  7951 ;;      Params:         4       0       0       0       0       0       0       0       0
  7952 ;;      Locals:         2       0       0       0       0       0       0       0       0
  7953 ;;      Temps:          4       0       0       0       0       0       0       0       0
  7954 ;;      Totals:        10       0       0       0       0       0       0       0       0
  7955 ;;Total ram usage:       10 bytes
  7956 ;; Hardware stack levels used:    1
  7957 ;; This function calls:
  7958 ;;		Nothing
  7959 ;; This function is called by:
  7960 ;;		_INT_EX_0
  7961 ;;		_efgtoa
  7962 ;; This function uses a non-reentrant model
  7963 ;;
  7964                           
  7965                           	psect	text32
  7966  003CB0                     __ptext32:
  7967                           	opt callstack 0
  7968  003CB0                     ___fltol:
  7969                           	opt callstack 20
  7970  003CB0  3435               	rlcf	(___fltol@f1+2)^0,w,c
  7971  003CB2  3436               	rlcf	(___fltol@f1+3)^0,w,c
  7972  003CB4  6E3C               	movwf	___fltol@exp1^0,c
  7973  003CB6  503C               	movf	___fltol@exp1^0,w,c
  7974  003CB8  A4D8               	btfss	status,2,c
  7975  003CBA  EF61  F01E         	goto	i2u498_41
  7976  003CBE  EF63  F01E         	goto	i2u498_40
  7977  003CC2                     i2u498_41:
  7978  003CC2  EF6D  F01E         	goto	i2l4375
  7979  003CC6                     i2u498_40:
  7980  003CC6                     i2l4371:
  7981  003CC6  0E00               	movlw	0
  7982  003CC8  6E33               	movwf	?___fltol^0,c
  7983  003CCA  0E00               	movlw	0
  7984  003CCC  6E34               	movwf	(?___fltol+1)^0,c
  7985  003CCE  0E00               	movlw	0
  7986  003CD0  6E35               	movwf	(?___fltol+2)^0,c
  7987  003CD2  0E00               	movlw	0
  7988  003CD4  6E36               	movwf	(?___fltol+3)^0,c
  7989  003CD6  EFDA  F01E         	goto	i2l828
  7990  003CDA                     i2l4375:
  7991  003CDA  C033  F037         	movff	___fltol@f1,??___fltol
  7992  003CDE  C034  F038         	movff	___fltol@f1+1,??___fltol+1
  7993  003CE2  C035  F039         	movff	___fltol@f1+2,??___fltol+2
  7994  003CE6  C036  F03A         	movff	___fltol@f1+3,??___fltol+3
  7995  003CEA  0E20               	movlw	32
  7996  003CEC  EF7D  F01E         	goto	i2u499_40
  7997  003CF0                     i2u499_45:
  7998  003CF0  90D8               	bcf	status,0,c
  7999  003CF2  323A               	rrcf	(??___fltol+3)^0,f,c
  8000  003CF4  3239               	rrcf	(??___fltol+2)^0,f,c
  8001  003CF6  3238               	rrcf	(??___fltol+1)^0,f,c
  8002  003CF8  3237               	rrcf	??___fltol^0,f,c
  8003  003CFA                     i2u499_40:
  8004  003CFA  2EE8               	decfsz	wreg,f,c
  8005  003CFC  EF78  F01E         	goto	i2u499_45
  8006  003D00  5037               	movf	??___fltol^0,w,c
  8007  003D02  6E3B               	movwf	___fltol@sign1^0,c
  8008  003D04  8E35               	bsf	(___fltol@f1+2)^0,7,c
  8009  003D06  0EFF               	movlw	255
  8010  003D08  1633               	andwf	___fltol@f1^0,f,c
  8011  003D0A  0EFF               	movlw	255
  8012  003D0C  1634               	andwf	(___fltol@f1+1)^0,f,c
  8013  003D0E  0EFF               	movlw	255
  8014  003D10  1635               	andwf	(___fltol@f1+2)^0,f,c
  8015  003D12  0E00               	movlw	0
  8016  003D14  1636               	andwf	(___fltol@f1+3)^0,f,c
  8017  003D16  0E96               	movlw	150
  8018  003D18  5E3C               	subwf	___fltol@exp1^0,f,c
  8019  003D1A  BE3C               	btfsc	___fltol@exp1^0,7,c
  8020  003D1C  EF94  F01E         	goto	i2u500_40
  8021  003D20  EF92  F01E         	goto	i2u500_41
  8022  003D24                     i2u500_41:
  8023  003D24  EFAA  F01E         	goto	i2l4395
  8024  003D28                     i2u500_40:
  8025  003D28  503C               	movf	___fltol@exp1^0,w,c
  8026  003D2A  0A80               	xorlw	128
  8027  003D2C  0F97               	addlw	151
  8028  003D2E  B0D8               	btfsc	status,0,c
  8029  003D30  EF9C  F01E         	goto	i2u501_41
  8030  003D34  EF9E  F01E         	goto	i2u501_40
  8031  003D38                     i2u501_41:
  8032  003D38  EFA0  F01E         	goto	i2l4391
  8033  003D3C                     i2u501_40:
  8034  003D3C  EF63  F01E         	goto	i2l4371
  8035  003D40                     i2l4391:
  8036  003D40  90D8               	bcf	status,0,c
  8037  003D42  3236               	rrcf	(___fltol@f1+3)^0,f,c
  8038  003D44  3235               	rrcf	(___fltol@f1+2)^0,f,c
  8039  003D46  3234               	rrcf	(___fltol@f1+1)^0,f,c
  8040  003D48  3233               	rrcf	___fltol@f1^0,f,c
  8041  003D4A  3E3C               	incfsz	___fltol@exp1^0,f,c
  8042  003D4C  EFA0  F01E         	goto	i2l4391
  8043  003D50  EFC2  F01E         	goto	i2l4405
  8044  003D54                     i2l4395:
  8045  003D54  0E1F               	movlw	31
  8046  003D56  643C               	cpfsgt	___fltol@exp1^0,c
  8047  003D58  EFB0  F01E         	goto	i2u502_41
  8048  003D5C  EFB2  F01E         	goto	i2u502_40
  8049  003D60                     i2u502_41:
  8050  003D60  EFBA  F01E         	goto	i2l4403
  8051  003D64                     i2u502_40:
  8052  003D64  EF63  F01E         	goto	i2l4371
  8053  003D68                     i2l4401:
  8054  003D68  90D8               	bcf	status,0,c
  8055  003D6A  3633               	rlcf	___fltol@f1^0,f,c
  8056  003D6C  3634               	rlcf	(___fltol@f1+1)^0,f,c
  8057  003D6E  3635               	rlcf	(___fltol@f1+2)^0,f,c
  8058  003D70  3636               	rlcf	(___fltol@f1+3)^0,f,c
  8059  003D72  063C               	decf	___fltol@exp1^0,f,c
  8060  003D74                     i2l4403:
  8061  003D74  503C               	movf	___fltol@exp1^0,w,c
  8062  003D76  A4D8               	btfss	status,2,c
  8063  003D78  EFC0  F01E         	goto	i2u503_41
  8064  003D7C  EFC2  F01E         	goto	i2u503_40
  8065  003D80                     i2u503_41:
  8066  003D80  EFB4  F01E         	goto	i2l4401
  8067  003D84                     i2u503_40:
  8068  003D84                     i2l4405:
  8069  003D84  503B               	movf	___fltol@sign1^0,w,c
  8070  003D86  B4D8               	btfsc	status,2,c
  8071  003D88  EFC8  F01E         	goto	i2u504_41
  8072  003D8C  EFCA  F01E         	goto	i2u504_40
  8073  003D90                     i2u504_41:
  8074  003D90  EFD2  F01E         	goto	i2l4409
  8075  003D94                     i2u504_40:
  8076  003D94  1E36               	comf	(___fltol@f1+3)^0,f,c
  8077  003D96  1E35               	comf	(___fltol@f1+2)^0,f,c
  8078  003D98  1E34               	comf	(___fltol@f1+1)^0,f,c
  8079  003D9A  6C33               	negf	___fltol@f1^0,c
  8080  003D9C  0E00               	movlw	0
  8081  003D9E  2234               	addwfc	(___fltol@f1+1)^0,f,c
  8082  003DA0  2235               	addwfc	(___fltol@f1+2)^0,f,c
  8083  003DA2  2236               	addwfc	(___fltol@f1+3)^0,f,c
  8084  003DA4                     i2l4409:
  8085  003DA4  C033  F033         	movff	___fltol@f1,?___fltol
  8086  003DA8  C034  F034         	movff	___fltol@f1+1,?___fltol+1
  8087  003DAC  C035  F035         	movff	___fltol@f1+2,?___fltol+2
  8088  003DB0  C036  F036         	movff	___fltol@f1+3,?___fltol+3
  8089  003DB4                     i2l828:
  8090  003DB4  0012               	return		;funcret
  8091  003DB6                     __end_of___fltol:
  8092                           	opt callstack 0
  8093                           
  8094 ;; *************** function ___flsub *****************
  8095 ;; Defined at:
  8096 ;;		line 245 in file "/opt/microchip/xc8/v2.10/pic/sources/c99/common/sprcadd.c"
  8097 ;; Parameters:    Size  Location     Type
  8098 ;;  b               4   50[COMRAM] long 
  8099 ;;  a               4   54[COMRAM] long 
  8100 ;; Auto vars:     Size  Location     Type
  8101 ;;		None
  8102 ;; Return value:  Size  Location     Type
  8103 ;;                  4   50[COMRAM] long 
  8104 ;; Registers used:
  8105 ;;		wreg, status,2, status,0, cstack
  8106 ;; Tracked objects:
  8107 ;;		On entry : 0/0
  8108 ;;		On exit  : 0/0
  8109 ;;		Unchanged: 0/0
  8110 ;; Data sizes:     COMRAM   BANK0   BANK1   BANK2   BANK3   BANK4   BANK5   BANK6   BANK7
  8111 ;;      Params:         8       0       0       0       0       0       0       0       0
  8112 ;;      Locals:         0       0       0       0       0       0       0       0       0
  8113 ;;      Temps:          0       0       0       0       0       0       0       0       0
  8114 ;;      Totals:         8       0       0       0       0       0       0       0       0
  8115 ;;Total ram usage:        8 bytes
  8116 ;; Hardware stack levels used:    1
  8117 ;; Hardware stack levels required when called:    1
  8118 ;; This function calls:
  8119 ;;		___fladd
  8120 ;; This function is called by:
  8121 ;;		_efgtoa
  8122 ;; This function uses a non-reentrant model
  8123 ;;
  8124                           
  8125                           	psect	text33
  8126  004CE0                     __ptext33:
  8127                           	opt callstack 0
  8128  004CE0                     ___flsub:
  8129                           	opt callstack 19
  8130  004CE0  0E00               	movlw	0
  8131  004CE2  1A37               	xorwf	___flsub@a^0,f,c
  8132  004CE4  0E00               	movlw	0
  8133  004CE6  1A38               	xorwf	(___flsub@a+1)^0,f,c
  8134  004CE8  0E00               	movlw	0
  8135  004CEA  1A39               	xorwf	(___flsub@a+2)^0,f,c
  8136  004CEC  0E80               	movlw	128
  8137  004CEE  1A3A               	xorwf	(___flsub@a+3)^0,f,c
  8138  004CF0  C033  F001         	movff	___flsub@b,___fladd@b
  8139  004CF4  C034  F002         	movff	___flsub@b+1,___fladd@b+1
  8140  004CF8  C035  F003         	movff	___flsub@b+2,___fladd@b+2
  8141  004CFC  C036  F004         	movff	___flsub@b+3,___fladd@b+3
  8142  004D00  C037  F005         	movff	___flsub@a,___fladd@a
  8143  004D04  C038  F006         	movff	___flsub@a+1,___fladd@a+1
  8144  004D08  C039  F007         	movff	___flsub@a+2,___fladd@a+2
  8145  004D0C  C03A  F008         	movff	___flsub@a+3,___fladd@a+3
  8146  004D10  EC8D  F00C         	call	___fladd	;wreg free
  8147  004D14  C001  F033         	movff	?___fladd,?___flsub
  8148  004D18  C002  F034         	movff	?___fladd+1,?___flsub+1
  8149  004D1C  C003  F035         	movff	?___fladd+2,?___flsub+2
  8150  004D20  C004  F036         	movff	?___fladd+3,?___flsub+3
  8151  004D24  0012               	return		;funcret
  8152  004D26                     __end_of___flsub:
  8153                           	opt callstack 0
  8154                           
  8155 ;; *************** function ___fladd *****************
  8156 ;; Defined at:
  8157 ;;		line 10 in file "/opt/microchip/xc8/v2.10/pic/sources/c99/common/sprcadd.c"
  8158 ;; Parameters:    Size  Location     Type
  8159 ;;  b               4    0[COMRAM] long 
  8160 ;;  a               4    4[COMRAM] long 
  8161 ;; Auto vars:     Size  Location     Type
  8162 ;;  grs             1   15[COMRAM] unsigned char 
  8163 ;;  bexp            1   14[COMRAM] unsigned char 
  8164 ;;  aexp            1   13[COMRAM] unsigned char 
  8165 ;;  signs           1   12[COMRAM] unsigned char 
  8166 ;; Return value:  Size  Location     Type
  8167 ;;                  4    0[COMRAM] unsigned char 
  8168 ;; Registers used:
  8169 ;;		wreg, status,2, status,0
  8170 ;; Tracked objects:
  8171 ;;		On entry : 0/0
  8172 ;;		On exit  : 0/0
  8173 ;;		Unchanged: 0/0
  8174 ;; Data sizes:     COMRAM   BANK0   BANK1   BANK2   BANK3   BANK4   BANK5   BANK6   BANK7
  8175 ;;      Params:         8       0       0       0       0       0       0       0       0
  8176 ;;      Locals:         4       0       0       0       0       0       0       0       0
  8177 ;;      Temps:          4       0       0       0       0       0       0       0       0
  8178 ;;      Totals:        16       0       0       0       0       0       0       0       0
  8179 ;;Total ram usage:       16 bytes
  8180 ;; Hardware stack levels used:    1
  8181 ;; This function calls:
  8182 ;;		Nothing
  8183 ;; This function is called by:
  8184 ;;		_efgtoa
  8185 ;;		___flsub
  8186 ;; This function uses a non-reentrant model
  8187 ;;
  8188                           
  8189                           	psect	text34
  8190  00191A                     __ptext34:
  8191                           	opt callstack 0
  8192  00191A                     ___fladd:
  8193                           	opt callstack 19
  8194  00191A  5004               	movf	(___fladd@b+3)^0,w,c
  8195  00191C  0B80               	andlw	128
  8196  00191E  6E0D               	movwf	___fladd@signs^0,c
  8197  001920  5004               	movf	(___fladd@b+3)^0,w,c
  8198  001922  2404               	addwf	(___fladd@b+3)^0,w,c
  8199  001924  6E0F               	movwf	___fladd@bexp^0,c
  8200  001926  AE03               	btfss	(___fladd@b+2)^0,7,c
  8201  001928  EF98  F00C         	goto	i2u354_41
  8202  00192C  EF9A  F00C         	goto	i2u354_40
  8203  001930                     i2u354_41:
  8204  001930  EF9B  F00C         	goto	i2l3593
  8205  001934                     i2u354_40:
  8206  001934  800F               	bsf	___fladd@bexp^0,0,c
  8207  001936                     i2l3593:
  8208  001936  500F               	movf	___fladd@bexp^0,w,c
  8209  001938  B4D8               	btfsc	status,2,c
  8210  00193A  EFA1  F00C         	goto	i2u355_41
  8211  00193E  EFA3  F00C         	goto	i2u355_40
  8212  001942                     i2u355_41:
  8213  001942  EFB8  F00C         	goto	i2l3603
  8214  001946                     i2u355_40:
  8215  001946  280F               	incf	___fladd@bexp^0,w,c
  8216  001948  A4D8               	btfss	status,2,c
  8217  00194A  EFA9  F00C         	goto	i2u356_41
  8218  00194E  EFAB  F00C         	goto	i2u356_40
  8219  001952                     i2u356_41:
  8220  001952  EFB3  F00C         	goto	i2l3599
  8221  001956                     i2u356_40:
  8222  001956  0E00               	movlw	0
  8223  001958  6E01               	movwf	___fladd@b^0,c
  8224  00195A  0E00               	movlw	0
  8225  00195C  6E02               	movwf	(___fladd@b+1)^0,c
  8226  00195E  0E00               	movlw	0
  8227  001960  6E03               	movwf	(___fladd@b+2)^0,c
  8228  001962  0E00               	movlw	0
  8229  001964  6E04               	movwf	(___fladd@b+3)^0,c
  8230  001966                     i2l3599:
  8231  001966  8E03               	bsf	(___fladd@b+2)^0,7,c
  8232  001968  0E00               	movlw	0
  8233  00196A  6E04               	movwf	(___fladd@b+3)^0,c
  8234  00196C  EFC0  F00C         	goto	i2l3605
  8235  001970                     i2l3603:
  8236  001970  0E00               	movlw	0
  8237  001972  6E01               	movwf	___fladd@b^0,c
  8238  001974  0E00               	movlw	0
  8239  001976  6E02               	movwf	(___fladd@b+1)^0,c
  8240  001978  0E00               	movlw	0
  8241  00197A  6E03               	movwf	(___fladd@b+2)^0,c
  8242  00197C  0E00               	movlw	0
  8243  00197E  6E04               	movwf	(___fladd@b+3)^0,c
  8244  001980                     i2l3605:
  8245  001980  5008               	movf	(___fladd@a+3)^0,w,c
  8246  001982  0B80               	andlw	128
  8247  001984  6E0E               	movwf	___fladd@aexp^0,c
  8248  001986  500D               	movf	___fladd@signs^0,w,c
  8249  001988  180E               	xorwf	___fladd@aexp^0,w,c
  8250  00198A  B4D8               	btfsc	status,2,c
  8251  00198C  EFCA  F00C         	goto	i2u357_41
  8252  001990  EFCC  F00C         	goto	i2u357_40
  8253  001994                     i2u357_41:
  8254  001994  EFCD  F00C         	goto	i2l3611
  8255  001998                     i2u357_40:
  8256  001998  8C0D               	bsf	___fladd@signs^0,6,c
  8257  00199A                     i2l3611:
  8258  00199A  5008               	movf	(___fladd@a+3)^0,w,c
  8259  00199C  2408               	addwf	(___fladd@a+3)^0,w,c
  8260  00199E  6E0E               	movwf	___fladd@aexp^0,c
  8261  0019A0  AE07               	btfss	(___fladd@a+2)^0,7,c
  8262  0019A2  EFD5  F00C         	goto	i2u358_41
  8263  0019A6  EFD7  F00C         	goto	i2u358_40
  8264  0019AA                     i2u358_41:
  8265  0019AA  EFD8  F00C         	goto	i2l3617
  8266  0019AE                     i2u358_40:
  8267  0019AE  800E               	bsf	___fladd@aexp^0,0,c
  8268  0019B0                     i2l3617:
  8269  0019B0  500E               	movf	___fladd@aexp^0,w,c
  8270  0019B2  B4D8               	btfsc	status,2,c
  8271  0019B4  EFDE  F00C         	goto	i2u359_41
  8272  0019B8  EFE0  F00C         	goto	i2u359_40
  8273  0019BC                     i2u359_41:
  8274  0019BC  EFF5  F00C         	goto	i2l3627
  8275  0019C0                     i2u359_40:
  8276  0019C0  280E               	incf	___fladd@aexp^0,w,c
  8277  0019C2  A4D8               	btfss	status,2,c
  8278  0019C4  EFE6  F00C         	goto	i2u360_41
  8279  0019C8  EFE8  F00C         	goto	i2u360_40
  8280  0019CC                     i2u360_41:
  8281  0019CC  EFF0  F00C         	goto	i2l3623
  8282  0019D0                     i2u360_40:
  8283  0019D0  0E00               	movlw	0
  8284  0019D2  6E05               	movwf	___fladd@a^0,c
  8285  0019D4  0E00               	movlw	0
  8286  0019D6  6E06               	movwf	(___fladd@a+1)^0,c
  8287  0019D8  0E00               	movlw	0
  8288  0019DA  6E07               	movwf	(___fladd@a+2)^0,c
  8289  0019DC  0E00               	movlw	0
  8290  0019DE  6E08               	movwf	(___fladd@a+3)^0,c
  8291  0019E0                     i2l3623:
  8292  0019E0  8E07               	bsf	(___fladd@a+2)^0,7,c
  8293  0019E2  0E00               	movlw	0
  8294  0019E4  6E08               	movwf	(___fladd@a+3)^0,c
  8295  0019E6  EFFD  F00C         	goto	i2l3629
  8296  0019EA                     i2l3627:
  8297  0019EA  0E00               	movlw	0
  8298  0019EC  6E05               	movwf	___fladd@a^0,c
  8299  0019EE  0E00               	movlw	0
  8300  0019F0  6E06               	movwf	(___fladd@a+1)^0,c
  8301  0019F2  0E00               	movlw	0
  8302  0019F4  6E07               	movwf	(___fladd@a+2)^0,c
  8303  0019F6  0E00               	movlw	0
  8304  0019F8  6E08               	movwf	(___fladd@a+3)^0,c
  8305  0019FA                     i2l3629:
  8306  0019FA  500F               	movf	___fladd@bexp^0,w,c
  8307  0019FC  5C0E               	subwf	___fladd@aexp^0,w,c
  8308  0019FE  B0D8               	btfsc	status,0,c
  8309  001A00  EF04  F00D         	goto	i2u361_41
  8310  001A04  EF06  F00D         	goto	i2u361_40
  8311  001A08                     i2u361_41:
  8312  001A08  EF2D  F00D         	goto	i2l3665
  8313  001A0C                     i2u361_40:
  8314  001A0C  AC0D               	btfss	___fladd@signs^0,6,c
  8315  001A0E  EF0B  F00D         	goto	i2u362_41
  8316  001A12  EF0D  F00D         	goto	i2u362_40
  8317  001A16                     i2u362_41:
  8318  001A16  EF0F  F00D         	goto	i2l3635
  8319  001A1A                     i2u362_40:
  8320  001A1A  0E80               	movlw	128
  8321  001A1C  1A0D               	xorwf	___fladd@signs^0,f,c
  8322  001A1E                     i2l3635:
  8323  001A1E  C00F  F010         	movff	___fladd@bexp,___fladd@grs
  8324  001A22  C00E  F00F         	movff	___fladd@aexp,___fladd@bexp
  8325  001A26  C010  F00E         	movff	___fladd@grs,___fladd@aexp
  8326  001A2A  C001  F010         	movff	___fladd@b,___fladd@grs
  8327  001A2E  C005  F001         	movff	___fladd@a,___fladd@b
  8328  001A32  C010  F005         	movff	___fladd@grs,___fladd@a
  8329  001A36  C002  F010         	movff	___fladd@b+1,___fladd@grs
  8330  001A3A  C006  F002         	movff	___fladd@a+1,___fladd@b+1
  8331  001A3E  C010  F006         	movff	___fladd@grs,___fladd@a+1
  8332  001A42  C003  F010         	movff	___fladd@b+2,___fladd@grs
  8333  001A46  C007  F003         	movff	___fladd@a+2,___fladd@b+2
  8334  001A4A  C010  F007         	movff	___fladd@grs,___fladd@a+2
  8335  001A4E  C004  F010         	movff	___fladd@b+3,___fladd@grs
  8336  001A52  C008  F004         	movff	___fladd@a+3,___fladd@b+3
  8337  001A56  C010  F008         	movff	___fladd@grs,___fladd@a+3
  8338  001A5A                     i2l3665:
  8339  001A5A  0E00               	movlw	0
  8340  001A5C  6E10               	movwf	___fladd@grs^0,c
  8341  001A5E  500F               	movf	___fladd@bexp^0,w,c
  8342  001A60  C00E  F009         	movff	___fladd@aexp,??___fladd
  8343  001A64  6A0A               	clrf	(??___fladd+1)^0,c
  8344  001A66  5E09               	subwf	??___fladd^0,f,c
  8345  001A68  0E00               	movlw	0
  8346  001A6A  5A0A               	subwfb	(??___fladd+1)^0,f,c
  8347  001A6C  BE0A               	btfsc	(??___fladd+1)^0,7,c
  8348  001A6E  EF42  F00D         	goto	i2u363_41
  8349  001A72  500A               	movf	(??___fladd+1)^0,w,c
  8350  001A74  E109               	bnz	i2u363_40
  8351  001A76  0E1A               	movlw	26
  8352  001A78  5C09               	subwf	??___fladd^0,w,c
  8353  001A7A  A0D8               	btfss	status,0,c
  8354  001A7C  EF42  F00D         	goto	i2u363_41
  8355  001A80  EF44  F00D         	goto	i2u363_40
  8356  001A84                     i2u363_41:
  8357  001A84  EF7B  F00D         	goto	i2l1060
  8358  001A88                     i2u363_40:
  8359  001A88  5001               	movf	___fladd@b^0,w,c
  8360  001A8A  1002               	iorwf	(___fladd@b+1)^0,w,c
  8361  001A8C  1003               	iorwf	(___fladd@b+2)^0,w,c
  8362  001A8E  1004               	iorwf	(___fladd@b+3)^0,w,c
  8363  001A90  A4D8               	btfss	status,2,c
  8364  001A92  EF4D  F00D         	goto	i2u364_41
  8365  001A96  EF50  F00D         	goto	i2u364_40
  8366  001A9A                     i2u364_41:
  8367  001A9A  0E01               	movlw	1
  8368  001A9C  EF51  F00D         	goto	i2u365_40
  8369  001AA0                     i2u364_40:
  8370  001AA0  0E00               	movlw	0
  8371  001AA2                     i2u365_40:
  8372  001AA2  6E10               	movwf	___fladd@grs^0,c
  8373  001AA4  0E00               	movlw	0
  8374  001AA6  6E01               	movwf	___fladd@b^0,c
  8375  001AA8  0E00               	movlw	0
  8376  001AAA  6E02               	movwf	(___fladd@b+1)^0,c
  8377  001AAC  0E00               	movlw	0
  8378  001AAE  6E03               	movwf	(___fladd@b+2)^0,c
  8379  001AB0  0E00               	movlw	0
  8380  001AB2  6E04               	movwf	(___fladd@b+3)^0,c
  8381  001AB4  C00E  F00F         	movff	___fladd@aexp,___fladd@bexp
  8382  001AB8  EF84  F00D         	goto	i2l1059
  8383  001ABC                     i2l1061:
  8384  001ABC  A010               	btfss	___fladd@grs^0,0,c
  8385  001ABE  EF63  F00D         	goto	i2u366_41
  8386  001AC2  EF65  F00D         	goto	i2u366_40
  8387  001AC6                     i2u366_41:
  8388  001AC6  EF6B  F00D         	goto	i2l3677
  8389  001ACA                     i2u366_40:
  8390  001ACA  90D8               	bcf	status,0,c
  8391  001ACC  3010               	rrcf	___fladd@grs^0,w,c
  8392  001ACE  0901               	iorlw	1
  8393  001AD0  6E10               	movwf	___fladd@grs^0,c
  8394  001AD2  EF6D  F00D         	goto	i2l3679
  8395  001AD6                     i2l3677:
  8396  001AD6  90D8               	bcf	status,0,c
  8397  001AD8  3210               	rrcf	___fladd@grs^0,f,c
  8398  001ADA                     i2l3679:
  8399  001ADA  A001               	btfss	___fladd@b^0,0,c
  8400  001ADC  EF72  F00D         	goto	i2u367_41
  8401  001AE0  EF74  F00D         	goto	i2u367_40
  8402  001AE4                     i2u367_41:
  8403  001AE4  EF75  F00D         	goto	i2l3683
  8404  001AE8                     i2u367_40:
  8405  001AE8  8E10               	bsf	___fladd@grs^0,7,c
  8406  001AEA                     i2l3683:
  8407  001AEA  3404               	rlcf	(___fladd@b+3)^0,w,c
  8408  001AEC  3204               	rrcf	(___fladd@b+3)^0,f,c
  8409  001AEE  3203               	rrcf	(___fladd@b+2)^0,f,c
  8410  001AF0  3202               	rrcf	(___fladd@b+1)^0,f,c
  8411  001AF2  3201               	rrcf	___fladd@b^0,f,c
  8412  001AF4  2A0F               	incf	___fladd@bexp^0,f,c
  8413  001AF6                     i2l1060:
  8414  001AF6  500E               	movf	___fladd@aexp^0,w,c
  8415  001AF8  5C0F               	subwf	___fladd@bexp^0,w,c
  8416  001AFA  A0D8               	btfss	status,0,c
  8417  001AFC  EF82  F00D         	goto	i2u368_41
  8418  001B00  EF84  F00D         	goto	i2u368_40
  8419  001B04                     i2u368_41:
  8420  001B04  EF5E  F00D         	goto	i2l1061
  8421  001B08                     i2u368_40:
  8422  001B08                     i2l1059:
  8423  001B08  BC0D               	btfsc	___fladd@signs^0,6,c
  8424  001B0A  EF89  F00D         	goto	i2u369_41
  8425  001B0E  EF8B  F00D         	goto	i2u369_40
  8426  001B12                     i2u369_41:
  8427  001B12  EFCB  F00D         	goto	i2l3711
  8428  001B16                     i2u369_40:
  8429  001B16  500F               	movf	___fladd@bexp^0,w,c
  8430  001B18  A4D8               	btfss	status,2,c
  8431  001B1A  EF91  F00D         	goto	i2u370_41
  8432  001B1E  EF93  F00D         	goto	i2u370_40
  8433  001B22                     i2u370_41:
  8434  001B22  EF9D  F00D         	goto	i2l3693
  8435  001B26                     i2u370_40:
  8436  001B26  0E00               	movlw	0
  8437  001B28  6E01               	movwf	?___fladd^0,c
  8438  001B2A  0E00               	movlw	0
  8439  001B2C  6E02               	movwf	(?___fladd+1)^0,c
  8440  001B2E  0E00               	movlw	0
  8441  001B30  6E03               	movwf	(?___fladd+2)^0,c
  8442  001B32  0E00               	movlw	0
  8443  001B34  6E04               	movwf	(?___fladd+3)^0,c
  8444  001B36  EFEC  F00E         	goto	i2l1068
  8445  001B3A                     i2l3693:
  8446  001B3A  5005               	movf	___fladd@a^0,w,c
  8447  001B3C  2601               	addwf	___fladd@b^0,f,c
  8448  001B3E  5006               	movf	(___fladd@a+1)^0,w,c
  8449  001B40  2202               	addwfc	(___fladd@b+1)^0,f,c
  8450  001B42  5007               	movf	(___fladd@a+2)^0,w,c
  8451  001B44  2203               	addwfc	(___fladd@b+2)^0,f,c
  8452  001B46  5008               	movf	(___fladd@a+3)^0,w,c
  8453  001B48  2204               	addwfc	(___fladd@b+3)^0,f,c
  8454  001B4A  A004               	btfss	(___fladd@b+3)^0,0,c
  8455  001B4C  EFAA  F00D         	goto	i2u371_41
  8456  001B50  EFAC  F00D         	goto	i2u371_40
  8457  001B54                     i2u371_41:
  8458  001B54  EF58  F00E         	goto	i2l3747
  8459  001B58                     i2u371_40:
  8460  001B58  A010               	btfss	___fladd@grs^0,0,c
  8461  001B5A  EFB1  F00D         	goto	i2u372_41
  8462  001B5E  EFB3  F00D         	goto	i2u372_40
  8463  001B62                     i2u372_41:
  8464  001B62  EFB9  F00D         	goto	i2l3701
  8465  001B66                     i2u372_40:
  8466  001B66  90D8               	bcf	status,0,c
  8467  001B68  3010               	rrcf	___fladd@grs^0,w,c
  8468  001B6A  0901               	iorlw	1
  8469  001B6C  6E10               	movwf	___fladd@grs^0,c
  8470  001B6E  EFBB  F00D         	goto	i2l3703
  8471  001B72                     i2l3701:
  8472  001B72  90D8               	bcf	status,0,c
  8473  001B74  3210               	rrcf	___fladd@grs^0,f,c
  8474  001B76                     i2l3703:
  8475  001B76  A001               	btfss	___fladd@b^0,0,c
  8476  001B78  EFC0  F00D         	goto	i2u373_41
  8477  001B7C  EFC2  F00D         	goto	i2u373_40
  8478  001B80                     i2u373_41:
  8479  001B80  EFC3  F00D         	goto	i2l3707
  8480  001B84                     i2u373_40:
  8481  001B84  8E10               	bsf	___fladd@grs^0,7,c
  8482  001B86                     i2l3707:
  8483  001B86  3404               	rlcf	(___fladd@b+3)^0,w,c
  8484  001B88  3204               	rrcf	(___fladd@b+3)^0,f,c
  8485  001B8A  3203               	rrcf	(___fladd@b+2)^0,f,c
  8486  001B8C  3202               	rrcf	(___fladd@b+1)^0,f,c
  8487  001B8E  3201               	rrcf	___fladd@b^0,f,c
  8488  001B90  2A0F               	incf	___fladd@bexp^0,f,c
  8489  001B92  EF58  F00E         	goto	i2l3747
  8490  001B96                     i2l3711:
  8491  001B96  5005               	movf	___fladd@a^0,w,c
  8492  001B98  5C01               	subwf	___fladd@b^0,w,c
  8493  001B9A  5006               	movf	(___fladd@a+1)^0,w,c
  8494  001B9C  5802               	subwfb	(___fladd@b+1)^0,w,c
  8495  001B9E  5007               	movf	(___fladd@a+2)^0,w,c
  8496  001BA0  5803               	subwfb	(___fladd@b+2)^0,w,c
  8497  001BA2  5004               	movf	(___fladd@b+3)^0,w,c
  8498  001BA4  0A80               	xorlw	128
  8499  001BA6  6E09               	movwf	??___fladd^0,c
  8500  001BA8  5008               	movf	(___fladd@a+3)^0,w,c
  8501  001BAA  0A80               	xorlw	128
  8502  001BAC  5809               	subwfb	??___fladd^0,w,c
  8503  001BAE  B0D8               	btfsc	status,0,c
  8504  001BB0  EFDC  F00D         	goto	i2u374_41
  8505  001BB4  EFDE  F00D         	goto	i2u374_40
  8506  001BB8                     i2u374_41:
  8507  001BB8  EF09  F00E         	goto	i2l3721
  8508  001BBC                     i2u374_40:
  8509  001BBC  5001               	movf	___fladd@b^0,w,c
  8510  001BBE  5C05               	subwf	___fladd@a^0,w,c
  8511  001BC0  6E09               	movwf	??___fladd^0,c
  8512  001BC2  5002               	movf	(___fladd@b+1)^0,w,c
  8513  001BC4  5806               	subwfb	(___fladd@a+1)^0,w,c
  8514  001BC6  6E0A               	movwf	(??___fladd+1)^0,c
  8515  001BC8  5003               	movf	(___fladd@b+2)^0,w,c
  8516  001BCA  5807               	subwfb	(___fladd@a+2)^0,w,c
  8517  001BCC  6E0B               	movwf	(??___fladd+2)^0,c
  8518  001BCE  5004               	movf	(___fladd@b+3)^0,w,c
  8519  001BD0  5808               	subwfb	(___fladd@a+3)^0,w,c
  8520  001BD2  6E0C               	movwf	(??___fladd+3)^0,c
  8521  001BD4  0EFF               	movlw	255
  8522  001BD6  2409               	addwf	??___fladd^0,w,c
  8523  001BD8  6E01               	movwf	___fladd@b^0,c
  8524  001BDA  0EFF               	movlw	255
  8525  001BDC  200A               	addwfc	(??___fladd+1)^0,w,c
  8526  001BDE  6E02               	movwf	(___fladd@b+1)^0,c
  8527  001BE0  0EFF               	movlw	255
  8528  001BE2  200B               	addwfc	(??___fladd+2)^0,w,c
  8529  001BE4  6E03               	movwf	(___fladd@b+2)^0,c
  8530  001BE6  0EFF               	movlw	255
  8531  001BE8  200C               	addwfc	(??___fladd+3)^0,w,c
  8532  001BEA  6E04               	movwf	(___fladd@b+3)^0,c
  8533  001BEC  0E80               	movlw	128
  8534  001BEE  1A0D               	xorwf	___fladd@signs^0,f,c
  8535  001BF0  6C10               	negf	___fladd@grs^0,c
  8536  001BF2  5010               	movf	___fladd@grs^0,w,c
  8537  001BF4  A4D8               	btfss	status,2,c
  8538  001BF6  EFFF  F00D         	goto	i2u375_41
  8539  001BFA  EF01  F00E         	goto	i2u375_40
  8540  001BFE                     i2u375_41:
  8541  001BFE  EF11  F00E         	goto	i2l1076
  8542  001C02                     i2u375_40:
  8543  001C02  0E01               	movlw	1
  8544  001C04  2601               	addwf	___fladd@b^0,f,c
  8545  001C06  0E00               	movlw	0
  8546  001C08  2202               	addwfc	(___fladd@b+1)^0,f,c
  8547  001C0A  2203               	addwfc	(___fladd@b+2)^0,f,c
  8548  001C0C  2204               	addwfc	(___fladd@b+3)^0,f,c
  8549  001C0E  EF11  F00E         	goto	i2l1076
  8550  001C12                     i2l3721:
  8551  001C12  5005               	movf	___fladd@a^0,w,c
  8552  001C14  5E01               	subwf	___fladd@b^0,f,c
  8553  001C16  5006               	movf	(___fladd@a+1)^0,w,c
  8554  001C18  5A02               	subwfb	(___fladd@b+1)^0,f,c
  8555  001C1A  5007               	movf	(___fladd@a+2)^0,w,c
  8556  001C1C  5A03               	subwfb	(___fladd@b+2)^0,f,c
  8557  001C1E  5008               	movf	(___fladd@a+3)^0,w,c
  8558  001C20  5A04               	subwfb	(___fladd@b+3)^0,f,c
  8559  001C22                     i2l1076:
  8560  001C22  5001               	movf	___fladd@b^0,w,c
  8561  001C24  1002               	iorwf	(___fladd@b+1)^0,w,c
  8562  001C26  1003               	iorwf	(___fladd@b+2)^0,w,c
  8563  001C28  1004               	iorwf	(___fladd@b+3)^0,w,c
  8564  001C2A  A4D8               	btfss	status,2,c
  8565  001C2C  EF1A  F00E         	goto	i2u376_41
  8566  001C30  EF1C  F00E         	goto	i2u376_40
  8567  001C34                     i2u376_41:
  8568  001C34  EF51  F00E         	goto	i2l3745
  8569  001C38                     i2u376_40:
  8570  001C38  5010               	movf	___fladd@grs^0,w,c
  8571  001C3A  A4D8               	btfss	status,2,c
  8572  001C3C  EF22  F00E         	goto	i2u377_41
  8573  001C40  EF24  F00E         	goto	i2u377_40
  8574  001C44                     i2u377_41:
  8575  001C44  EF51  F00E         	goto	i2l3745
  8576  001C48                     i2u377_40:
  8577  001C48  0E00               	movlw	0
  8578  001C4A  6E01               	movwf	?___fladd^0,c
  8579  001C4C  0E00               	movlw	0
  8580  001C4E  6E02               	movwf	(?___fladd+1)^0,c
  8581  001C50  0E00               	movlw	0
  8582  001C52  6E03               	movwf	(?___fladd+2)^0,c
  8583  001C54  0E00               	movlw	0
  8584  001C56  6E04               	movwf	(?___fladd+3)^0,c
  8585  001C58  EFEC  F00E         	goto	i2l1068
  8586  001C5C                     i2l3729:
  8587  001C5C  90D8               	bcf	status,0,c
  8588  001C5E  3601               	rlcf	___fladd@b^0,f,c
  8589  001C60  3602               	rlcf	(___fladd@b+1)^0,f,c
  8590  001C62  3603               	rlcf	(___fladd@b+2)^0,f,c
  8591  001C64  3604               	rlcf	(___fladd@b+3)^0,f,c
  8592  001C66  AE10               	btfss	___fladd@grs^0,7,c
  8593  001C68  EF38  F00E         	goto	i2u378_41
  8594  001C6C  EF3A  F00E         	goto	i2u378_40
  8595  001C70                     i2u378_41:
  8596  001C70  EF3B  F00E         	goto	i2l3735
  8597  001C74                     i2u378_40:
  8598  001C74  8001               	bsf	___fladd@b^0,0,c
  8599  001C76                     i2l3735:
  8600  001C76  A010               	btfss	___fladd@grs^0,0,c
  8601  001C78  EF40  F00E         	goto	i2u379_41
  8602  001C7C  EF42  F00E         	goto	i2u379_40
  8603  001C80                     i2u379_41:
  8604  001C80  EF46  F00E         	goto	i2l3739
  8605  001C84                     i2u379_40:
  8606  001C84  80D8               	bsf	status,0,c
  8607  001C86  3610               	rlcf	___fladd@grs^0,f,c
  8608  001C88  EF48  F00E         	goto	i2l3741
  8609  001C8C                     i2l3739:
  8610  001C8C  90D8               	bcf	status,0,c
  8611  001C8E  3610               	rlcf	___fladd@grs^0,f,c
  8612  001C90                     i2l3741:
  8613  001C90  500F               	movf	___fladd@bexp^0,w,c
  8614  001C92  B4D8               	btfsc	status,2,c
  8615  001C94  EF4E  F00E         	goto	i2u380_41
  8616  001C98  EF50  F00E         	goto	i2u380_40
  8617  001C9C                     i2u380_41:
  8618  001C9C  EF51  F00E         	goto	i2l3745
  8619  001CA0                     i2u380_40:
  8620  001CA0  060F               	decf	___fladd@bexp^0,f,c
  8621  001CA2                     i2l3745:
  8622  001CA2  AE03               	btfss	(___fladd@b+2)^0,7,c
  8623  001CA4  EF56  F00E         	goto	i2u381_41
  8624  001CA8  EF58  F00E         	goto	i2u381_40
  8625  001CAC                     i2u381_41:
  8626  001CAC  EF2E  F00E         	goto	i2l3729
  8627  001CB0                     i2u381_40:
  8628  001CB0                     i2l3747:
  8629  001CB0  0E00               	movlw	0
  8630  001CB2  6E0E               	movwf	___fladd@aexp^0,c
  8631  001CB4  AE10               	btfss	___fladd@grs^0,7,c
  8632  001CB6  EF5F  F00E         	goto	i2u382_41
  8633  001CBA  EF61  F00E         	goto	i2u382_40
  8634  001CBE                     i2u382_41:
  8635  001CBE  EF79  F00E         	goto	i2l1085
  8636  001CC2                     i2u382_40:
  8637  001CC2  C010  F009         	movff	___fladd@grs,??___fladd
  8638  001CC6  0E7F               	movlw	127
  8639  001CC8  1609               	andwf	??___fladd^0,f,c
  8640  001CCA  B4D8               	btfsc	status,2,c
  8641  001CCC  EF6A  F00E         	goto	i2u383_41
  8642  001CD0  EF6C  F00E         	goto	i2u383_40
  8643  001CD4                     i2u383_41:
  8644  001CD4  EF70  F00E         	goto	i2l1086
  8645  001CD8                     i2u383_40:
  8646  001CD8                     i2l3753:
  8647  001CD8  0E01               	movlw	1
  8648  001CDA  6E0E               	movwf	___fladd@aexp^0,c
  8649  001CDC  EF79  F00E         	goto	i2l1085
  8650  001CE0                     i2l1086:
  8651  001CE0  A001               	btfss	___fladd@b^0,0,c
  8652  001CE2  EF75  F00E         	goto	i2u384_41
  8653  001CE6  EF77  F00E         	goto	i2u384_40
  8654  001CEA                     i2u384_41:
  8655  001CEA  EF79  F00E         	goto	i2l1085
  8656  001CEE                     i2u384_40:
  8657  001CEE  EF6C  F00E         	goto	i2l3753
  8658  001CF2                     i2l1085:
  8659  001CF2  500E               	movf	___fladd@aexp^0,w,c
  8660  001CF4  B4D8               	btfsc	status,2,c
  8661  001CF6  EF7F  F00E         	goto	i2u385_41
  8662  001CFA  EF81  F00E         	goto	i2u385_40
  8663  001CFE                     i2u385_41:
  8664  001CFE  EFAC  F00E         	goto	i2l3765
  8665  001D02                     i2u385_40:
  8666  001D02  0E01               	movlw	1
  8667  001D04  2601               	addwf	___fladd@b^0,f,c
  8668  001D06  0E00               	movlw	0
  8669  001D08  2202               	addwfc	(___fladd@b+1)^0,f,c
  8670  001D0A  2203               	addwfc	(___fladd@b+2)^0,f,c
  8671  001D0C  2204               	addwfc	(___fladd@b+3)^0,f,c
  8672  001D0E  A004               	btfss	(___fladd@b+3)^0,0,c
  8673  001D10  EF8C  F00E         	goto	i2u386_41
  8674  001D14  EF8E  F00E         	goto	i2u386_40
  8675  001D18                     i2u386_41:
  8676  001D18  EFAC  F00E         	goto	i2l3765
  8677  001D1C                     i2u386_40:
  8678  001D1C  C001  F009         	movff	___fladd@b,??___fladd
  8679  001D20  C002  F00A         	movff	___fladd@b+1,??___fladd+1
  8680  001D24  C003  F00B         	movff	___fladd@b+2,??___fladd+2
  8681  001D28  C004  F00C         	movff	___fladd@b+3,??___fladd+3
  8682  001D2C  340C               	rlcf	(??___fladd+3)^0,w,c
  8683  001D2E  320C               	rrcf	(??___fladd+3)^0,f,c
  8684  001D30  320B               	rrcf	(??___fladd+2)^0,f,c
  8685  001D32  320A               	rrcf	(??___fladd+1)^0,f,c
  8686  001D34  3209               	rrcf	??___fladd^0,f,c
  8687  001D36  C009  F001         	movff	??___fladd,___fladd@b
  8688  001D3A  C00A  F002         	movff	??___fladd+1,___fladd@b+1
  8689  001D3E  C00B  F003         	movff	??___fladd+2,___fladd@b+2
  8690  001D42  C00C  F004         	movff	??___fladd+3,___fladd@b+3
  8691  001D46  280F               	incf	___fladd@bexp^0,w,c
  8692  001D48  B4D8               	btfsc	status,2,c
  8693  001D4A  EFA9  F00E         	goto	i2u387_41
  8694  001D4E  EFAB  F00E         	goto	i2u387_40
  8695  001D52                     i2u387_41:
  8696  001D52  EFAC  F00E         	goto	i2l3765
  8697  001D56                     i2u387_40:
  8698  001D56  2A0F               	incf	___fladd@bexp^0,f,c
  8699  001D58                     i2l3765:
  8700  001D58  280F               	incf	___fladd@bexp^0,w,c
  8701  001D5A  B4D8               	btfsc	status,2,c
  8702  001D5C  EFB2  F00E         	goto	i2u388_41
  8703  001D60  EFB4  F00E         	goto	i2u388_40
  8704  001D64                     i2u388_41:
  8705  001D64  EFBC  F00E         	goto	i2l3769
  8706  001D68                     i2u388_40:
  8707  001D68  500F               	movf	___fladd@bexp^0,w,c
  8708  001D6A  A4D8               	btfss	status,2,c
  8709  001D6C  EFBA  F00E         	goto	i2u389_41
  8710  001D70  EFBC  F00E         	goto	i2u389_40
  8711  001D74                     i2u389_41:
  8712  001D74  EFCE  F00E         	goto	i2l3773
  8713  001D78                     i2u389_40:
  8714  001D78                     i2l3769:
  8715  001D78  0E00               	movlw	0
  8716  001D7A  6E01               	movwf	___fladd@b^0,c
  8717  001D7C  0E00               	movlw	0
  8718  001D7E  6E02               	movwf	(___fladd@b+1)^0,c
  8719  001D80  0E00               	movlw	0
  8720  001D82  6E03               	movwf	(___fladd@b+2)^0,c
  8721  001D84  0E00               	movlw	0
  8722  001D86  6E04               	movwf	(___fladd@b+3)^0,c
  8723  001D88  500F               	movf	___fladd@bexp^0,w,c
  8724  001D8A  A4D8               	btfss	status,2,c
  8725  001D8C  EFCA  F00E         	goto	i2u390_41
  8726  001D90  EFCC  F00E         	goto	i2u390_40
  8727  001D94                     i2u390_41:
  8728  001D94  EFCE  F00E         	goto	i2l3773
  8729  001D98                     i2u390_40:
  8730  001D98  0E00               	movlw	0
  8731  001D9A  6E0D               	movwf	___fladd@signs^0,c
  8732  001D9C                     i2l3773:
  8733  001D9C  A00F               	btfss	___fladd@bexp^0,0,c
  8734  001D9E  EFD3  F00E         	goto	i2u391_41
  8735  001DA2  EFD5  F00E         	goto	i2u391_40
  8736  001DA6                     i2u391_41:
  8737  001DA6  EFD8  F00E         	goto	i2l3777
  8738  001DAA                     i2u391_40:
  8739  001DAA  8E03               	bsf	(___fladd@b+2)^0,7,c
  8740  001DAC  EFD9  F00E         	goto	i2l3779
  8741  001DB0                     i2l3777:
  8742  001DB0  9E03               	bcf	(___fladd@b+2)^0,7,c
  8743  001DB2                     i2l3779:
  8744  001DB2  90D8               	bcf	status,0,c
  8745  001DB4  300F               	rrcf	___fladd@bexp^0,w,c
  8746  001DB6  6E04               	movwf	(___fladd@b+3)^0,c
  8747  001DB8  AE0D               	btfss	___fladd@signs^0,7,c
  8748  001DBA  EFE1  F00E         	goto	i2u392_41
  8749  001DBE  EFE3  F00E         	goto	i2u392_40
  8750  001DC2                     i2u392_41:
  8751  001DC2  EFE4  F00E         	goto	i2l3785
  8752  001DC6                     i2u392_40:
  8753  001DC6  8E04               	bsf	(___fladd@b+3)^0,7,c
  8754  001DC8                     i2l3785:
  8755  001DC8  C001  F001         	movff	___fladd@b,?___fladd
  8756  001DCC  C002  F002         	movff	___fladd@b+1,?___fladd+1
  8757  001DD0  C003  F003         	movff	___fladd@b+2,?___fladd+2
  8758  001DD4  C004  F004         	movff	___fladd@b+3,?___fladd+3
  8759  001DD8                     i2l1068:
  8760  001DD8  0012               	return		;funcret
  8761  001DDA                     __end_of___fladd:
  8762                           	opt callstack 0
  8763                           
  8764 ;; *************** function ___flneg *****************
  8765 ;; Defined at:
  8766 ;;		line 15 in file "/opt/microchip/xc8/v2.10/pic/sources/c99/common/flneg.c"
  8767 ;; Parameters:    Size  Location     Type
  8768 ;;  f1              4    0[COMRAM] unsigned char 
  8769 ;; Auto vars:     Size  Location     Type
  8770 ;;		None
  8771 ;; Return value:  Size  Location     Type
  8772 ;;                  4    0[COMRAM] unsigned char 
  8773 ;; Registers used:
  8774 ;;		wreg, status,2, status,0
  8775 ;; Tracked objects:
  8776 ;;		On entry : 0/0
  8777 ;;		On exit  : 0/0
  8778 ;;		Unchanged: 0/0
  8779 ;; Data sizes:     COMRAM   BANK0   BANK1   BANK2   BANK3   BANK4   BANK5   BANK6   BANK7
  8780 ;;      Params:         4       0       0       0       0       0       0       0       0
  8781 ;;      Locals:         0       0       0       0       0       0       0       0       0
  8782 ;;      Temps:          0       0       0       0       0       0       0       0       0
  8783 ;;      Totals:         4       0       0       0       0       0       0       0       0
  8784 ;;Total ram usage:        4 bytes
  8785 ;; Hardware stack levels used:    1
  8786 ;; This function calls:
  8787 ;;		Nothing
  8788 ;; This function is called by:
  8789 ;;		_efgtoa
  8790 ;; This function uses a non-reentrant model
  8791 ;;
  8792                           
  8793                           	psect	text35
  8794  004E1E                     __ptext35:
  8795                           	opt callstack 0
  8796  004E1E                     ___flneg:
  8797                           	opt callstack 20
  8798  004E1E  5001               	movf	___flneg@f1^0,w,c
  8799  004E20  1002               	iorwf	(___flneg@f1+1)^0,w,c
  8800  004E22  1003               	iorwf	(___flneg@f1+2)^0,w,c
  8801  004E24  1004               	iorwf	(___flneg@f1+3)^0,w,c
  8802  004E26  B4D8               	btfsc	status,2,c
  8803  004E28  EF18  F027         	goto	i2u497_41
  8804  004E2C  EF1A  F027         	goto	i2u497_40
  8805  004E30                     i2u497_41:
  8806  004E30  EF22  F027         	goto	i2l4365
  8807  004E34                     i2u497_40:
  8808  004E34  0E00               	movlw	0
  8809  004E36  1A01               	xorwf	___flneg@f1^0,f,c
  8810  004E38  0E00               	movlw	0
  8811  004E3A  1A02               	xorwf	(___flneg@f1+1)^0,f,c
  8812  004E3C  0E00               	movlw	0
  8813  004E3E  1A03               	xorwf	(___flneg@f1+2)^0,f,c
  8814  004E40  0E80               	movlw	128
  8815  004E42  1A04               	xorwf	(___flneg@f1+3)^0,f,c
  8816  004E44                     i2l4365:
  8817  004E44  C001  F001         	movff	___flneg@f1,?___flneg
  8818  004E48  C002  F002         	movff	___flneg@f1+1,?___flneg+1
  8819  004E4C  C003  F003         	movff	___flneg@f1+2,?___flneg+2
  8820  004E50  C004  F004         	movff	___flneg@f1+3,?___flneg+3
  8821  004E54  0012               	return		;funcret
  8822  004E56                     __end_of___flneg:
  8823                           	opt callstack 0
  8824                           
  8825 ;; *************** function ___flmul *****************
  8826 ;; Defined at:
  8827 ;;		line 8 in file "/opt/microchip/xc8/v2.10/pic/sources/c99/common/sprcmul.c"
  8828 ;; Parameters:    Size  Location     Type
  8829 ;;  b               4   25[COMRAM] unsigned char 
  8830 ;;  a               4   29[COMRAM] unsigned char 
  8831 ;; Auto vars:     Size  Location     Type
  8832 ;;  prod            4   44[COMRAM] struct .
  8833 ;;  grs             4   38[COMRAM] unsigned long 
  8834 ;;  temp            2   48[COMRAM] struct .
  8835 ;;  bexp            1   43[COMRAM] unsigned char 
  8836 ;;  aexp            1   42[COMRAM] unsigned char 
  8837 ;;  sign            1   37[COMRAM] unsigned char 
  8838 ;; Return value:  Size  Location     Type
  8839 ;;                  4   25[COMRAM] unsigned char 
  8840 ;; Registers used:
  8841 ;;		wreg, status,2, status,0, prodl, prodh
  8842 ;; Tracked objects:
  8843 ;;		On entry : 0/0
  8844 ;;		On exit  : 0/0
  8845 ;;		Unchanged: 0/0
  8846 ;; Data sizes:     COMRAM   BANK0   BANK1   BANK2   BANK3   BANK4   BANK5   BANK6   BANK7
  8847 ;;      Params:         8       0       0       0       0       0       0       0       0
  8848 ;;      Locals:        13       0       0       0       0       0       0       0       0
  8849 ;;      Temps:          4       0       0       0       0       0       0       0       0
  8850 ;;      Totals:        25       0       0       0       0       0       0       0       0
  8851 ;;Total ram usage:       25 bytes
  8852 ;; Hardware stack levels used:    1
  8853 ;; This function calls:
  8854 ;;		Nothing
  8855 ;; This function is called by:
  8856 ;;		_INT_EX_0
  8857 ;;		_efgtoa
  8858 ;; This function uses a non-reentrant model
  8859 ;;
  8860                           
  8861                           	psect	text36
  8862  001DDA                     __ptext36:
  8863                           	opt callstack 0
  8864  001DDA                     ___flmul:
  8865                           	opt callstack 20
  8866  001DDA  501D               	movf	(___flmul@b+3)^0,w,c
  8867  001DDC  0B80               	andlw	128
  8868  001DDE  6E26               	movwf	___flmul@sign^0,c
  8869  001DE0  501D               	movf	(___flmul@b+3)^0,w,c
  8870  001DE2  241D               	addwf	(___flmul@b+3)^0,w,c
  8871  001DE4  6E2C               	movwf	___flmul@bexp^0,c
  8872  001DE6  AE1C               	btfss	(___flmul@b+2)^0,7,c
  8873  001DE8  EFF8  F00E         	goto	i2u458_41
  8874  001DEC  EFFA  F00E         	goto	i2u458_40
  8875  001DF0                     i2u458_41:
  8876  001DF0  EFFB  F00E         	goto	i2l4113
  8877  001DF4                     i2u458_40:
  8878  001DF4  802C               	bsf	___flmul@bexp^0,0,c
  8879  001DF6                     i2l4113:
  8880  001DF6  502C               	movf	___flmul@bexp^0,w,c
  8881  001DF8  B4D8               	btfsc	status,2,c
  8882  001DFA  EF01  F00F         	goto	i2u459_41
  8883  001DFE  EF03  F00F         	goto	i2u459_40
  8884  001E02                     i2u459_41:
  8885  001E02  EF16  F00F         	goto	i2l4121
  8886  001E06                     i2u459_40:
  8887  001E06  282C               	incf	___flmul@bexp^0,w,c
  8888  001E08  A4D8               	btfss	status,2,c
  8889  001E0A  EF09  F00F         	goto	i2u460_41
  8890  001E0E  EF0B  F00F         	goto	i2u460_40
  8891  001E12                     i2u460_41:
  8892  001E12  EF13  F00F         	goto	i2l4119
  8893  001E16                     i2u460_40:
  8894  001E16  0E00               	movlw	0
  8895  001E18  6E1A               	movwf	___flmul@b^0,c
  8896  001E1A  0E00               	movlw	0
  8897  001E1C  6E1B               	movwf	(___flmul@b+1)^0,c
  8898  001E1E  0E00               	movlw	0
  8899  001E20  6E1C               	movwf	(___flmul@b+2)^0,c
  8900  001E22  0E00               	movlw	0
  8901  001E24  6E1D               	movwf	(___flmul@b+3)^0,c
  8902  001E26                     i2l4119:
  8903  001E26  8E1C               	bsf	(___flmul@b+2)^0,7,c
  8904  001E28  EF1E  F00F         	goto	i2l4123
  8905  001E2C                     i2l4121:
  8906  001E2C  0E00               	movlw	0
  8907  001E2E  6E1A               	movwf	___flmul@b^0,c
  8908  001E30  0E00               	movlw	0
  8909  001E32  6E1B               	movwf	(___flmul@b+1)^0,c
  8910  001E34  0E00               	movlw	0
  8911  001E36  6E1C               	movwf	(___flmul@b+2)^0,c
  8912  001E38  0E00               	movlw	0
  8913  001E3A  6E1D               	movwf	(___flmul@b+3)^0,c
  8914  001E3C                     i2l4123:
  8915  001E3C  5021               	movf	(___flmul@a+3)^0,w,c
  8916  001E3E  0B80               	andlw	128
  8917  001E40  1A26               	xorwf	___flmul@sign^0,f,c
  8918  001E42  5021               	movf	(___flmul@a+3)^0,w,c
  8919  001E44  2421               	addwf	(___flmul@a+3)^0,w,c
  8920  001E46  6E2B               	movwf	___flmul@aexp^0,c
  8921  001E48  AE20               	btfss	(___flmul@a+2)^0,7,c
  8922  001E4A  EF29  F00F         	goto	i2u461_41
  8923  001E4E  EF2B  F00F         	goto	i2u461_40
  8924  001E52                     i2u461_41:
  8925  001E52  EF2C  F00F         	goto	i2l4131
  8926  001E56                     i2u461_40:
  8927  001E56  802B               	bsf	___flmul@aexp^0,0,c
  8928  001E58                     i2l4131:
  8929  001E58  502B               	movf	___flmul@aexp^0,w,c
  8930  001E5A  B4D8               	btfsc	status,2,c
  8931  001E5C  EF32  F00F         	goto	i2u462_41
  8932  001E60  EF34  F00F         	goto	i2u462_40
  8933  001E64                     i2u462_41:
  8934  001E64  EF47  F00F         	goto	i2l4139
  8935  001E68                     i2u462_40:
  8936  001E68  282B               	incf	___flmul@aexp^0,w,c
  8937  001E6A  A4D8               	btfss	status,2,c
  8938  001E6C  EF3A  F00F         	goto	i2u463_41
  8939  001E70  EF3C  F00F         	goto	i2u463_40
  8940  001E74                     i2u463_41:
  8941  001E74  EF44  F00F         	goto	i2l4137
  8942  001E78                     i2u463_40:
  8943  001E78  0E00               	movlw	0
  8944  001E7A  6E1E               	movwf	___flmul@a^0,c
  8945  001E7C  0E00               	movlw	0
  8946  001E7E  6E1F               	movwf	(___flmul@a+1)^0,c
  8947  001E80  0E00               	movlw	0
  8948  001E82  6E20               	movwf	(___flmul@a+2)^0,c
  8949  001E84  0E00               	movlw	0
  8950  001E86  6E21               	movwf	(___flmul@a+3)^0,c
  8951  001E88                     i2l4137:
  8952  001E88  8E20               	bsf	(___flmul@a+2)^0,7,c
  8953  001E8A  EF4F  F00F         	goto	i2l1145
  8954  001E8E                     i2l4139:
  8955  001E8E  0E00               	movlw	0
  8956  001E90  6E1E               	movwf	___flmul@a^0,c
  8957  001E92  0E00               	movlw	0
  8958  001E94  6E1F               	movwf	(___flmul@a+1)^0,c
  8959  001E96  0E00               	movlw	0
  8960  001E98  6E20               	movwf	(___flmul@a+2)^0,c
  8961  001E9A  0E00               	movlw	0
  8962  001E9C  6E21               	movwf	(___flmul@a+3)^0,c
  8963  001E9E                     i2l1145:
  8964  001E9E  502B               	movf	___flmul@aexp^0,w,c
  8965  001EA0  B4D8               	btfsc	status,2,c
  8966  001EA2  EF55  F00F         	goto	i2u464_41
  8967  001EA6  EF57  F00F         	goto	i2u464_40
  8968  001EAA                     i2u464_41:
  8969  001EAA  EF5F  F00F         	goto	i2l4143
  8970  001EAE                     i2u464_40:
  8971  001EAE  502C               	movf	___flmul@bexp^0,w,c
  8972  001EB0  A4D8               	btfss	status,2,c
  8973  001EB2  EF5D  F00F         	goto	i2u465_41
  8974  001EB6  EF5F  F00F         	goto	i2u465_40
  8975  001EBA                     i2u465_41:
  8976  001EBA  EF69  F00F         	goto	i2l4147
  8977  001EBE                     i2u465_40:
  8978  001EBE                     i2l4143:
  8979  001EBE  0E00               	movlw	0
  8980  001EC0  6E1A               	movwf	?___flmul^0,c
  8981  001EC2  0E00               	movlw	0
  8982  001EC4  6E1B               	movwf	(?___flmul+1)^0,c
  8983  001EC6  0E00               	movlw	0
  8984  001EC8  6E1C               	movwf	(?___flmul+2)^0,c
  8985  001ECA  0E00               	movlw	0
  8986  001ECC  6E1D               	movwf	(?___flmul+3)^0,c
  8987  001ECE  EF01  F011         	goto	i2l1149
  8988  001ED2                     i2l4147:
  8989  001ED2  5020               	movf	(___flmul@a+2)^0,w,c
  8990  001ED4  021A               	mulwf	___flmul@b^0,c
  8991  001ED6  CFF3 F031          	movff	prodl,___flmul@temp
  8992  001EDA  CFF4 F032          	movff	prodh,___flmul@temp+1
  8993  001EDE  5031               	movf	___flmul@temp^0,w,c
  8994  001EE0  6E27               	movwf	___flmul@grs^0,c
  8995  001EE2  6A28               	clrf	(___flmul@grs+1)^0,c
  8996  001EE4  6A29               	clrf	(___flmul@grs+2)^0,c
  8997  001EE6  6A2A               	clrf	(___flmul@grs+3)^0,c
  8998  001EE8  5032               	movf	(___flmul@temp+1)^0,w,c
  8999  001EEA  6E2D               	movwf	___flmul@prod^0,c
  9000  001EEC  6A2E               	clrf	(___flmul@prod+1)^0,c
  9001  001EEE  6A2F               	clrf	(___flmul@prod+2)^0,c
  9002  001EF0  6A30               	clrf	(___flmul@prod+3)^0,c
  9003  001EF2  501F               	movf	(___flmul@a+1)^0,w,c
  9004  001EF4  021B               	mulwf	(___flmul@b+1)^0,c
  9005  001EF6  CFF3 F031          	movff	prodl,___flmul@temp
  9006  001EFA  CFF4 F032          	movff	prodh,___flmul@temp+1
  9007  001EFE  5031               	movf	___flmul@temp^0,w,c
  9008  001F00  2627               	addwf	___flmul@grs^0,f,c
  9009  001F02  0E00               	movlw	0
  9010  001F04  2228               	addwfc	(___flmul@grs+1)^0,f,c
  9011  001F06  2229               	addwfc	(___flmul@grs+2)^0,f,c
  9012  001F08  222A               	addwfc	(___flmul@grs+3)^0,f,c
  9013  001F0A  5032               	movf	(___flmul@temp+1)^0,w,c
  9014  001F0C  262D               	addwf	___flmul@prod^0,f,c
  9015  001F0E  0E00               	movlw	0
  9016  001F10  222E               	addwfc	(___flmul@prod+1)^0,f,c
  9017  001F12  222F               	addwfc	(___flmul@prod+2)^0,f,c
  9018  001F14  2230               	addwfc	(___flmul@prod+3)^0,f,c
  9019  001F16  501E               	movf	___flmul@a^0,w,c
  9020  001F18  021C               	mulwf	(___flmul@b+2)^0,c
  9021  001F1A  CFF3 F031          	movff	prodl,___flmul@temp
  9022  001F1E  CFF4 F032          	movff	prodh,___flmul@temp+1
  9023  001F22  5031               	movf	___flmul@temp^0,w,c
  9024  001F24  2627               	addwf	___flmul@grs^0,f,c
  9025  001F26  0E00               	movlw	0
  9026  001F28  2228               	addwfc	(___flmul@grs+1)^0,f,c
  9027  001F2A  2229               	addwfc	(___flmul@grs+2)^0,f,c
  9028  001F2C  222A               	addwfc	(___flmul@grs+3)^0,f,c
  9029  001F2E  5032               	movf	(___flmul@temp+1)^0,w,c
  9030  001F30  262D               	addwf	___flmul@prod^0,f,c
  9031  001F32  0E00               	movlw	0
  9032  001F34  222E               	addwfc	(___flmul@prod+1)^0,f,c
  9033  001F36  222F               	addwfc	(___flmul@prod+2)^0,f,c
  9034  001F38  2230               	addwfc	(___flmul@prod+3)^0,f,c
  9035  001F3A  C029  F02A         	movff	___flmul@grs+2,___flmul@grs+3
  9036  001F3E  C028  F029         	movff	___flmul@grs+1,___flmul@grs+2
  9037  001F42  C027  F028         	movff	___flmul@grs,___flmul@grs+1
  9038  001F46  6A27               	clrf	___flmul@grs^0,c
  9039  001F48  501E               	movf	___flmul@a^0,w,c
  9040  001F4A  021B               	mulwf	(___flmul@b+1)^0,c
  9041  001F4C  CFF3 F031          	movff	prodl,___flmul@temp
  9042  001F50  CFF4 F032          	movff	prodh,___flmul@temp+1
  9043  001F54  5031               	movf	___flmul@temp^0,w,c
  9044  001F56  2627               	addwf	___flmul@grs^0,f,c
  9045  001F58  5032               	movf	(___flmul@temp+1)^0,w,c
  9046  001F5A  2228               	addwfc	(___flmul@grs+1)^0,f,c
  9047  001F5C  0E00               	movlw	0
  9048  001F5E  2229               	addwfc	(___flmul@grs+2)^0,f,c
  9049  001F60  0E00               	movlw	0
  9050  001F62  222A               	addwfc	(___flmul@grs+3)^0,f,c
  9051  001F64  501F               	movf	(___flmul@a+1)^0,w,c
  9052  001F66  021A               	mulwf	___flmul@b^0,c
  9053  001F68  CFF3 F031          	movff	prodl,___flmul@temp
  9054  001F6C  CFF4 F032          	movff	prodh,___flmul@temp+1
  9055  001F70  5031               	movf	___flmul@temp^0,w,c
  9056  001F72  2627               	addwf	___flmul@grs^0,f,c
  9057  001F74  5032               	movf	(___flmul@temp+1)^0,w,c
  9058  001F76  2228               	addwfc	(___flmul@grs+1)^0,f,c
  9059  001F78  0E00               	movlw	0
  9060  001F7A  2229               	addwfc	(___flmul@grs+2)^0,f,c
  9061  001F7C  0E00               	movlw	0
  9062  001F7E  222A               	addwfc	(___flmul@grs+3)^0,f,c
  9063  001F80  C029  F02A         	movff	___flmul@grs+2,___flmul@grs+3
  9064  001F84  C028  F029         	movff	___flmul@grs+1,___flmul@grs+2
  9065  001F88  C027  F028         	movff	___flmul@grs,___flmul@grs+1
  9066  001F8C  6A27               	clrf	___flmul@grs^0,c
  9067  001F8E  501E               	movf	___flmul@a^0,w,c
  9068  001F90  021A               	mulwf	___flmul@b^0,c
  9069  001F92  CFF3 F031          	movff	prodl,___flmul@temp
  9070  001F96  CFF4 F032          	movff	prodh,___flmul@temp+1
  9071  001F9A  5031               	movf	___flmul@temp^0,w,c
  9072  001F9C  2627               	addwf	___flmul@grs^0,f,c
  9073  001F9E  5032               	movf	(___flmul@temp+1)^0,w,c
  9074  001FA0  2228               	addwfc	(___flmul@grs+1)^0,f,c
  9075  001FA2  0E00               	movlw	0
  9076  001FA4  2229               	addwfc	(___flmul@grs+2)^0,f,c
  9077  001FA6  0E00               	movlw	0
  9078  001FA8  222A               	addwfc	(___flmul@grs+3)^0,f,c
  9079  001FAA  5020               	movf	(___flmul@a+2)^0,w,c
  9080  001FAC  021B               	mulwf	(___flmul@b+1)^0,c
  9081  001FAE  CFF3 F031          	movff	prodl,___flmul@temp
  9082  001FB2  CFF4 F032          	movff	prodh,___flmul@temp+1
  9083  001FB6  5031               	movf	___flmul@temp^0,w,c
  9084  001FB8  262D               	addwf	___flmul@prod^0,f,c
  9085  001FBA  5032               	movf	(___flmul@temp+1)^0,w,c
  9086  001FBC  222E               	addwfc	(___flmul@prod+1)^0,f,c
  9087  001FBE  0E00               	movlw	0
  9088  001FC0  222F               	addwfc	(___flmul@prod+2)^0,f,c
  9089  001FC2  0E00               	movlw	0
  9090  001FC4  2230               	addwfc	(___flmul@prod+3)^0,f,c
  9091  001FC6  501F               	movf	(___flmul@a+1)^0,w,c
  9092  001FC8  021C               	mulwf	(___flmul@b+2)^0,c
  9093  001FCA  CFF3 F031          	movff	prodl,___flmul@temp
  9094  001FCE  CFF4 F032          	movff	prodh,___flmul@temp+1
  9095  001FD2  5031               	movf	___flmul@temp^0,w,c
  9096  001FD4  262D               	addwf	___flmul@prod^0,f,c
  9097  001FD6  5032               	movf	(___flmul@temp+1)^0,w,c
  9098  001FD8  222E               	addwfc	(___flmul@prod+1)^0,f,c
  9099  001FDA  0E00               	movlw	0
  9100  001FDC  222F               	addwfc	(___flmul@prod+2)^0,f,c
  9101  001FDE  0E00               	movlw	0
  9102  001FE0  2230               	addwfc	(___flmul@prod+3)^0,f,c
  9103  001FE2  5020               	movf	(___flmul@a+2)^0,w,c
  9104  001FE4  021C               	mulwf	(___flmul@b+2)^0,c
  9105  001FE6  CFF3 F031          	movff	prodl,___flmul@temp
  9106  001FEA  CFF4 F032          	movff	prodh,___flmul@temp+1
  9107  001FEE  5031               	movf	___flmul@temp^0,w,c
  9108  001FF0  6E22               	movwf	??___flmul^0,c
  9109  001FF2  5032               	movf	(___flmul@temp+1)^0,w,c
  9110  001FF4  6E23               	movwf	(??___flmul+1)^0,c
  9111  001FF6  6A24               	clrf	(??___flmul+2)^0,c
  9112  001FF8  6A25               	clrf	(??___flmul+3)^0,c
  9113  001FFA  C024  F025         	movff	??___flmul+2,??___flmul+3
  9114  001FFE  C023  F024         	movff	??___flmul+1,??___flmul+2
  9115  002002  C022  F023         	movff	??___flmul,??___flmul+1
  9116  002006  6A22               	clrf	??___flmul^0,c
  9117  002008  5022               	movf	??___flmul^0,w,c
  9118  00200A  262D               	addwf	___flmul@prod^0,f,c
  9119  00200C  5023               	movf	(??___flmul+1)^0,w,c
  9120  00200E  222E               	addwfc	(___flmul@prod+1)^0,f,c
  9121  002010  5024               	movf	(??___flmul+2)^0,w,c
  9122  002012  222F               	addwfc	(___flmul@prod+2)^0,f,c
  9123  002014  5025               	movf	(??___flmul+3)^0,w,c
  9124  002016  2230               	addwfc	(___flmul@prod+3)^0,f,c
  9125  002018  C027  F022         	movff	___flmul@grs,??___flmul
  9126  00201C  C028  F023         	movff	___flmul@grs+1,??___flmul+1
  9127  002020  C029  F024         	movff	___flmul@grs+2,??___flmul+2
  9128  002024  C02A  F025         	movff	___flmul@grs+3,??___flmul+3
  9129  002028  0E19               	movlw	25
  9130  00202A  EF1C  F010         	goto	i2u466_40
  9131  00202E                     i2u466_45:
  9132  00202E  90D8               	bcf	status,0,c
  9133  002030  3225               	rrcf	(??___flmul+3)^0,f,c
  9134  002032  3224               	rrcf	(??___flmul+2)^0,f,c
  9135  002034  3223               	rrcf	(??___flmul+1)^0,f,c
  9136  002036  3222               	rrcf	??___flmul^0,f,c
  9137  002038                     i2u466_40:
  9138  002038  2EE8               	decfsz	wreg,f,c
  9139  00203A  EF17  F010         	goto	i2u466_45
  9140  00203E  5022               	movf	??___flmul^0,w,c
  9141  002040  262D               	addwf	___flmul@prod^0,f,c
  9142  002042  5023               	movf	(??___flmul+1)^0,w,c
  9143  002044  222E               	addwfc	(___flmul@prod+1)^0,f,c
  9144  002046  5024               	movf	(??___flmul+2)^0,w,c
  9145  002048  222F               	addwfc	(___flmul@prod+2)^0,f,c
  9146  00204A  5025               	movf	(??___flmul+3)^0,w,c
  9147  00204C  2230               	addwfc	(___flmul@prod+3)^0,f,c
  9148  00204E  C029  F02A         	movff	___flmul@grs+2,___flmul@grs+3
  9149  002052  C028  F029         	movff	___flmul@grs+1,___flmul@grs+2
  9150  002056  C027  F028         	movff	___flmul@grs,___flmul@grs+1
  9151  00205A  6A27               	clrf	___flmul@grs^0,c
  9152  00205C  502B               	movf	___flmul@aexp^0,w,c
  9153  00205E  C02C  F022         	movff	___flmul@bexp,??___flmul
  9154  002062  6A23               	clrf	(??___flmul+1)^0,c
  9155  002064  2622               	addwf	??___flmul^0,f,c
  9156  002066  0E00               	movlw	0
  9157  002068  2223               	addwfc	(??___flmul+1)^0,f,c
  9158  00206A  0E82               	movlw	130
  9159  00206C  2422               	addwf	??___flmul^0,w,c
  9160  00206E  6E31               	movwf	___flmul@temp^0,c
  9161  002070  0EFF               	movlw	255
  9162  002072  2023               	addwfc	(??___flmul+1)^0,w,c
  9163  002074  6E32               	movwf	(___flmul@temp+1)^0,c
  9164  002076  EF52  F010         	goto	i2l4195
  9165  00207A                     i2l4189:
  9166  00207A  90D8               	bcf	status,0,c
  9167  00207C  362D               	rlcf	___flmul@prod^0,f,c
  9168  00207E  362E               	rlcf	(___flmul@prod+1)^0,f,c
  9169  002080  362F               	rlcf	(___flmul@prod+2)^0,f,c
  9170  002082  3630               	rlcf	(___flmul@prod+3)^0,f,c
  9171  002084  AE2A               	btfss	(___flmul@grs+3)^0,7,c
  9172  002086  EF47  F010         	goto	i2u467_41
  9173  00208A  EF49  F010         	goto	i2u467_40
  9174  00208E                     i2u467_41:
  9175  00208E  EF4A  F010         	goto	i2l1152
  9176  002092                     i2u467_40:
  9177  002092  802D               	bsf	___flmul@prod^0,0,c
  9178  002094                     i2l1152:
  9179  002094  90D8               	bcf	status,0,c
  9180  002096  3627               	rlcf	___flmul@grs^0,f,c
  9181  002098  3628               	rlcf	(___flmul@grs+1)^0,f,c
  9182  00209A  3629               	rlcf	(___flmul@grs+2)^0,f,c
  9183  00209C  362A               	rlcf	(___flmul@grs+3)^0,f,c
  9184  00209E  0631               	decf	___flmul@temp^0,f,c
  9185  0020A0  A0D8               	btfss	status,0,c
  9186  0020A2  0632               	decf	(___flmul@temp+1)^0,f,c
  9187  0020A4                     i2l4195:
  9188  0020A4  AE2F               	btfss	(___flmul@prod+2)^0,7,c
  9189  0020A6  EF57  F010         	goto	i2u468_41
  9190  0020AA  EF59  F010         	goto	i2u468_40
  9191  0020AE                     i2u468_41:
  9192  0020AE  EF3D  F010         	goto	i2l4189
  9193  0020B2                     i2u468_40:
  9194  0020B2  0E00               	movlw	0
  9195  0020B4  6E2B               	movwf	___flmul@aexp^0,c
  9196  0020B6  AE2A               	btfss	(___flmul@grs+3)^0,7,c
  9197  0020B8  EF60  F010         	goto	i2u469_41
  9198  0020BC  EF62  F010         	goto	i2u469_40
  9199  0020C0                     i2u469_41:
  9200  0020C0  EF86  F010         	goto	i2l1154
  9201  0020C4                     i2u469_40:
  9202  0020C4  0EFF               	movlw	255
  9203  0020C6  1427               	andwf	___flmul@grs^0,w,c
  9204  0020C8  6E22               	movwf	??___flmul^0,c
  9205  0020CA  0EFF               	movlw	255
  9206  0020CC  1428               	andwf	(___flmul@grs+1)^0,w,c
  9207  0020CE  6E23               	movwf	(??___flmul+1)^0,c
  9208  0020D0  0EFF               	movlw	255
  9209  0020D2  1429               	andwf	(___flmul@grs+2)^0,w,c
  9210  0020D4  6E24               	movwf	(??___flmul+2)^0,c
  9211  0020D6  0E7F               	movlw	127
  9212  0020D8  142A               	andwf	(___flmul@grs+3)^0,w,c
  9213  0020DA  6E25               	movwf	(??___flmul+3)^0,c
  9214  0020DC  5022               	movf	??___flmul^0,w,c
  9215  0020DE  1023               	iorwf	(??___flmul+1)^0,w,c
  9216  0020E0  1024               	iorwf	(??___flmul+2)^0,w,c
  9217  0020E2  1025               	iorwf	(??___flmul+3)^0,w,c
  9218  0020E4  B4D8               	btfsc	status,2,c
  9219  0020E6  EF77  F010         	goto	i2u470_41
  9220  0020EA  EF79  F010         	goto	i2u470_40
  9221  0020EE                     i2u470_41:
  9222  0020EE  EF7D  F010         	goto	i2l1155
  9223  0020F2                     i2u470_40:
  9224  0020F2                     i2l4203:
  9225  0020F2  0E01               	movlw	1
  9226  0020F4  6E2B               	movwf	___flmul@aexp^0,c
  9227  0020F6  EF86  F010         	goto	i2l1154
  9228  0020FA                     i2l1155:
  9229  0020FA  A02D               	btfss	___flmul@prod^0,0,c
  9230  0020FC  EF82  F010         	goto	i2u471_41
  9231  002100  EF84  F010         	goto	i2u471_40
  9232  002104                     i2u471_41:
  9233  002104  EF86  F010         	goto	i2l1154
  9234  002108                     i2u471_40:
  9235  002108  EF79  F010         	goto	i2l4203
  9236  00210C                     i2l1154:
  9237  00210C  502B               	movf	___flmul@aexp^0,w,c
  9238  00210E  B4D8               	btfsc	status,2,c
  9239  002110  EF8C  F010         	goto	i2u472_41
  9240  002114  EF8E  F010         	goto	i2u472_40
  9241  002118                     i2u472_41:
  9242  002118  EFB2  F010         	goto	i2l4215
  9243  00211C                     i2u472_40:
  9244  00211C  0E01               	movlw	1
  9245  00211E  262D               	addwf	___flmul@prod^0,f,c
  9246  002120  0E00               	movlw	0
  9247  002122  222E               	addwfc	(___flmul@prod+1)^0,f,c
  9248  002124  222F               	addwfc	(___flmul@prod+2)^0,f,c
  9249  002126  2230               	addwfc	(___flmul@prod+3)^0,f,c
  9250  002128  A030               	btfss	(___flmul@prod+3)^0,0,c
  9251  00212A  EF99  F010         	goto	i2u473_41
  9252  00212E  EF9B  F010         	goto	i2u473_40
  9253  002132                     i2u473_41:
  9254  002132  EFB2  F010         	goto	i2l4215
  9255  002136                     i2u473_40:
  9256  002136  C02D  F022         	movff	___flmul@prod,??___flmul
  9257  00213A  C02E  F023         	movff	___flmul@prod+1,??___flmul+1
  9258  00213E  C02F  F024         	movff	___flmul@prod+2,??___flmul+2
  9259  002142  C030  F025         	movff	___flmul@prod+3,??___flmul+3
  9260  002146  3425               	rlcf	(??___flmul+3)^0,w,c
  9261  002148  3225               	rrcf	(??___flmul+3)^0,f,c
  9262  00214A  3224               	rrcf	(??___flmul+2)^0,f,c
  9263  00214C  3223               	rrcf	(??___flmul+1)^0,f,c
  9264  00214E  3222               	rrcf	??___flmul^0,f,c
  9265  002150  C022  F02D         	movff	??___flmul,___flmul@prod
  9266  002154  C023  F02E         	movff	??___flmul+1,___flmul@prod+1
  9267  002158  C024  F02F         	movff	??___flmul+2,___flmul@prod+2
  9268  00215C  C025  F030         	movff	??___flmul+3,___flmul@prod+3
  9269  002160  4A31               	infsnz	___flmul@temp^0,f,c
  9270  002162  2A32               	incf	(___flmul@temp+1)^0,f,c
  9271  002164                     i2l4215:
  9272  002164  BE32               	btfsc	(___flmul@temp+1)^0,7,c
  9273  002166  EFBD  F010         	goto	i2u474_41
  9274  00216A  5032               	movf	(___flmul@temp+1)^0,w,c
  9275  00216C  E108               	bnz	i2u474_40
  9276  00216E  2831               	incf	___flmul@temp^0,w,c
  9277  002170  A0D8               	btfss	status,0,c
  9278  002172  EFBD  F010         	goto	i2u474_41
  9279  002176  EFBF  F010         	goto	i2u474_40
  9280  00217A                     i2u474_41:
  9281  00217A  EFC9  F010         	goto	i2l4219
  9282  00217E                     i2u474_40:
  9283  00217E  0E00               	movlw	0
  9284  002180  6E2D               	movwf	___flmul@prod^0,c
  9285  002182  0E00               	movlw	0
  9286  002184  6E2E               	movwf	(___flmul@prod+1)^0,c
  9287  002186  0E80               	movlw	128
  9288  002188  6E2F               	movwf	(___flmul@prod+2)^0,c
  9289  00218A  0E7F               	movlw	127
  9290  00218C  6E30               	movwf	(___flmul@prod+3)^0,c
  9291  00218E  EFF7  F010         	goto	i2l4231
  9292  002192                     i2l4219:
  9293  002192  BE32               	btfsc	(___flmul@temp+1)^0,7,c
  9294  002194  EFD6  F010         	goto	i2u475_40
  9295  002198  5032               	movf	(___flmul@temp+1)^0,w,c
  9296  00219A  E106               	bnz	i2u475_41
  9297  00219C  0431               	decf	___flmul@temp^0,w,c
  9298  00219E  B0D8               	btfsc	status,0,c
  9299  0021A0  EFD4  F010         	goto	i2u475_41
  9300  0021A4  EFD6  F010         	goto	i2u475_40
  9301  0021A8                     i2u475_41:
  9302  0021A8  EFE2  F010         	goto	i2l1162
  9303  0021AC                     i2u475_40:
  9304  0021AC  0E00               	movlw	0
  9305  0021AE  6E2D               	movwf	___flmul@prod^0,c
  9306  0021B0  0E00               	movlw	0
  9307  0021B2  6E2E               	movwf	(___flmul@prod+1)^0,c
  9308  0021B4  0E00               	movlw	0
  9309  0021B6  6E2F               	movwf	(___flmul@prod+2)^0,c
  9310  0021B8  0E00               	movlw	0
  9311  0021BA  6E30               	movwf	(___flmul@prod+3)^0,c
  9312  0021BC  0E00               	movlw	0
  9313  0021BE  6E26               	movwf	___flmul@sign^0,c
  9314  0021C0  EFF7  F010         	goto	i2l4231
  9315  0021C4                     i2l1162:
  9316  0021C4  C031  F02C         	movff	___flmul@temp,___flmul@bexp
  9317  0021C8  0EFF               	movlw	255
  9318  0021CA  162D               	andwf	___flmul@prod^0,f,c
  9319  0021CC  0EFF               	movlw	255
  9320  0021CE  162E               	andwf	(___flmul@prod+1)^0,f,c
  9321  0021D0  0E7F               	movlw	127
  9322  0021D2  162F               	andwf	(___flmul@prod+2)^0,f,c
  9323  0021D4  0E00               	movlw	0
  9324  0021D6  1630               	andwf	(___flmul@prod+3)^0,f,c
  9325  0021D8  A02C               	btfss	___flmul@bexp^0,0,c
  9326  0021DA  EFF1  F010         	goto	i2u476_41
  9327  0021DE  EFF3  F010         	goto	i2u476_40
  9328  0021E2                     i2u476_41:
  9329  0021E2  EFF4  F010         	goto	i2l4229
  9330  0021E6                     i2u476_40:
  9331  0021E6  8E2F               	bsf	(___flmul@prod+2)^0,7,c
  9332  0021E8                     i2l4229:
  9333  0021E8  90D8               	bcf	status,0,c
  9334  0021EA  302C               	rrcf	___flmul@bexp^0,w,c
  9335  0021EC  6E30               	movwf	(___flmul@prod+3)^0,c
  9336  0021EE                     i2l4231:
  9337  0021EE  5026               	movf	___flmul@sign^0,w,c
  9338  0021F0  1230               	iorwf	(___flmul@prod+3)^0,f,c
  9339  0021F2  C02D  F01A         	movff	___flmul@prod,?___flmul
  9340  0021F6  C02E  F01B         	movff	___flmul@prod+1,?___flmul+1
  9341  0021FA  C02F  F01C         	movff	___flmul@prod+2,?___flmul+2
  9342  0021FE  C030  F01D         	movff	___flmul@prod+3,?___flmul+3
  9343  002202                     i2l1149:
  9344  002202  0012               	return		;funcret
  9345  002204                     __end_of___flmul:
  9346                           	opt callstack 0
  9347                           
  9348 ;; *************** function ___flge *****************
  9349 ;; Defined at:
  9350 ;;		line 4 in file "/opt/microchip/xc8/v2.10/pic/sources/c99/common/flge.c"
  9351 ;; Parameters:    Size  Location     Type
  9352 ;;  ff1             4   50[COMRAM] unsigned char 
  9353 ;;  ff2             4   54[COMRAM] unsigned char 
  9354 ;; Auto vars:     Size  Location     Type
  9355 ;;		None
  9356 ;; Return value:  Size  Location     Type
  9357 ;;		None               void
  9358 ;; Registers used:
  9359 ;;		wreg, status,2, status,0
  9360 ;; Tracked objects:
  9361 ;;		On entry : 0/0
  9362 ;;		On exit  : 0/0
  9363 ;;		Unchanged: 0/0
  9364 ;; Data sizes:     COMRAM   BANK0   BANK1   BANK2   BANK3   BANK4   BANK5   BANK6   BANK7
  9365 ;;      Params:         8       0       0       0       0       0       0       0       0
  9366 ;;      Locals:         0       0       0       0       0       0       0       0       0
  9367 ;;      Temps:          4       0       0       0       0       0       0       0       0
  9368 ;;      Totals:        12       0       0       0       0       0       0       0       0
  9369 ;;Total ram usage:       12 bytes
  9370 ;; Hardware stack levels used:    1
  9371 ;; This function calls:
  9372 ;;		Nothing
  9373 ;; This function is called by:
  9374 ;;		_efgtoa
  9375 ;; This function uses a non-reentrant model
  9376 ;;
  9377                           
  9378                           	psect	text37
  9379  003DB6                     __ptext37:
  9380                           	opt callstack 0
  9381  003DB6                     ___flge:
  9382                           	opt callstack 20
  9383  003DB6  0E00               	movlw	0
  9384  003DB8  1433               	andwf	___flge@ff1^0,w,c
  9385  003DBA  6E3B               	movwf	??___flge^0,c
  9386  003DBC  0E00               	movlw	0
  9387  003DBE  1434               	andwf	(___flge@ff1+1)^0,w,c
  9388  003DC0  6E3C               	movwf	(??___flge+1)^0,c
  9389  003DC2  0E80               	movlw	128
  9390  003DC4  1435               	andwf	(___flge@ff1+2)^0,w,c
  9391  003DC6  6E3D               	movwf	(??___flge+2)^0,c
  9392  003DC8  0E7F               	movlw	127
  9393  003DCA  1436               	andwf	(___flge@ff1+3)^0,w,c
  9394  003DCC  6E3E               	movwf	(??___flge+3)^0,c
  9395  003DCE  503B               	movf	??___flge^0,w,c
  9396  003DD0  103C               	iorwf	(??___flge+1)^0,w,c
  9397  003DD2  103D               	iorwf	(??___flge+2)^0,w,c
  9398  003DD4  103E               	iorwf	(??___flge+3)^0,w,c
  9399  003DD6  A4D8               	btfss	status,2,c
  9400  003DD8  EFF0  F01E         	goto	i2u492_41
  9401  003DDC  EFF2  F01E         	goto	i2u492_40
  9402  003DE0                     i2u492_41:
  9403  003DE0  EFFA  F01E         	goto	i2l4343
  9404  003DE4                     i2u492_40:
  9405  003DE4  0E00               	movlw	0
  9406  003DE6  6E33               	movwf	___flge@ff1^0,c
  9407  003DE8  0E00               	movlw	0
  9408  003DEA  6E34               	movwf	(___flge@ff1+1)^0,c
  9409  003DEC  0E00               	movlw	0
  9410  003DEE  6E35               	movwf	(___flge@ff1+2)^0,c
  9411  003DF0  0E00               	movlw	0
  9412  003DF2  6E36               	movwf	(___flge@ff1+3)^0,c
  9413  003DF4                     i2l4343:
  9414  003DF4  0E00               	movlw	0
  9415  003DF6  1437               	andwf	___flge@ff2^0,w,c
  9416  003DF8  6E3B               	movwf	??___flge^0,c
  9417  003DFA  0E00               	movlw	0
  9418  003DFC  1438               	andwf	(___flge@ff2+1)^0,w,c
  9419  003DFE  6E3C               	movwf	(??___flge+1)^0,c
  9420  003E00  0E80               	movlw	128
  9421  003E02  1439               	andwf	(___flge@ff2+2)^0,w,c
  9422  003E04  6E3D               	movwf	(??___flge+2)^0,c
  9423  003E06  0E7F               	movlw	127
  9424  003E08  143A               	andwf	(___flge@ff2+3)^0,w,c
  9425  003E0A  6E3E               	movwf	(??___flge+3)^0,c
  9426  003E0C  503B               	movf	??___flge^0,w,c
  9427  003E0E  103C               	iorwf	(??___flge+1)^0,w,c
  9428  003E10  103D               	iorwf	(??___flge+2)^0,w,c
  9429  003E12  103E               	iorwf	(??___flge+3)^0,w,c
  9430  003E14  A4D8               	btfss	status,2,c
  9431  003E16  EF0F  F01F         	goto	i2u493_41
  9432  003E1A  EF11  F01F         	goto	i2u493_40
  9433  003E1E                     i2u493_41:
  9434  003E1E  EF19  F01F         	goto	i2l4347
  9435  003E22                     i2u493_40:
  9436  003E22  0E00               	movlw	0
  9437  003E24  6E37               	movwf	___flge@ff2^0,c
  9438  003E26  0E00               	movlw	0
  9439  003E28  6E38               	movwf	(___flge@ff2+1)^0,c
  9440  003E2A  0E00               	movlw	0
  9441  003E2C  6E39               	movwf	(___flge@ff2+2)^0,c
  9442  003E2E  0E00               	movlw	0
  9443  003E30  6E3A               	movwf	(___flge@ff2+3)^0,c
  9444  003E32                     i2l4347:
  9445  003E32  AE36               	btfss	(___flge@ff1+3)^0,7,c
  9446  003E34  EF1E  F01F         	goto	i2u494_41
  9447  003E38  EF20  F01F         	goto	i2u494_40
  9448  003E3C                     i2u494_41:
  9449  003E3C  EF29  F01F         	goto	i2l4351
  9450  003E40                     i2u494_40:
  9451  003E40  6C33               	negf	___flge@ff1^0,c
  9452  003E42  1E34               	comf	(___flge@ff1+1)^0,f,c
  9453  003E44  B0D8               	btfsc	status,0,c
  9454  003E46  2A34               	incf	(___flge@ff1+1)^0,f,c
  9455  003E48  1E35               	comf	(___flge@ff1+2)^0,f,c
  9456  003E4A  B0D8               	btfsc	status,0,c
  9457  003E4C  2A35               	incf	(___flge@ff1+2)^0,f,c
  9458  003E4E  0E80               	movlw	128
  9459  003E50  5636               	subfwb	(___flge@ff1+3)^0,f,c
  9460  003E52                     i2l4351:
  9461  003E52  AE3A               	btfss	(___flge@ff2+3)^0,7,c
  9462  003E54  EF2E  F01F         	goto	i2u495_41
  9463  003E58  EF30  F01F         	goto	i2u495_40
  9464  003E5C                     i2u495_41:
  9465  003E5C  EF39  F01F         	goto	i2l796
  9466  003E60                     i2u495_40:
  9467  003E60  6C37               	negf	___flge@ff2^0,c
  9468  003E62  1E38               	comf	(___flge@ff2+1)^0,f,c
  9469  003E64  B0D8               	btfsc	status,0,c
  9470  003E66  2A38               	incf	(___flge@ff2+1)^0,f,c
  9471  003E68  1E39               	comf	(___flge@ff2+2)^0,f,c
  9472  003E6A  B0D8               	btfsc	status,0,c
  9473  003E6C  2A39               	incf	(___flge@ff2+2)^0,f,c
  9474  003E6E  0E80               	movlw	128
  9475  003E70  563A               	subfwb	(___flge@ff2+3)^0,f,c
  9476  003E72                     i2l796:
  9477  003E72  0E00               	movlw	0
  9478  003E74  1A33               	xorwf	___flge@ff1^0,f,c
  9479  003E76  0E00               	movlw	0
  9480  003E78  1A34               	xorwf	(___flge@ff1+1)^0,f,c
  9481  003E7A  0E00               	movlw	0
  9482  003E7C  1A35               	xorwf	(___flge@ff1+2)^0,f,c
  9483  003E7E  0E80               	movlw	128
  9484  003E80  1A36               	xorwf	(___flge@ff1+3)^0,f,c
  9485  003E82  0E00               	movlw	0
  9486  003E84  1A37               	xorwf	___flge@ff2^0,f,c
  9487  003E86  0E00               	movlw	0
  9488  003E88  1A38               	xorwf	(___flge@ff2+1)^0,f,c
  9489  003E8A  0E00               	movlw	0
  9490  003E8C  1A39               	xorwf	(___flge@ff2+2)^0,f,c
  9491  003E8E  0E80               	movlw	128
  9492  003E90  1A3A               	xorwf	(___flge@ff2+3)^0,f,c
  9493  003E92  5037               	movf	___flge@ff2^0,w,c
  9494  003E94  5C33               	subwf	___flge@ff1^0,w,c
  9495  003E96  5038               	movf	(___flge@ff2+1)^0,w,c
  9496  003E98  5834               	subwfb	(___flge@ff1+1)^0,w,c
  9497  003E9A  5039               	movf	(___flge@ff2+2)^0,w,c
  9498  003E9C  5835               	subwfb	(___flge@ff1+2)^0,w,c
  9499  003E9E  503A               	movf	(___flge@ff2+3)^0,w,c
  9500  003EA0  5836               	subwfb	(___flge@ff1+3)^0,w,c
  9501  003EA2  B0D8               	btfsc	status,0,c
  9502  003EA4  EF56  F01F         	goto	i2u496_41
  9503  003EA8  EF58  F01F         	goto	i2u496_40
  9504  003EAC                     i2u496_41:
  9505  003EAC  EF5B  F01F         	goto	i2l4357
  9506  003EB0                     i2u496_40:
  9507  003EB0  90D8               	bcf	status,0,c
  9508  003EB2  EF5C  F01F         	goto	i2l801
  9509  003EB6                     i2l4357:
  9510  003EB6  80D8               	bsf	status,0,c
  9511  003EB8                     i2l801:
  9512  003EB8  0012               	return		;funcret
  9513  003EBA                     __end_of___flge:
  9514                           	opt callstack 0
  9515                           
  9516 ;; *************** function ___fleq *****************
  9517 ;; Defined at:
  9518 ;;		line 4 in file "/opt/microchip/xc8/v2.10/pic/sources/c99/common/fleq.c"
  9519 ;; Parameters:    Size  Location     Type
  9520 ;;  ff1             4    0[COMRAM] unsigned char 
  9521 ;;  ff2             4    4[COMRAM] unsigned char 
  9522 ;; Auto vars:     Size  Location     Type
  9523 ;;		None
  9524 ;; Return value:  Size  Location     Type
  9525 ;;		None               void
  9526 ;; Registers used:
  9527 ;;		wreg, status,2, status,0
  9528 ;; Tracked objects:
  9529 ;;		On entry : 0/0
  9530 ;;		On exit  : 0/0
  9531 ;;		Unchanged: 0/0
  9532 ;; Data sizes:     COMRAM   BANK0   BANK1   BANK2   BANK3   BANK4   BANK5   BANK6   BANK7
  9533 ;;      Params:         8       0       0       0       0       0       0       0       0
  9534 ;;      Locals:         0       0       0       0       0       0       0       0       0
  9535 ;;      Temps:          4       0       0       0       0       0       0       0       0
  9536 ;;      Totals:        12       0       0       0       0       0       0       0       0
  9537 ;;Total ram usage:       12 bytes
  9538 ;; Hardware stack levels used:    1
  9539 ;; This function calls:
  9540 ;;		Nothing
  9541 ;; This function is called by:
  9542 ;;		_efgtoa
  9543 ;; This function uses a non-reentrant model
  9544 ;;
  9545                           
  9546                           	psect	text38
  9547  0046B2                     __ptext38:
  9548                           	opt callstack 0
  9549  0046B2                     ___fleq:
  9550                           	opt callstack 20
  9551  0046B2  0E00               	movlw	0
  9552  0046B4  1401               	andwf	___fleq@ff1^0,w,c
  9553  0046B6  6E09               	movwf	??___fleq^0,c
  9554  0046B8  0E00               	movlw	0
  9555  0046BA  1402               	andwf	(___fleq@ff1+1)^0,w,c
  9556  0046BC  6E0A               	movwf	(??___fleq+1)^0,c
  9557  0046BE  0E80               	movlw	128
  9558  0046C0  1403               	andwf	(___fleq@ff1+2)^0,w,c
  9559  0046C2  6E0B               	movwf	(??___fleq+2)^0,c
  9560  0046C4  0E7F               	movlw	127
  9561  0046C6  1404               	andwf	(___fleq@ff1+3)^0,w,c
  9562  0046C8  6E0C               	movwf	(??___fleq+3)^0,c
  9563  0046CA  5009               	movf	??___fleq^0,w,c
  9564  0046CC  100A               	iorwf	(??___fleq+1)^0,w,c
  9565  0046CE  100B               	iorwf	(??___fleq+2)^0,w,c
  9566  0046D0  100C               	iorwf	(??___fleq+3)^0,w,c
  9567  0046D2  A4D8               	btfss	status,2,c
  9568  0046D4  EF6E  F023         	goto	i2u489_41
  9569  0046D8  EF70  F023         	goto	i2u489_40
  9570  0046DC                     i2u489_41:
  9571  0046DC  EF78  F023         	goto	i2l4327
  9572  0046E0                     i2u489_40:
  9573  0046E0  0E00               	movlw	0
  9574  0046E2  6E01               	movwf	___fleq@ff1^0,c
  9575  0046E4  0E00               	movlw	0
  9576  0046E6  6E02               	movwf	(___fleq@ff1+1)^0,c
  9577  0046E8  0E00               	movlw	0
  9578  0046EA  6E03               	movwf	(___fleq@ff1+2)^0,c
  9579  0046EC  0E00               	movlw	0
  9580  0046EE  6E04               	movwf	(___fleq@ff1+3)^0,c
  9581  0046F0                     i2l4327:
  9582  0046F0  0E00               	movlw	0
  9583  0046F2  1405               	andwf	___fleq@ff2^0,w,c
  9584  0046F4  6E09               	movwf	??___fleq^0,c
  9585  0046F6  0E00               	movlw	0
  9586  0046F8  1406               	andwf	(___fleq@ff2+1)^0,w,c
  9587  0046FA  6E0A               	movwf	(??___fleq+1)^0,c
  9588  0046FC  0E80               	movlw	128
  9589  0046FE  1407               	andwf	(___fleq@ff2+2)^0,w,c
  9590  004700  6E0B               	movwf	(??___fleq+2)^0,c
  9591  004702  0E7F               	movlw	127
  9592  004704  1408               	andwf	(___fleq@ff2+3)^0,w,c
  9593  004706  6E0C               	movwf	(??___fleq+3)^0,c
  9594  004708  5009               	movf	??___fleq^0,w,c
  9595  00470A  100A               	iorwf	(??___fleq+1)^0,w,c
  9596  00470C  100B               	iorwf	(??___fleq+2)^0,w,c
  9597  00470E  100C               	iorwf	(??___fleq+3)^0,w,c
  9598  004710  A4D8               	btfss	status,2,c
  9599  004712  EF8D  F023         	goto	i2u490_41
  9600  004716  EF8F  F023         	goto	i2u490_40
  9601  00471A                     i2u490_41:
  9602  00471A  EF97  F023         	goto	i2l4331
  9603  00471E                     i2u490_40:
  9604  00471E  0E00               	movlw	0
  9605  004720  6E05               	movwf	___fleq@ff2^0,c
  9606  004722  0E00               	movlw	0
  9607  004724  6E06               	movwf	(___fleq@ff2+1)^0,c
  9608  004726  0E00               	movlw	0
  9609  004728  6E07               	movwf	(___fleq@ff2+2)^0,c
  9610  00472A  0E00               	movlw	0
  9611  00472C  6E08               	movwf	(___fleq@ff2+3)^0,c
  9612  00472E                     i2l4331:
  9613  00472E  5005               	movf	___fleq@ff2^0,w,c
  9614  004730  1801               	xorwf	___fleq@ff1^0,w,c
  9615  004732  E10F               	bnz	i2u491_40
  9616  004734  5006               	movf	(___fleq@ff2+1)^0,w,c
  9617  004736  1802               	xorwf	(___fleq@ff1+1)^0,w,c
  9618  004738  E10C               	bnz	i2u491_40
  9619  00473A  5007               	movf	(___fleq@ff2+2)^0,w,c
  9620  00473C  1803               	xorwf	(___fleq@ff1+2)^0,w,c
  9621  00473E  E109               	bnz	i2u491_40
  9622  004740  5008               	movf	(___fleq@ff2+3)^0,w,c
  9623  004742  1804               	xorwf	(___fleq@ff1+3)^0,w,c
  9624  004744  B4D8               	btfsc	status,2,c
  9625  004746  EFA7  F023         	goto	i2u491_41
  9626  00474A  EFA9  F023         	goto	i2u491_40
  9627  00474E                     i2u491_41:
  9628  00474E  EFAC  F023         	goto	i2l4335
  9629  004752                     i2u491_40:
  9630  004752  90D8               	bcf	status,0,c
  9631  004754  EFAD  F023         	goto	i2l790
  9632  004758                     i2l4335:
  9633  004758  80D8               	bsf	status,0,c
  9634  00475A                     i2l790:
  9635  00475A  0012               	return		;funcret
  9636  00475C                     __end_of___fleq:
  9637                           	opt callstack 0
  9638                           
  9639 ;; *************** function ___fldiv *****************
  9640 ;; Defined at:
  9641 ;;		line 11 in file "/opt/microchip/xc8/v2.10/pic/sources/c99/common/sprcdiv.c"
  9642 ;; Parameters:    Size  Location     Type
  9643 ;;  b               4    0[COMRAM] unsigned char 
  9644 ;;  a               4    4[COMRAM] unsigned char 
  9645 ;; Auto vars:     Size  Location     Type
  9646 ;;  grs             4   19[COMRAM] unsigned long 
  9647 ;;  rem             4   12[COMRAM] unsigned long 
  9648 ;;  new_exp         2   17[COMRAM] short 
  9649 ;;  aexp            1   24[COMRAM] unsigned char 
  9650 ;;  bexp            1   23[COMRAM] unsigned char 
  9651 ;;  sign            1   16[COMRAM] unsigned char 
  9652 ;; Return value:  Size  Location     Type
  9653 ;;                  4    0[COMRAM] unsigned char 
  9654 ;; Registers used:
  9655 ;;		wreg, status,2, status,0
  9656 ;; Tracked objects:
  9657 ;;		On entry : 0/0
  9658 ;;		On exit  : 0/0
  9659 ;;		Unchanged: 0/0
  9660 ;; Data sizes:     COMRAM   BANK0   BANK1   BANK2   BANK3   BANK4   BANK5   BANK6   BANK7
  9661 ;;      Params:         8       0       0       0       0       0       0       0       0
  9662 ;;      Locals:        13       0       0       0       0       0       0       0       0
  9663 ;;      Temps:          4       0       0       0       0       0       0       0       0
  9664 ;;      Totals:        25       0       0       0       0       0       0       0       0
  9665 ;;Total ram usage:       25 bytes
  9666 ;; Hardware stack levels used:    1
  9667 ;; This function calls:
  9668 ;;		Nothing
  9669 ;; This function is called by:
  9670 ;;		_INT_EX_0
  9671 ;;		_efgtoa
  9672 ;; This function uses a non-reentrant model
  9673 ;;
  9674                           
  9675                           	psect	text39
  9676  002204                     __ptext39:
  9677                           	opt callstack 0
  9678  002204                     ___fldiv:
  9679                           	opt callstack 20
  9680  002204  5004               	movf	(___fldiv@b+3)^0,w,c
  9681  002206  0B80               	andlw	128
  9682  002208  6E11               	movwf	___fldiv@sign^0,c
  9683  00220A  5004               	movf	(___fldiv@b+3)^0,w,c
  9684  00220C  2404               	addwf	(___fldiv@b+3)^0,w,c
  9685  00220E  6E18               	movwf	___fldiv@bexp^0,c
  9686  002210  AE03               	btfss	(___fldiv@b+2)^0,7,c
  9687  002212  EF0D  F011         	goto	i2u435_41
  9688  002216  EF0F  F011         	goto	i2u435_40
  9689  00221A                     i2u435_41:
  9690  00221A  EF10  F011         	goto	i2l3975
  9691  00221E                     i2u435_40:
  9692  00221E  8018               	bsf	___fldiv@bexp^0,0,c
  9693  002220                     i2l3975:
  9694  002220  5018               	movf	___fldiv@bexp^0,w,c
  9695  002222  B4D8               	btfsc	status,2,c
  9696  002224  EF16  F011         	goto	i2u436_41
  9697  002228  EF18  F011         	goto	i2u436_40
  9698  00222C                     i2u436_41:
  9699  00222C  EF2D  F011         	goto	i2l3985
  9700  002230                     i2u436_40:
  9701  002230  2818               	incf	___fldiv@bexp^0,w,c
  9702  002232  A4D8               	btfss	status,2,c
  9703  002234  EF1E  F011         	goto	i2u437_41
  9704  002238  EF20  F011         	goto	i2u437_40
  9705  00223C                     i2u437_41:
  9706  00223C  EF28  F011         	goto	i2l3981
  9707  002240                     i2u437_40:
  9708  002240  0E00               	movlw	0
  9709  002242  6E01               	movwf	___fldiv@b^0,c
  9710  002244  0E00               	movlw	0
  9711  002246  6E02               	movwf	(___fldiv@b+1)^0,c
  9712  002248  0E00               	movlw	0
  9713  00224A  6E03               	movwf	(___fldiv@b+2)^0,c
  9714  00224C  0E00               	movlw	0
  9715  00224E  6E04               	movwf	(___fldiv@b+3)^0,c
  9716  002250                     i2l3981:
  9717  002250  8E03               	bsf	(___fldiv@b+2)^0,7,c
  9718  002252  0E00               	movlw	0
  9719  002254  6E04               	movwf	(___fldiv@b+3)^0,c
  9720  002256  EF35  F011         	goto	i2l3987
  9721  00225A                     i2l3985:
  9722  00225A  0E00               	movlw	0
  9723  00225C  6E01               	movwf	___fldiv@b^0,c
  9724  00225E  0E00               	movlw	0
  9725  002260  6E02               	movwf	(___fldiv@b+1)^0,c
  9726  002262  0E00               	movlw	0
  9727  002264  6E03               	movwf	(___fldiv@b+2)^0,c
  9728  002266  0E00               	movlw	0
  9729  002268  6E04               	movwf	(___fldiv@b+3)^0,c
  9730  00226A                     i2l3987:
  9731  00226A  5008               	movf	(___fldiv@a+3)^0,w,c
  9732  00226C  0B80               	andlw	128
  9733  00226E  1A11               	xorwf	___fldiv@sign^0,f,c
  9734  002270  5008               	movf	(___fldiv@a+3)^0,w,c
  9735  002272  2408               	addwf	(___fldiv@a+3)^0,w,c
  9736  002274  6E19               	movwf	___fldiv@aexp^0,c
  9737  002276  AE07               	btfss	(___fldiv@a+2)^0,7,c
  9738  002278  EF40  F011         	goto	i2u438_41
  9739  00227C  EF42  F011         	goto	i2u438_40
  9740  002280                     i2u438_41:
  9741  002280  EF43  F011         	goto	i2l3995
  9742  002284                     i2u438_40:
  9743  002284  8019               	bsf	___fldiv@aexp^0,0,c
  9744  002286                     i2l3995:
  9745  002286  5019               	movf	___fldiv@aexp^0,w,c
  9746  002288  B4D8               	btfsc	status,2,c
  9747  00228A  EF49  F011         	goto	i2u439_41
  9748  00228E  EF4B  F011         	goto	i2u439_40
  9749  002292                     i2u439_41:
  9750  002292  EF60  F011         	goto	i2l4005
  9751  002296                     i2u439_40:
  9752  002296  2819               	incf	___fldiv@aexp^0,w,c
  9753  002298  A4D8               	btfss	status,2,c
  9754  00229A  EF51  F011         	goto	i2u440_41
  9755  00229E  EF53  F011         	goto	i2u440_40
  9756  0022A2                     i2u440_41:
  9757  0022A2  EF5B  F011         	goto	i2l4001
  9758  0022A6                     i2u440_40:
  9759  0022A6  0E00               	movlw	0
  9760  0022A8  6E05               	movwf	___fldiv@a^0,c
  9761  0022AA  0E00               	movlw	0
  9762  0022AC  6E06               	movwf	(___fldiv@a+1)^0,c
  9763  0022AE  0E00               	movlw	0
  9764  0022B0  6E07               	movwf	(___fldiv@a+2)^0,c
  9765  0022B2  0E00               	movlw	0
  9766  0022B4  6E08               	movwf	(___fldiv@a+3)^0,c
  9767  0022B6                     i2l4001:
  9768  0022B6  8E07               	bsf	(___fldiv@a+2)^0,7,c
  9769  0022B8  0E00               	movlw	0
  9770  0022BA  6E08               	movwf	(___fldiv@a+3)^0,c
  9771  0022BC  EF68  F011         	goto	i2l4007
  9772  0022C0                     i2l4005:
  9773  0022C0  0E00               	movlw	0
  9774  0022C2  6E05               	movwf	___fldiv@a^0,c
  9775  0022C4  0E00               	movlw	0
  9776  0022C6  6E06               	movwf	(___fldiv@a+1)^0,c
  9777  0022C8  0E00               	movlw	0
  9778  0022CA  6E07               	movwf	(___fldiv@a+2)^0,c
  9779  0022CC  0E00               	movlw	0
  9780  0022CE  6E08               	movwf	(___fldiv@a+3)^0,c
  9781  0022D0                     i2l4007:
  9782  0022D0  5005               	movf	___fldiv@a^0,w,c
  9783  0022D2  1006               	iorwf	(___fldiv@a+1)^0,w,c
  9784  0022D4  1007               	iorwf	(___fldiv@a+2)^0,w,c
  9785  0022D6  1008               	iorwf	(___fldiv@a+3)^0,w,c
  9786  0022D8  A4D8               	btfss	status,2,c
  9787  0022DA  EF71  F011         	goto	i2u441_41
  9788  0022DE  EF73  F011         	goto	i2u441_40
  9789  0022E2                     i2u441_41:
  9790  0022E2  EF8B  F011         	goto	i2l4019
  9791  0022E6                     i2u441_40:
  9792  0022E6  0E00               	movlw	0
  9793  0022E8  6E01               	movwf	___fldiv@b^0,c
  9794  0022EA  0E00               	movlw	0
  9795  0022EC  6E02               	movwf	(___fldiv@b+1)^0,c
  9796  0022EE  0E00               	movlw	0
  9797  0022F0  6E03               	movwf	(___fldiv@b+2)^0,c
  9798  0022F2  0E00               	movlw	0
  9799  0022F4  6E04               	movwf	(___fldiv@b+3)^0,c
  9800  0022F6  0E80               	movlw	128
  9801  0022F8  1203               	iorwf	(___fldiv@b+2)^0,f,c
  9802  0022FA  0E7F               	movlw	127
  9803  0022FC  1204               	iorwf	(___fldiv@b+3)^0,f,c
  9804  0022FE                     i2l4013:
  9805  0022FE  5011               	movf	___fldiv@sign^0,w,c
  9806  002300  1204               	iorwf	(___fldiv@b+3)^0,f,c
  9807  002302  C001  F001         	movff	___fldiv@b,?___fldiv
  9808  002306  C002  F002         	movff	___fldiv@b+1,?___fldiv+1
  9809  00230A  C003  F003         	movff	___fldiv@b+2,?___fldiv+2
  9810  00230E  C004  F004         	movff	___fldiv@b+3,?___fldiv+3
  9811  002312  EFCE  F012         	goto	i2l1113
  9812  002316                     i2l4019:
  9813  002316  5018               	movf	___fldiv@bexp^0,w,c
  9814  002318  A4D8               	btfss	status,2,c
  9815  00231A  EF91  F011         	goto	i2u442_41
  9816  00231E  EF93  F011         	goto	i2u442_40
  9817  002322                     i2u442_41:
  9818  002322  EF9D  F011         	goto	i2l4027
  9819  002326                     i2u442_40:
  9820  002326  0E00               	movlw	0
  9821  002328  6E01               	movwf	?___fldiv^0,c
  9822  00232A  0E00               	movlw	0
  9823  00232C  6E02               	movwf	(?___fldiv+1)^0,c
  9824  00232E  0E00               	movlw	0
  9825  002330  6E03               	movwf	(?___fldiv+2)^0,c
  9826  002332  0E00               	movlw	0
  9827  002334  6E04               	movwf	(?___fldiv+3)^0,c
  9828  002336  EFCE  F012         	goto	i2l1113
  9829  00233A                     i2l4027:
  9830  00233A  5019               	movf	___fldiv@aexp^0,w,c
  9831  00233C  C018  F009         	movff	___fldiv@bexp,??___fldiv
  9832  002340  6A0A               	clrf	(??___fldiv+1)^0,c
  9833  002342  5E09               	subwf	??___fldiv^0,f,c
  9834  002344  0E00               	movlw	0
  9835  002346  5A0A               	subwfb	(??___fldiv+1)^0,f,c
  9836  002348  0E7F               	movlw	127
  9837  00234A  2409               	addwf	??___fldiv^0,w,c
  9838  00234C  6E12               	movwf	___fldiv@new_exp^0,c
  9839  00234E  0E00               	movlw	0
  9840  002350  200A               	addwfc	(??___fldiv+1)^0,w,c
  9841  002352  6E13               	movwf	(___fldiv@new_exp+1)^0,c
  9842  002354  C001  F00D         	movff	___fldiv@b,___fldiv@rem
  9843  002358  C002  F00E         	movff	___fldiv@b+1,___fldiv@rem+1
  9844  00235C  C003  F00F         	movff	___fldiv@b+2,___fldiv@rem+2
  9845  002360  C004  F010         	movff	___fldiv@b+3,___fldiv@rem+3
  9846  002364  0E00               	movlw	0
  9847  002366  6E01               	movwf	___fldiv@b^0,c
  9848  002368  0E00               	movlw	0
  9849  00236A  6E02               	movwf	(___fldiv@b+1)^0,c
  9850  00236C  0E00               	movlw	0
  9851  00236E  6E03               	movwf	(___fldiv@b+2)^0,c
  9852  002370  0E00               	movlw	0
  9853  002372  6E04               	movwf	(___fldiv@b+3)^0,c
  9854  002374  0E00               	movlw	0
  9855  002376  6E14               	movwf	___fldiv@grs^0,c
  9856  002378  0E00               	movlw	0
  9857  00237A  6E15               	movwf	(___fldiv@grs+1)^0,c
  9858  00237C  0E00               	movlw	0
  9859  00237E  6E16               	movwf	(___fldiv@grs+2)^0,c
  9860  002380  0E00               	movlw	0
  9861  002382  6E17               	movwf	(___fldiv@grs+3)^0,c
  9862  002384  0E00               	movlw	0
  9863  002386  6E19               	movwf	___fldiv@aexp^0,c
  9864  002388  EFFE  F011         	goto	i2l1115
  9865  00238C                     i2l4037:
  9866  00238C  5019               	movf	___fldiv@aexp^0,w,c
  9867  00238E  B4D8               	btfsc	status,2,c
  9868  002390  EFCC  F011         	goto	i2u443_41
  9869  002394  EFCE  F011         	goto	i2u443_40
  9870  002398                     i2u443_41:
  9871  002398  EFE5  F011         	goto	i2l4045
  9872  00239C                     i2u443_40:
  9873  00239C  90D8               	bcf	status,0,c
  9874  00239E  360D               	rlcf	___fldiv@rem^0,f,c
  9875  0023A0  360E               	rlcf	(___fldiv@rem+1)^0,f,c
  9876  0023A2  360F               	rlcf	(___fldiv@rem+2)^0,f,c
  9877  0023A4  3610               	rlcf	(___fldiv@rem+3)^0,f,c
  9878  0023A6  90D8               	bcf	status,0,c
  9879  0023A8  3601               	rlcf	___fldiv@b^0,f,c
  9880  0023AA  3602               	rlcf	(___fldiv@b+1)^0,f,c
  9881  0023AC  3603               	rlcf	(___fldiv@b+2)^0,f,c
  9882  0023AE  3604               	rlcf	(___fldiv@b+3)^0,f,c
  9883  0023B0  AE17               	btfss	(___fldiv@grs+3)^0,7,c
  9884  0023B2  EFDD  F011         	goto	i2u444_41
  9885  0023B6  EFDF  F011         	goto	i2u444_40
  9886  0023BA                     i2u444_41:
  9887  0023BA  EFE0  F011         	goto	i2l1118
  9888  0023BE                     i2u444_40:
  9889  0023BE  8001               	bsf	___fldiv@b^0,0,c
  9890  0023C0                     i2l1118:
  9891  0023C0  90D8               	bcf	status,0,c
  9892  0023C2  3614               	rlcf	___fldiv@grs^0,f,c
  9893  0023C4  3615               	rlcf	(___fldiv@grs+1)^0,f,c
  9894  0023C6  3616               	rlcf	(___fldiv@grs+2)^0,f,c
  9895  0023C8  3617               	rlcf	(___fldiv@grs+3)^0,f,c
  9896  0023CA                     i2l4045:
  9897  0023CA  5005               	movf	___fldiv@a^0,w,c
  9898  0023CC  5C0D               	subwf	___fldiv@rem^0,w,c
  9899  0023CE  5006               	movf	(___fldiv@a+1)^0,w,c
  9900  0023D0  580E               	subwfb	(___fldiv@rem+1)^0,w,c
  9901  0023D2  5007               	movf	(___fldiv@a+2)^0,w,c
  9902  0023D4  580F               	subwfb	(___fldiv@rem+2)^0,w,c
  9903  0023D6  5008               	movf	(___fldiv@a+3)^0,w,c
  9904  0023D8  5810               	subwfb	(___fldiv@rem+3)^0,w,c
  9905  0023DA  A0D8               	btfss	status,0,c
  9906  0023DC  EFF2  F011         	goto	i2u445_41
  9907  0023E0  EFF4  F011         	goto	i2u445_40
  9908  0023E4                     i2u445_41:
  9909  0023E4  EFFD  F011         	goto	i2l4051
  9910  0023E8                     i2u445_40:
  9911  0023E8  8C17               	bsf	(___fldiv@grs+3)^0,6,c
  9912  0023EA  5005               	movf	___fldiv@a^0,w,c
  9913  0023EC  5E0D               	subwf	___fldiv@rem^0,f,c
  9914  0023EE  5006               	movf	(___fldiv@a+1)^0,w,c
  9915  0023F0  5A0E               	subwfb	(___fldiv@rem+1)^0,f,c
  9916  0023F2  5007               	movf	(___fldiv@a+2)^0,w,c
  9917  0023F4  5A0F               	subwfb	(___fldiv@rem+2)^0,f,c
  9918  0023F6  5008               	movf	(___fldiv@a+3)^0,w,c
  9919  0023F8  5A10               	subwfb	(___fldiv@rem+3)^0,f,c
  9920  0023FA                     i2l4051:
  9921  0023FA  2A19               	incf	___fldiv@aexp^0,f,c
  9922  0023FC                     i2l1115:
  9923  0023FC  0E19               	movlw	25
  9924  0023FE  6419               	cpfsgt	___fldiv@aexp^0,c
  9925  002400  EF04  F012         	goto	i2u446_41
  9926  002404  EF06  F012         	goto	i2u446_40
  9927  002408                     i2u446_41:
  9928  002408  EFC6  F011         	goto	i2l4037
  9929  00240C                     i2u446_40:
  9930  00240C  500D               	movf	___fldiv@rem^0,w,c
  9931  00240E  100E               	iorwf	(___fldiv@rem+1)^0,w,c
  9932  002410  100F               	iorwf	(___fldiv@rem+2)^0,w,c
  9933  002412  1010               	iorwf	(___fldiv@rem+3)^0,w,c
  9934  002414  B4D8               	btfsc	status,2,c
  9935  002416  EF0F  F012         	goto	i2u447_41
  9936  00241A  EF11  F012         	goto	i2u447_40
  9937  00241E                     i2u447_41:
  9938  00241E  EF29  F012         	goto	i2l4063
  9939  002422                     i2u447_40:
  9940  002422  8014               	bsf	___fldiv@grs^0,0,c
  9941  002424  EF29  F012         	goto	i2l4063
  9942  002428                     i2l4057:
  9943  002428  90D8               	bcf	status,0,c
  9944  00242A  3601               	rlcf	___fldiv@b^0,f,c
  9945  00242C  3602               	rlcf	(___fldiv@b+1)^0,f,c
  9946  00242E  3603               	rlcf	(___fldiv@b+2)^0,f,c
  9947  002430  3604               	rlcf	(___fldiv@b+3)^0,f,c
  9948  002432  AE17               	btfss	(___fldiv@grs+3)^0,7,c
  9949  002434  EF1E  F012         	goto	i2u448_41
  9950  002438  EF20  F012         	goto	i2u448_40
  9951  00243C                     i2u448_41:
  9952  00243C  EF21  F012         	goto	i2l1124
  9953  002440                     i2u448_40:
  9954  002440  8001               	bsf	___fldiv@b^0,0,c
  9955  002442                     i2l1124:
  9956  002442  90D8               	bcf	status,0,c
  9957  002444  3614               	rlcf	___fldiv@grs^0,f,c
  9958  002446  3615               	rlcf	(___fldiv@grs+1)^0,f,c
  9959  002448  3616               	rlcf	(___fldiv@grs+2)^0,f,c
  9960  00244A  3617               	rlcf	(___fldiv@grs+3)^0,f,c
  9961  00244C  0612               	decf	___fldiv@new_exp^0,f,c
  9962  00244E  A0D8               	btfss	status,0,c
  9963  002450  0613               	decf	(___fldiv@new_exp+1)^0,f,c
  9964  002452                     i2l4063:
  9965  002452  AE03               	btfss	(___fldiv@b+2)^0,7,c
  9966  002454  EF2E  F012         	goto	i2u449_41
  9967  002458  EF30  F012         	goto	i2u449_40
  9968  00245C                     i2u449_41:
  9969  00245C  EF14  F012         	goto	i2l4057
  9970  002460                     i2u449_40:
  9971  002460  0E00               	movlw	0
  9972  002462  6E19               	movwf	___fldiv@aexp^0,c
  9973  002464  AE17               	btfss	(___fldiv@grs+3)^0,7,c
  9974  002466  EF37  F012         	goto	i2u450_41
  9975  00246A  EF39  F012         	goto	i2u450_40
  9976  00246E                     i2u450_41:
  9977  00246E  EF5D  F012         	goto	i2l1126
  9978  002472                     i2u450_40:
  9979  002472  0EFF               	movlw	255
  9980  002474  1414               	andwf	___fldiv@grs^0,w,c
  9981  002476  6E09               	movwf	??___fldiv^0,c
  9982  002478  0EFF               	movlw	255
  9983  00247A  1415               	andwf	(___fldiv@grs+1)^0,w,c
  9984  00247C  6E0A               	movwf	(??___fldiv+1)^0,c
  9985  00247E  0EFF               	movlw	255
  9986  002480  1416               	andwf	(___fldiv@grs+2)^0,w,c
  9987  002482  6E0B               	movwf	(??___fldiv+2)^0,c
  9988  002484  0E7F               	movlw	127
  9989  002486  1417               	andwf	(___fldiv@grs+3)^0,w,c
  9990  002488  6E0C               	movwf	(??___fldiv+3)^0,c
  9991  00248A  5009               	movf	??___fldiv^0,w,c
  9992  00248C  100A               	iorwf	(??___fldiv+1)^0,w,c
  9993  00248E  100B               	iorwf	(??___fldiv+2)^0,w,c
  9994  002490  100C               	iorwf	(??___fldiv+3)^0,w,c
  9995  002492  B4D8               	btfsc	status,2,c
  9996  002494  EF4E  F012         	goto	i2u451_41
  9997  002498  EF50  F012         	goto	i2u451_40
  9998  00249C                     i2u451_41:
  9999  00249C  EF54  F012         	goto	i2l1127
 10000  0024A0                     i2u451_40:
 10001  0024A0                     i2l4071:
 10002  0024A0  0E01               	movlw	1
 10003  0024A2  6E19               	movwf	___fldiv@aexp^0,c
 10004  0024A4  EF5D  F012         	goto	i2l1126
 10005  0024A8                     i2l1127:
 10006  0024A8  A001               	btfss	___fldiv@b^0,0,c
 10007  0024AA  EF59  F012         	goto	i2u452_41
 10008  0024AE  EF5B  F012         	goto	i2u452_40
 10009  0024B2                     i2u452_41:
 10010  0024B2  EF5D  F012         	goto	i2l1126
 10011  0024B6                     i2u452_40:
 10012  0024B6  EF50  F012         	goto	i2l4071
 10013  0024BA                     i2l1126:
 10014  0024BA  5019               	movf	___fldiv@aexp^0,w,c
 10015  0024BC  B4D8               	btfsc	status,2,c
 10016  0024BE  EF63  F012         	goto	i2u453_41
 10017  0024C2  EF65  F012         	goto	i2u453_40
 10018  0024C6                     i2u453_41:
 10019  0024C6  EF89  F012         	goto	i2l4083
 10020  0024CA                     i2u453_40:
 10021  0024CA  0E01               	movlw	1
 10022  0024CC  2601               	addwf	___fldiv@b^0,f,c
 10023  0024CE  0E00               	movlw	0
 10024  0024D0  2202               	addwfc	(___fldiv@b+1)^0,f,c
 10025  0024D2  2203               	addwfc	(___fldiv@b+2)^0,f,c
 10026  0024D4  2204               	addwfc	(___fldiv@b+3)^0,f,c
 10027  0024D6  A004               	btfss	(___fldiv@b+3)^0,0,c
 10028  0024D8  EF70  F012         	goto	i2u454_41
 10029  0024DC  EF72  F012         	goto	i2u454_40
 10030  0024E0                     i2u454_41:
 10031  0024E0  EF89  F012         	goto	i2l4083
 10032  0024E4                     i2u454_40:
 10033  0024E4  C001  F009         	movff	___fldiv@b,??___fldiv
 10034  0024E8  C002  F00A         	movff	___fldiv@b+1,??___fldiv+1
 10035  0024EC  C003  F00B         	movff	___fldiv@b+2,??___fldiv+2
 10036  0024F0  C004  F00C         	movff	___fldiv@b+3,??___fldiv+3
 10037  0024F4  340C               	rlcf	(??___fldiv+3)^0,w,c
 10038  0024F6  320C               	rrcf	(??___fldiv+3)^0,f,c
 10039  0024F8  320B               	rrcf	(??___fldiv+2)^0,f,c
 10040  0024FA  320A               	rrcf	(??___fldiv+1)^0,f,c
 10041  0024FC  3209               	rrcf	??___fldiv^0,f,c
 10042  0024FE  C009  F001         	movff	??___fldiv,___fldiv@b
 10043  002502  C00A  F002         	movff	??___fldiv+1,___fldiv@b+1
 10044  002506  C00B  F003         	movff	??___fldiv+2,___fldiv@b+2
 10045  00250A  C00C  F004         	movff	??___fldiv+3,___fldiv@b+3
 10046  00250E  4A12               	infsnz	___fldiv@new_exp^0,f,c
 10047  002510  2A13               	incf	(___fldiv@new_exp+1)^0,f,c
 10048  002512                     i2l4083:
 10049  002512  BE13               	btfsc	(___fldiv@new_exp+1)^0,7,c
 10050  002514  EF94  F012         	goto	i2u455_41
 10051  002518  5013               	movf	(___fldiv@new_exp+1)^0,w,c
 10052  00251A  E108               	bnz	i2u455_40
 10053  00251C  2812               	incf	___fldiv@new_exp^0,w,c
 10054  00251E  A0D8               	btfss	status,0,c
 10055  002520  EF94  F012         	goto	i2u455_41
 10056  002524  EF96  F012         	goto	i2u455_40
 10057  002528                     i2u455_41:
 10058  002528  EFA1  F012         	goto	i2l4087
 10059  00252C                     i2u455_40:
 10060  00252C  0E00               	movlw	0
 10061  00252E  6E13               	movwf	(___fldiv@new_exp+1)^0,c
 10062  002530  6812               	setf	___fldiv@new_exp^0,c
 10063  002532  0E00               	movlw	0
 10064  002534  6E01               	movwf	___fldiv@b^0,c
 10065  002536  0E00               	movlw	0
 10066  002538  6E02               	movwf	(___fldiv@b+1)^0,c
 10067  00253A  0E00               	movlw	0
 10068  00253C  6E03               	movwf	(___fldiv@b+2)^0,c
 10069  00253E  0E00               	movlw	0
 10070  002540  6E04               	movwf	(___fldiv@b+3)^0,c
 10071  002542                     i2l4087:
 10072  002542  BE13               	btfsc	(___fldiv@new_exp+1)^0,7,c
 10073  002544  EFAE  F012         	goto	i2u456_40
 10074  002548  5013               	movf	(___fldiv@new_exp+1)^0,w,c
 10075  00254A  E106               	bnz	i2u456_41
 10076  00254C  0412               	decf	___fldiv@new_exp^0,w,c
 10077  00254E  B0D8               	btfsc	status,0,c
 10078  002550  EFAC  F012         	goto	i2u456_41
 10079  002554  EFAE  F012         	goto	i2u456_40
 10080  002558                     i2u456_41:
 10081  002558  EFBC  F012         	goto	i2l4091
 10082  00255C                     i2u456_40:
 10083  00255C  0E00               	movlw	0
 10084  00255E  6E13               	movwf	(___fldiv@new_exp+1)^0,c
 10085  002560  0E00               	movlw	0
 10086  002562  6E12               	movwf	___fldiv@new_exp^0,c
 10087  002564  0E00               	movlw	0
 10088  002566  6E01               	movwf	___fldiv@b^0,c
 10089  002568  0E00               	movlw	0
 10090  00256A  6E02               	movwf	(___fldiv@b+1)^0,c
 10091  00256C  0E00               	movlw	0
 10092  00256E  6E03               	movwf	(___fldiv@b+2)^0,c
 10093  002570  0E00               	movlw	0
 10094  002572  6E04               	movwf	(___fldiv@b+3)^0,c
 10095  002574  0E00               	movlw	0
 10096  002576  6E11               	movwf	___fldiv@sign^0,c
 10097  002578                     i2l4091:
 10098  002578  C012  F018         	movff	___fldiv@new_exp,___fldiv@bexp
 10099  00257C  A018               	btfss	___fldiv@bexp^0,0,c
 10100  00257E  EFC3  F012         	goto	i2u457_41
 10101  002582  EFC5  F012         	goto	i2u457_40
 10102  002586                     i2u457_41:
 10103  002586  EFC8  F012         	goto	i2l4097
 10104  00258A                     i2u457_40:
 10105  00258A  8E03               	bsf	(___fldiv@b+2)^0,7,c
 10106  00258C  EFC9  F012         	goto	i2l4099
 10107  002590                     i2l4097:
 10108  002590  9E03               	bcf	(___fldiv@b+2)^0,7,c
 10109  002592                     i2l4099:
 10110  002592  90D8               	bcf	status,0,c
 10111  002594  3018               	rrcf	___fldiv@bexp^0,w,c
 10112  002596  6E04               	movwf	(___fldiv@b+3)^0,c
 10113  002598  EF7F  F011         	goto	i2l4013
 10114  00259C                     i2l1113:
 10115  00259C  0012               	return		;funcret
 10116  00259E                     __end_of___fldiv:
 10117                           	opt callstack 0
 10118                           
 10119 ;; *************** function ___awmod *****************
 10120 ;; Defined at:
 10121 ;;		line 7 in file "/opt/microchip/xc8/v2.10/pic/sources/c99/common/awmod.c"
 10122 ;; Parameters:    Size  Location     Type
 10123 ;;  dividend        2    0[COMRAM] int 
 10124 ;;  divisor         2    2[COMRAM] int 
 10125 ;; Auto vars:     Size  Location     Type
 10126 ;;  sign            1    5[COMRAM] unsigned char 
 10127 ;;  counter         1    4[COMRAM] unsigned char 
 10128 ;; Return value:  Size  Location     Type
 10129 ;;                  2    0[COMRAM] int 
 10130 ;; Registers used:
 10131 ;;		wreg, status,2, status,0
 10132 ;; Tracked objects:
 10133 ;;		On entry : 0/0
 10134 ;;		On exit  : 0/0
 10135 ;;		Unchanged: 0/0
 10136 ;; Data sizes:     COMRAM   BANK0   BANK1   BANK2   BANK3   BANK4   BANK5   BANK6   BANK7
 10137 ;;      Params:         4       0       0       0       0       0       0       0       0
 10138 ;;      Locals:         2       0       0       0       0       0       0       0       0
 10139 ;;      Temps:          0       0       0       0       0       0       0       0       0
 10140 ;;      Totals:         6       0       0       0       0       0       0       0       0
 10141 ;;Total ram usage:        6 bytes
 10142 ;; Hardware stack levels used:    1
 10143 ;; This function calls:
 10144 ;;		Nothing
 10145 ;; This function is called by:
 10146 ;;		_efgtoa
 10147 ;; This function uses a non-reentrant model
 10148 ;;
 10149                           
 10150                           	psect	text40
 10151  004602                     __ptext40:
 10152                           	opt callstack 0
 10153  004602                     ___awmod:
 10154                           	opt callstack 20
 10155  004602  0E00               	movlw	0
 10156  004604  6E06               	movwf	___awmod@sign^0,c
 10157  004606  BE02               	btfsc	(___awmod@dividend+1)^0,7,c
 10158  004608  EF0A  F023         	goto	i2u483_40
 10159  00460C  EF08  F023         	goto	i2u483_41
 10160  004610                     i2u483_41:
 10161  004610  EF10  F023         	goto	i2l4295
 10162  004614                     i2u483_40:
 10163  004614  6C01               	negf	___awmod@dividend^0,c
 10164  004616  1E02               	comf	(___awmod@dividend+1)^0,f,c
 10165  004618  B0D8               	btfsc	status,0,c
 10166  00461A  2A02               	incf	(___awmod@dividend+1)^0,f,c
 10167  00461C  0E01               	movlw	1
 10168  00461E  6E06               	movwf	___awmod@sign^0,c
 10169  004620                     i2l4295:
 10170  004620  BE04               	btfsc	(___awmod@divisor+1)^0,7,c
 10171  004622  EF17  F023         	goto	i2u484_40
 10172  004626  EF15  F023         	goto	i2u484_41
 10173  00462A                     i2u484_41:
 10174  00462A  EF1B  F023         	goto	i2l4299
 10175  00462E                     i2u484_40:
 10176  00462E  6C03               	negf	___awmod@divisor^0,c
 10177  004630  1E04               	comf	(___awmod@divisor+1)^0,f,c
 10178  004632  B0D8               	btfsc	status,0,c
 10179  004634  2A04               	incf	(___awmod@divisor+1)^0,f,c
 10180  004636                     i2l4299:
 10181  004636  5003               	movf	___awmod@divisor^0,w,c
 10182  004638  1004               	iorwf	(___awmod@divisor+1)^0,w,c
 10183  00463A  B4D8               	btfsc	status,2,c
 10184  00463C  EF22  F023         	goto	i2u485_41
 10185  004640  EF24  F023         	goto	i2u485_40
 10186  004644                     i2u485_41:
 10187  004644  EF48  F023         	goto	i2l4315
 10188  004648                     i2u485_40:
 10189  004648  0E01               	movlw	1
 10190  00464A  6E05               	movwf	___awmod@counter^0,c
 10191  00464C  EF2C  F023         	goto	i2l4305
 10192  004650                     i2l4303:
 10193  004650  90D8               	bcf	status,0,c
 10194  004652  3603               	rlcf	___awmod@divisor^0,f,c
 10195  004654  3604               	rlcf	(___awmod@divisor+1)^0,f,c
 10196  004656  2A05               	incf	___awmod@counter^0,f,c
 10197  004658                     i2l4305:
 10198  004658  AE04               	btfss	(___awmod@divisor+1)^0,7,c
 10199  00465A  EF31  F023         	goto	i2u486_41
 10200  00465E  EF33  F023         	goto	i2u486_40
 10201  004662                     i2u486_41:
 10202  004662  EF28  F023         	goto	i2l4303
 10203  004666                     i2u486_40:
 10204  004666                     i2l4307:
 10205  004666  5003               	movf	___awmod@divisor^0,w,c
 10206  004668  5C01               	subwf	___awmod@dividend^0,w,c
 10207  00466A  5004               	movf	(___awmod@divisor+1)^0,w,c
 10208  00466C  5802               	subwfb	(___awmod@dividend+1)^0,w,c
 10209  00466E  A0D8               	btfss	status,0,c
 10210  004670  EF3C  F023         	goto	i2u487_41
 10211  004674  EF3E  F023         	goto	i2u487_40
 10212  004678                     i2u487_41:
 10213  004678  EF42  F023         	goto	i2l4311
 10214  00467C                     i2u487_40:
 10215  00467C  5003               	movf	___awmod@divisor^0,w,c
 10216  00467E  5E01               	subwf	___awmod@dividend^0,f,c
 10217  004680  5004               	movf	(___awmod@divisor+1)^0,w,c
 10218  004682  5A02               	subwfb	(___awmod@dividend+1)^0,f,c
 10219  004684                     i2l4311:
 10220  004684  90D8               	bcf	status,0,c
 10221  004686  3204               	rrcf	(___awmod@divisor+1)^0,f,c
 10222  004688  3203               	rrcf	___awmod@divisor^0,f,c
 10223  00468A  2E05               	decfsz	___awmod@counter^0,f,c
 10224  00468C  EF33  F023         	goto	i2l4307
 10225  004690                     i2l4315:
 10226  004690  5006               	movf	___awmod@sign^0,w,c
 10227  004692  B4D8               	btfsc	status,2,c
 10228  004694  EF4E  F023         	goto	i2u488_41
 10229  004698  EF50  F023         	goto	i2u488_40
 10230  00469C                     i2u488_41:
 10231  00469C  EF54  F023         	goto	i2l4319
 10232  0046A0                     i2u488_40:
 10233  0046A0  6C01               	negf	___awmod@dividend^0,c
 10234  0046A2  1E02               	comf	(___awmod@dividend+1)^0,f,c
 10235  0046A4  B0D8               	btfsc	status,0,c
 10236  0046A6  2A02               	incf	(___awmod@dividend+1)^0,f,c
 10237  0046A8                     i2l4319:
 10238  0046A8  C001  F001         	movff	___awmod@dividend,?___awmod
 10239  0046AC  C002  F002         	movff	___awmod@dividend+1,?___awmod+1
 10240  0046B0  0012               	return		;funcret
 10241  0046B2                     __end_of___awmod:
 10242                           	opt callstack 0
 10243                           
 10244 ;; *************** function ___awdiv *****************
 10245 ;; Defined at:
 10246 ;;		line 7 in file "/opt/microchip/xc8/v2.10/pic/sources/c99/common/awdiv.c"
 10247 ;; Parameters:    Size  Location     Type
 10248 ;;  dividend        2    0[COMRAM] int 
 10249 ;;  divisor         2    2[COMRAM] int 
 10250 ;; Auto vars:     Size  Location     Type
 10251 ;;  quotient        2    6[COMRAM] int 
 10252 ;;  sign            1    5[COMRAM] unsigned char 
 10253 ;;  counter         1    4[COMRAM] unsigned char 
 10254 ;; Return value:  Size  Location     Type
 10255 ;;                  2    0[COMRAM] int 
 10256 ;; Registers used:
 10257 ;;		wreg, status,2, status,0
 10258 ;; Tracked objects:
 10259 ;;		On entry : 0/0
 10260 ;;		On exit  : 0/0
 10261 ;;		Unchanged: 0/0
 10262 ;; Data sizes:     COMRAM   BANK0   BANK1   BANK2   BANK3   BANK4   BANK5   BANK6   BANK7
 10263 ;;      Params:         4       0       0       0       0       0       0       0       0
 10264 ;;      Locals:         4       0       0       0       0       0       0       0       0
 10265 ;;      Temps:          0       0       0       0       0       0       0       0       0
 10266 ;;      Totals:         8       0       0       0       0       0       0       0       0
 10267 ;;Total ram usage:        8 bytes
 10268 ;; Hardware stack levels used:    1
 10269 ;; This function calls:
 10270 ;;		Nothing
 10271 ;; This function is called by:
 10272 ;;		_efgtoa
 10273 ;; This function uses a non-reentrant model
 10274 ;;
 10275                           
 10276                           	psect	text41
 10277  0043CC                     __ptext41:
 10278                           	opt callstack 0
 10279  0043CC                     ___awdiv:
 10280                           	opt callstack 20
 10281  0043CC  0E00               	movlw	0
 10282  0043CE  6E06               	movwf	___awdiv@sign^0,c
 10283  0043D0  BE04               	btfsc	(___awdiv@divisor+1)^0,7,c
 10284  0043D2  EFEF  F021         	goto	i2u477_40
 10285  0043D6  EFED  F021         	goto	i2u477_41
 10286  0043DA                     i2u477_41:
 10287  0043DA  EFF5  F021         	goto	i2l4251
 10288  0043DE                     i2u477_40:
 10289  0043DE  6C03               	negf	___awdiv@divisor^0,c
 10290  0043E0  1E04               	comf	(___awdiv@divisor+1)^0,f,c
 10291  0043E2  B0D8               	btfsc	status,0,c
 10292  0043E4  2A04               	incf	(___awdiv@divisor+1)^0,f,c
 10293  0043E6  0E01               	movlw	1
 10294  0043E8  6E06               	movwf	___awdiv@sign^0,c
 10295  0043EA                     i2l4251:
 10296  0043EA  BE02               	btfsc	(___awdiv@dividend+1)^0,7,c
 10297  0043EC  EFFC  F021         	goto	i2u478_40
 10298  0043F0  EFFA  F021         	goto	i2u478_41
 10299  0043F4                     i2u478_41:
 10300  0043F4  EF02  F022         	goto	i2l4257
 10301  0043F8                     i2u478_40:
 10302  0043F8  6C01               	negf	___awdiv@dividend^0,c
 10303  0043FA  1E02               	comf	(___awdiv@dividend+1)^0,f,c
 10304  0043FC  B0D8               	btfsc	status,0,c
 10305  0043FE  2A02               	incf	(___awdiv@dividend+1)^0,f,c
 10306  004400  0E01               	movlw	1
 10307  004402  1A06               	xorwf	___awdiv@sign^0,f,c
 10308  004404                     i2l4257:
 10309  004404  0E00               	movlw	0
 10310  004406  6E08               	movwf	(___awdiv@quotient+1)^0,c
 10311  004408  0E00               	movlw	0
 10312  00440A  6E07               	movwf	___awdiv@quotient^0,c
 10313  00440C  5003               	movf	___awdiv@divisor^0,w,c
 10314  00440E  1004               	iorwf	(___awdiv@divisor+1)^0,w,c
 10315  004410  B4D8               	btfsc	status,2,c
 10316  004412  EF0D  F022         	goto	i2u479_41
 10317  004416  EF0F  F022         	goto	i2u479_40
 10318  00441A                     i2u479_41:
 10319  00441A  EF37  F022         	goto	i2l4279
 10320  00441E                     i2u479_40:
 10321  00441E  0E01               	movlw	1
 10322  004420  6E05               	movwf	___awdiv@counter^0,c
 10323  004422  EF17  F022         	goto	i2l4265
 10324  004426                     i2l4263:
 10325  004426  90D8               	bcf	status,0,c
 10326  004428  3603               	rlcf	___awdiv@divisor^0,f,c
 10327  00442A  3604               	rlcf	(___awdiv@divisor+1)^0,f,c
 10328  00442C  2A05               	incf	___awdiv@counter^0,f,c
 10329  00442E                     i2l4265:
 10330  00442E  AE04               	btfss	(___awdiv@divisor+1)^0,7,c
 10331  004430  EF1C  F022         	goto	i2u480_41
 10332  004434  EF1E  F022         	goto	i2u480_40
 10333  004438                     i2u480_41:
 10334  004438  EF13  F022         	goto	i2l4263
 10335  00443C                     i2u480_40:
 10336  00443C                     i2l4267:
 10337  00443C  90D8               	bcf	status,0,c
 10338  00443E  3607               	rlcf	___awdiv@quotient^0,f,c
 10339  004440  3608               	rlcf	(___awdiv@quotient+1)^0,f,c
 10340  004442  5003               	movf	___awdiv@divisor^0,w,c
 10341  004444  5C01               	subwf	___awdiv@dividend^0,w,c
 10342  004446  5004               	movf	(___awdiv@divisor+1)^0,w,c
 10343  004448  5802               	subwfb	(___awdiv@dividend+1)^0,w,c
 10344  00444A  A0D8               	btfss	status,0,c
 10345  00444C  EF2A  F022         	goto	i2u481_41
 10346  004450  EF2C  F022         	goto	i2u481_40
 10347  004454                     i2u481_41:
 10348  004454  EF31  F022         	goto	i2l4275
 10349  004458                     i2u481_40:
 10350  004458  5003               	movf	___awdiv@divisor^0,w,c
 10351  00445A  5E01               	subwf	___awdiv@dividend^0,f,c
 10352  00445C  5004               	movf	(___awdiv@divisor+1)^0,w,c
 10353  00445E  5A02               	subwfb	(___awdiv@dividend+1)^0,f,c
 10354  004460  8007               	bsf	___awdiv@quotient^0,0,c
 10355  004462                     i2l4275:
 10356  004462  90D8               	bcf	status,0,c
 10357  004464  3204               	rrcf	(___awdiv@divisor+1)^0,f,c
 10358  004466  3203               	rrcf	___awdiv@divisor^0,f,c
 10359  004468  2E05               	decfsz	___awdiv@counter^0,f,c
 10360  00446A  EF1E  F022         	goto	i2l4267
 10361  00446E                     i2l4279:
 10362  00446E  5006               	movf	___awdiv@sign^0,w,c
 10363  004470  B4D8               	btfsc	status,2,c
 10364  004472  EF3D  F022         	goto	i2u482_41
 10365  004476  EF3F  F022         	goto	i2u482_40
 10366  00447A                     i2u482_41:
 10367  00447A  EF43  F022         	goto	i2l4283
 10368  00447E                     i2u482_40:
 10369  00447E  6C07               	negf	___awdiv@quotient^0,c
 10370  004480  1E08               	comf	(___awdiv@quotient+1)^0,f,c
 10371  004482  B0D8               	btfsc	status,0,c
 10372  004484  2A08               	incf	(___awdiv@quotient+1)^0,f,c
 10373  004486                     i2l4283:
 10374  004486  C007  F001         	movff	___awdiv@quotient,?___awdiv
 10375  00448A  C008  F002         	movff	___awdiv@quotient+1,?___awdiv+1
 10376  00448E  0012               	return		;funcret
 10377  004490                     __end_of___awdiv:
 10378                           	opt callstack 0
 10379                           
 10380 ;; *************** function _dtoa *****************
 10381 ;; Defined at:
 10382 ;;		line 274 in file "/opt/microchip/xc8/v2.10/pic/sources/c99/common/doprnt.c"
 10383 ;; Parameters:    Size  Location     Type
 10384 ;;  fp              2   27[COMRAM] PTR struct _IO_FILE
 10385 ;;		 -> sprintf@f(6), 
 10386 ;;  d               8   29[COMRAM] long long 
 10387 ;; Auto vars:     Size  Location     Type
 10388 ;;  n               8   53[COMRAM] long long 
 10389 ;;  i               2   61[COMRAM] int 
 10390 ;;  s               2   51[COMRAM] int 
 10391 ;;  w               2   49[COMRAM] int 
 10392 ;;  p               2   47[COMRAM] int 
 10393 ;; Return value:  Size  Location     Type
 10394 ;;                  2   27[COMRAM] int 
 10395 ;; Registers used:
 10396 ;;		wreg, fsr1l, fsr1h, fsr2l, fsr2h, status,2, status,0, cstack
 10397 ;; Tracked objects:
 10398 ;;		On entry : 0/0
 10399 ;;		On exit  : 0/0
 10400 ;;		Unchanged: 0/0
 10401 ;; Data sizes:     COMRAM   BANK0   BANK1   BANK2   BANK3   BANK4   BANK5   BANK6   BANK7
 10402 ;;      Params:        10       0       0       0       0       0       0       0       0
 10403 ;;      Locals:        18       0       0       0       0       0       0       0       0
 10404 ;;      Temps:          8       0       0       0       0       0       0       0       0
 10405 ;;      Totals:        36       0       0       0       0       0       0       0       0
 10406 ;;Total ram usage:       36 bytes
 10407 ;; Hardware stack levels used:    1
 10408 ;; Hardware stack levels required when called:    4
 10409 ;; This function calls:
 10410 ;;		___aodiv
 10411 ;;		___aomod
 10412 ;;		_abs
 10413 ;;		_pad
 10414 ;; This function is called by:
 10415 ;;		_vfpfcnvrt
 10416 ;; This function uses a non-reentrant model
 10417 ;;
 10418                           
 10419                           	psect	text42
 10420  00259E                     __ptext42:
 10421                           	opt callstack 0
 10422  00259E                     _dtoa:
 10423                           	opt callstack 17
 10424  00259E                     
 10425                           ;/opt/microchip/xc8/v2.10/pic/sources/c99/common/doprnt.c: 274: static int dtoa(FILE *fp
      +                          , long long d);/opt/microchip/xc8/v2.10/pic/sources/c99/common/doprnt.c: 275: {;/opt/mic
      +                          rochip/xc8/v2.10/pic/sources/c99/common/doprnt.c: 276:     int i, p, s, w;;/opt/microchi
      +                          p/xc8/v2.10/pic/sources/c99/common/doprnt.c: 277:     long long n;;/opt/microchip/xc8/v2
      +                          .10/pic/sources/c99/common/doprnt.c: 280:     n = d;
 10426  00259E  C01E  F036         	movff	dtoa@d,dtoa@n
 10427  0025A2  C01F  F037         	movff	dtoa@d+1,dtoa@n+1
 10428  0025A6  C020  F038         	movff	dtoa@d+2,dtoa@n+2
 10429  0025AA  C021  F039         	movff	dtoa@d+3,dtoa@n+3
 10430  0025AE  C022  F03A         	movff	dtoa@d+4,dtoa@n+4
 10431  0025B2  C023  F03B         	movff	dtoa@d+5,dtoa@n+5
 10432  0025B6  C024  F03C         	movff	dtoa@d+6,dtoa@n+6
 10433  0025BA  C025  F03D         	movff	dtoa@d+7,dtoa@n+7
 10434  0025BE                     
 10435                           ;/opt/microchip/xc8/v2.10/pic/sources/c99/common/doprnt.c: 281:     s = n < 0 ? 1 : 0;
 10436  0025BE  BE3D               	btfsc	(dtoa@n+7)^0,7,c
 10437  0025C0  EFE4  F012         	goto	i2u507_41
 10438  0025C4  EFE7  F012         	goto	i2u507_40
 10439  0025C8                     i2u507_41:
 10440  0025C8  0E01               	movlw	1
 10441  0025CA  EFE8  F012         	goto	i2u508_40
 10442  0025CE                     i2u507_40:
 10443  0025CE  0E00               	movlw	0
 10444  0025D0                     i2u508_40:
 10445  0025D0  6E34               	movwf	dtoa@s^0,c
 10446  0025D2  6A35               	clrf	(dtoa@s+1)^0,c
 10447                           
 10448                           ;/opt/microchip/xc8/v2.10/pic/sources/c99/common/doprnt.c: 282:     if (s) {
 10449  0025D4  5034               	movf	dtoa@s^0,w,c
 10450  0025D6  1035               	iorwf	(dtoa@s+1)^0,w,c
 10451  0025D8  B4D8               	btfsc	status,2,c
 10452  0025DA  EFF1  F012         	goto	i2u509_41
 10453  0025DE  EFF3  F012         	goto	i2u509_40
 10454  0025E2                     i2u509_41:
 10455  0025E2  EF03  F013         	goto	i2l4431
 10456  0025E6                     i2u509_40:
 10457  0025E6                     
 10458                           ;/opt/microchip/xc8/v2.10/pic/sources/c99/common/doprnt.c: 283:         n = -n;
 10459  0025E6  1E3D               	comf	(dtoa@n+7)^0,f,c
 10460  0025E8  1E3C               	comf	(dtoa@n+6)^0,f,c
 10461  0025EA  1E3B               	comf	(dtoa@n+5)^0,f,c
 10462  0025EC  1E3A               	comf	(dtoa@n+4)^0,f,c
 10463  0025EE  1E39               	comf	(dtoa@n+3)^0,f,c
 10464  0025F0  1E38               	comf	(dtoa@n+2)^0,f,c
 10465  0025F2  1E37               	comf	(dtoa@n+1)^0,f,c
 10466  0025F4  6C36               	negf	dtoa@n^0,c
 10467  0025F6  0E00               	movlw	0
 10468  0025F8  2237               	addwfc	(dtoa@n+1)^0,f,c
 10469  0025FA  2238               	addwfc	(dtoa@n+2)^0,f,c
 10470  0025FC  2239               	addwfc	(dtoa@n+3)^0,f,c
 10471  0025FE  223A               	addwfc	(dtoa@n+4)^0,f,c
 10472  002600  223B               	addwfc	(dtoa@n+5)^0,f,c
 10473  002602  223C               	addwfc	(dtoa@n+6)^0,f,c
 10474  002604  223D               	addwfc	(dtoa@n+7)^0,f,c
 10475  002606                     i2l4431:
 10476                           
 10477                           ;/opt/microchip/xc8/v2.10/pic/sources/c99/common/doprnt.c: 287:     if (!(prec < 0)) {
 10478  002606  0100               	movlb	0	; () banked
 10479  002608  BFF5               	btfsc	(_prec+1)& (0+255),7,b
 10480  00260A  EF09  F013         	goto	i2u510_41
 10481  00260E  EF0B  F013         	goto	i2u510_40
 10482  002612                     i2u510_41:
 10483  002612  EF0C  F013         	goto	i2l4435
 10484  002616                     i2u510_40:
 10485  002616                     
 10486                           ; BSR set to: 0
 10487                           ;/opt/microchip/xc8/v2.10/pic/sources/c99/common/doprnt.c: 288:         flags &= ~(1 << 
      +                          1);
 10488  002616  925D               	bcf	_flags^0,1,c
 10489  002618                     i2l4435:
 10490                           
 10491                           ; BSR set to: 0
 10492                           ;/opt/microchip/xc8/v2.10/pic/sources/c99/common/doprnt.c: 290:     p = (0 < prec) ? pre
      +                          c : 1;
 10493  002618  BFF5               	btfsc	(_prec+1)& (0+255),7,b
 10494  00261A  EF19  F013         	goto	i2u511_40
 10495  00261E  51F5               	movf	(_prec+1)& (0+255),w,b
 10496  002620  E106               	bnz	i2u511_41
 10497  002622  05F4               	decf	_prec& (0+255),w,b
 10498  002624  B0D8               	btfsc	status,0,c
 10499  002626  EF17  F013         	goto	i2u511_41
 10500  00262A  EF19  F013         	goto	i2u511_40
 10501  00262E                     i2u511_41:
 10502  00262E  EF1F  F013         	goto	i2l383
 10503  002632                     i2u511_40:
 10504  002632                     
 10505                           ; BSR set to: 0
 10506  002632  0E00               	movlw	0
 10507  002634  6E31               	movwf	(dtoa@p+1)^0,c
 10508  002636  0E01               	movlw	1
 10509  002638  6E30               	movwf	dtoa@p^0,c
 10510  00263A  EF23  F013         	goto	i2l385
 10511  00263E                     i2l383:
 10512                           
 10513                           ; BSR set to: 0
 10514  00263E  C0F4  F030         	movff	_prec,dtoa@p
 10515  002642  C0F5  F031         	movff	_prec+1,dtoa@p+1
 10516  002646                     i2l385:
 10517                           
 10518                           ; BSR set to: 0
 10519                           ;/opt/microchip/xc8/v2.10/pic/sources/c99/common/doprnt.c: 291:     w = width;
 10520  002646  C0F2  F032         	movff	_width,dtoa@w
 10521  00264A  C0F3  F033         	movff	_width+1,dtoa@w+1
 10522  00264E                     
 10523                           ; BSR set to: 0
 10524                           ;/opt/microchip/xc8/v2.10/pic/sources/c99/common/doprnt.c: 292:     if (s || (flags & (1
      +                           << 2))) {
 10525  00264E  5034               	movf	dtoa@s^0,w,c
 10526  002650  1035               	iorwf	(dtoa@s+1)^0,w,c
 10527  002652  A4D8               	btfss	status,2,c
 10528  002654  EF2E  F013         	goto	i2u512_41
 10529  002658  EF30  F013         	goto	i2u512_40
 10530  00265C                     i2u512_41:
 10531  00265C  EF37  F013         	goto	i2l4443
 10532  002660                     i2u512_40:
 10533  002660                     
 10534                           ; BSR set to: 0
 10535  002660  A45D               	btfss	_flags^0,2,c
 10536  002662  EF35  F013         	goto	i2u513_41
 10537  002666  EF37  F013         	goto	i2u513_40
 10538  00266A                     i2u513_41:
 10539  00266A  EF3A  F013         	goto	i2l4445
 10540  00266E                     i2u513_40:
 10541  00266E                     i2l4443:
 10542                           
 10543                           ; BSR set to: 0
 10544                           ;/opt/microchip/xc8/v2.10/pic/sources/c99/common/doprnt.c: 293:         --w;
 10545  00266E  0632               	decf	dtoa@w^0,f,c
 10546  002670  A0D8               	btfss	status,0,c
 10547  002672  0633               	decf	(dtoa@w+1)^0,f,c
 10548  002674                     i2l4445:
 10549                           
 10550                           ; BSR set to: 0
 10551                           ;/opt/microchip/xc8/v2.10/pic/sources/c99/common/doprnt.c: 297:     i = sizeof(dbuf) - 1
      +                          ;
 10552  002674  0E00               	movlw	0
 10553  002676  6E3F               	movwf	(dtoa@i+1)^0,c
 10554  002678  0E4F               	movlw	79
 10555  00267A  6E3E               	movwf	dtoa@i^0,c
 10556  00267C                     
 10557                           ; BSR set to: 0
 10558                           ;/opt/microchip/xc8/v2.10/pic/sources/c99/common/doprnt.c: 298:     dbuf[i] = '\0';
 10559  00267C  0E00               	movlw	0
 10560  00267E  0101               	movlb	1	; () banked
 10561  002680  6F4F               	movwf	(_dbuf+79)& (0+255),b
 10562                           
 10563                           ;/opt/microchip/xc8/v2.10/pic/sources/c99/common/doprnt.c: 299:     while (!(i < 1) && (
      +                          n || (0 < p) || ((0 < w) && (flags & (1 << 1))))) {
 10564  002682  EFBF  F013         	goto	i2l4459
 10565  002686                     i2l4449:
 10566                           
 10567                           ;/opt/microchip/xc8/v2.10/pic/sources/c99/common/doprnt.c: 300:         --i;
 10568  002686  063E               	decf	dtoa@i^0,f,c
 10569  002688  A0D8               	btfss	status,0,c
 10570  00268A  063F               	decf	(dtoa@i+1)^0,f,c
 10571  00268C                     
 10572                           ;/opt/microchip/xc8/v2.10/pic/sources/c99/common/doprnt.c: 301:         dbuf[i] = '0' + 
      +                          abs(n % 10);
 10573  00268C  0E00               	movlw	low _dbuf
 10574  00268E  243E               	addwf	dtoa@i^0,w,c
 10575  002690  6ED9               	movwf	fsr2l,c
 10576  002692  0E01               	movlw	high _dbuf
 10577  002694  203F               	addwfc	(dtoa@i+1)^0,w,c
 10578  002696  6EDA               	movwf	fsr2h,c
 10579  002698  C036  F001         	movff	dtoa@n,___aomod@dividend
 10580  00269C  C037  F002         	movff	dtoa@n+1,___aomod@dividend+1
 10581  0026A0  C038  F003         	movff	dtoa@n+2,___aomod@dividend+2
 10582  0026A4  C039  F004         	movff	dtoa@n+3,___aomod@dividend+3
 10583  0026A8  C03A  F005         	movff	dtoa@n+4,___aomod@dividend+4
 10584  0026AC  C03B  F006         	movff	dtoa@n+5,___aomod@dividend+5
 10585  0026B0  C03C  F007         	movff	dtoa@n+6,___aomod@dividend+6
 10586  0026B4  C03D  F008         	movff	dtoa@n+7,___aomod@dividend+7
 10587  0026B8  0E0A               	movlw	10
 10588  0026BA  6E09               	movwf	___aomod@divisor^0,c
 10589  0026BC  0E00               	movlw	0
 10590  0026BE  6E0A               	movwf	(___aomod@divisor+1)^0,c
 10591  0026C0  0E00               	movlw	0
 10592  0026C2  6E0B               	movwf	(___aomod@divisor+2)^0,c
 10593  0026C4  0E00               	movlw	0
 10594  0026C6  6E0C               	movwf	(___aomod@divisor+3)^0,c
 10595  0026C8  0E00               	movlw	0
 10596  0026CA  6E0D               	movwf	(___aomod@divisor+4)^0,c
 10597  0026CC  0E00               	movlw	0
 10598  0026CE  6E0E               	movwf	(___aomod@divisor+5)^0,c
 10599  0026D0  0E00               	movlw	0
 10600  0026D2  6E0F               	movwf	(___aomod@divisor+6)^0,c
 10601  0026D4  0E00               	movlw	0
 10602  0026D6  6E10               	movwf	(___aomod@divisor+7)^0,c
 10603  0026D8  EC2A  F01A         	call	___aomod	;wreg free
 10604  0026DC  C001  F026         	movff	?___aomod,??_dtoa
 10605  0026E0  C002  F027         	movff	?___aomod+1,??_dtoa+1
 10606  0026E4  C003  F028         	movff	?___aomod+2,??_dtoa+2
 10607  0026E8  C004  F029         	movff	?___aomod+3,??_dtoa+3
 10608  0026EC  C005  F02A         	movff	?___aomod+4,??_dtoa+4
 10609  0026F0  C006  F02B         	movff	?___aomod+5,??_dtoa+5
 10610  0026F4  C007  F02C         	movff	?___aomod+6,??_dtoa+6
 10611  0026F8  C008  F02D         	movff	?___aomod+7,??_dtoa+7
 10612  0026FC  C026  F013         	movff	??_dtoa,abs@a
 10613  002700  C028  F014         	movff	??_dtoa+2,abs@a+1
 10614  002704  ECB5  F026         	call	_abs	;wreg free
 10615  002708  5013               	movf	?_abs^0,w,c
 10616  00270A  0F30               	addlw	48
 10617  00270C  6EDF               	movwf	indf2,c
 10618  00270E                     
 10619                           ;/opt/microchip/xc8/v2.10/pic/sources/c99/common/doprnt.c: 302:         --p;
 10620  00270E  0630               	decf	dtoa@p^0,f,c
 10621  002710  A0D8               	btfss	status,0,c
 10622  002712  0631               	decf	(dtoa@p+1)^0,f,c
 10623  002714                     
 10624                           ;/opt/microchip/xc8/v2.10/pic/sources/c99/common/doprnt.c: 303:         --w;
 10625  002714  0632               	decf	dtoa@w^0,f,c
 10626  002716  A0D8               	btfss	status,0,c
 10627  002718  0633               	decf	(dtoa@w+1)^0,f,c
 10628  00271A                     
 10629                           ;/opt/microchip/xc8/v2.10/pic/sources/c99/common/doprnt.c: 304:         n = n / 10;
 10630  00271A  C036  F001         	movff	dtoa@n,___aodiv@dividend
 10631  00271E  C037  F002         	movff	dtoa@n+1,___aodiv@dividend+1
 10632  002722  C038  F003         	movff	dtoa@n+2,___aodiv@dividend+2
 10633  002726  C039  F004         	movff	dtoa@n+3,___aodiv@dividend+3
 10634  00272A  C03A  F005         	movff	dtoa@n+4,___aodiv@dividend+4
 10635  00272E  C03B  F006         	movff	dtoa@n+5,___aodiv@dividend+5
 10636  002732  C03C  F007         	movff	dtoa@n+6,___aodiv@dividend+6
 10637  002736  C03D  F008         	movff	dtoa@n+7,___aodiv@dividend+7
 10638  00273A  0E0A               	movlw	10
 10639  00273C  6E09               	movwf	___aodiv@divisor^0,c
 10640  00273E  0E00               	movlw	0
 10641  002740  6E0A               	movwf	(___aodiv@divisor+1)^0,c
 10642  002742  0E00               	movlw	0
 10643  002744  6E0B               	movwf	(___aodiv@divisor+2)^0,c
 10644  002746  0E00               	movlw	0
 10645  002748  6E0C               	movwf	(___aodiv@divisor+3)^0,c
 10646  00274A  0E00               	movlw	0
 10647  00274C  6E0D               	movwf	(___aodiv@divisor+4)^0,c
 10648  00274E  0E00               	movlw	0
 10649  002750  6E0E               	movwf	(___aodiv@divisor+5)^0,c
 10650  002752  0E00               	movlw	0
 10651  002754  6E0F               	movwf	(___aodiv@divisor+6)^0,c
 10652  002756  0E00               	movlw	0
 10653  002758  6E10               	movwf	(___aodiv@divisor+7)^0,c
 10654  00275A  EC66  F019         	call	___aodiv	;wreg free
 10655  00275E  C001  F036         	movff	?___aodiv,dtoa@n
 10656  002762  C002  F037         	movff	?___aodiv+1,dtoa@n+1
 10657  002766  C003  F038         	movff	?___aodiv+2,dtoa@n+2
 10658  00276A  C004  F039         	movff	?___aodiv+3,dtoa@n+3
 10659  00276E  C005  F03A         	movff	?___aodiv+4,dtoa@n+4
 10660  002772  C006  F03B         	movff	?___aodiv+5,dtoa@n+5
 10661  002776  C007  F03C         	movff	?___aodiv+6,dtoa@n+6
 10662  00277A  C008  F03D         	movff	?___aodiv+7,dtoa@n+7
 10663  00277E                     i2l4459:
 10664                           
 10665                           ;/opt/microchip/xc8/v2.10/pic/sources/c99/common/doprnt.c: 299:     while (!(i < 1) && (
      +                          n || (0 < p) || ((0 < w) && (flags & (1 << 1))))) {
 10666  00277E  BE3F               	btfsc	(dtoa@i+1)^0,7,c
 10667  002780  EFCA  F013         	goto	i2u514_41
 10668  002784  503F               	movf	(dtoa@i+1)^0,w,c
 10669  002786  E108               	bnz	i2u514_40
 10670  002788  043E               	decf	dtoa@i^0,w,c
 10671  00278A  A0D8               	btfss	status,0,c
 10672  00278C  EFCA  F013         	goto	i2u514_41
 10673  002790  EFCC  F013         	goto	i2u514_40
 10674  002794                     i2u514_41:
 10675  002794  EFFC  F013         	goto	i2l4469
 10676  002798                     i2u514_40:
 10677  002798  5036               	movf	dtoa@n^0,w,c
 10678  00279A  1037               	iorwf	(dtoa@n+1)^0,w,c
 10679  00279C  1038               	iorwf	(dtoa@n+2)^0,w,c
 10680  00279E  1039               	iorwf	(dtoa@n+3)^0,w,c
 10681  0027A0  103A               	iorwf	(dtoa@n+4)^0,w,c
 10682  0027A2  103B               	iorwf	(dtoa@n+5)^0,w,c
 10683  0027A4  103C               	iorwf	(dtoa@n+6)^0,w,c
 10684  0027A6  103D               	iorwf	(dtoa@n+7)^0,w,c
 10685  0027A8  A4D8               	btfss	status,2,c
 10686  0027AA  EFD9  F013         	goto	i2u515_41
 10687  0027AE  EFDB  F013         	goto	i2u515_40
 10688  0027B2                     i2u515_41:
 10689  0027B2  EF43  F013         	goto	i2l4449
 10690  0027B6                     i2u515_40:
 10691  0027B6  BE31               	btfsc	(dtoa@p+1)^0,7,c
 10692  0027B8  EFE8  F013         	goto	i2u516_40
 10693  0027BC  5031               	movf	(dtoa@p+1)^0,w,c
 10694  0027BE  E106               	bnz	i2u516_41
 10695  0027C0  0430               	decf	dtoa@p^0,w,c
 10696  0027C2  B0D8               	btfsc	status,0,c
 10697  0027C4  EFE6  F013         	goto	i2u516_41
 10698  0027C8  EFE8  F013         	goto	i2u516_40
 10699  0027CC                     i2u516_41:
 10700  0027CC  EF43  F013         	goto	i2l4449
 10701  0027D0                     i2u516_40:
 10702  0027D0  BE33               	btfsc	(dtoa@w+1)^0,7,c
 10703  0027D2  EFF3  F013         	goto	i2u517_41
 10704  0027D6  5033               	movf	(dtoa@w+1)^0,w,c
 10705  0027D8  E108               	bnz	i2u517_40
 10706  0027DA  0432               	decf	dtoa@w^0,w,c
 10707  0027DC  A0D8               	btfss	status,0,c
 10708  0027DE  EFF3  F013         	goto	i2u517_41
 10709  0027E2  EFF5  F013         	goto	i2u517_40
 10710  0027E6                     i2u517_41:
 10711  0027E6  EFFC  F013         	goto	i2l4469
 10712  0027EA                     i2u517_40:
 10713  0027EA  B25D               	btfsc	_flags^0,1,c
 10714  0027EC  EFFA  F013         	goto	i2u518_41
 10715  0027F0  EFFC  F013         	goto	i2u518_40
 10716  0027F4                     i2u518_41:
 10717  0027F4  EF43  F013         	goto	i2l4449
 10718  0027F8                     i2u518_40:
 10719  0027F8                     i2l4469:
 10720                           
 10721                           ;/opt/microchip/xc8/v2.10/pic/sources/c99/common/doprnt.c: 308:     if (s || (flags & (1
      +                           << 2))) {
 10722  0027F8  5034               	movf	dtoa@s^0,w,c
 10723  0027FA  1035               	iorwf	(dtoa@s+1)^0,w,c
 10724  0027FC  A4D8               	btfss	status,2,c
 10725  0027FE  EF03  F014         	goto	i2u519_41
 10726  002802  EF05  F014         	goto	i2u519_40
 10727  002806                     i2u519_41:
 10728  002806  EF0C  F014         	goto	i2l4473
 10729  00280A                     i2u519_40:
 10730  00280A  A45D               	btfss	_flags^0,2,c
 10731  00280C  EF0A  F014         	goto	i2u520_41
 10732  002810  EF0C  F014         	goto	i2u520_40
 10733  002814                     i2u520_41:
 10734  002814  EF2A  F014         	goto	i2l4483
 10735  002818                     i2u520_40:
 10736  002818                     i2l4473:
 10737                           
 10738                           ;/opt/microchip/xc8/v2.10/pic/sources/c99/common/doprnt.c: 309:         --i;
 10739  002818  063E               	decf	dtoa@i^0,f,c
 10740  00281A  A0D8               	btfss	status,0,c
 10741  00281C  063F               	decf	(dtoa@i+1)^0,f,c
 10742  00281E                     
 10743                           ;/opt/microchip/xc8/v2.10/pic/sources/c99/common/doprnt.c: 310:         dbuf[i] = s ? '-
      +                          ' : '+';
 10744  00281E  5034               	movf	dtoa@s^0,w,c
 10745  002820  1035               	iorwf	(dtoa@s+1)^0,w,c
 10746  002822  A4D8               	btfss	status,2,c
 10747  002824  EF16  F014         	goto	i2u521_41
 10748  002828  EF18  F014         	goto	i2u521_40
 10749  00282C                     i2u521_41:
 10750  00282C  EF1E  F014         	goto	i2l4479
 10751  002830                     i2u521_40:
 10752  002830  0E00               	movlw	0
 10753  002832  6E2F               	movwf	(_dtoa$960+1)^0,c
 10754  002834  0E2B               	movlw	43
 10755  002836  6E2E               	movwf	_dtoa$960^0,c
 10756  002838  EF22  F014         	goto	i2l4481
 10757  00283C                     i2l4479:
 10758  00283C  0E00               	movlw	0
 10759  00283E  6E2F               	movwf	(_dtoa$960+1)^0,c
 10760  002840  0E2D               	movlw	45
 10761  002842  6E2E               	movwf	_dtoa$960^0,c
 10762  002844                     i2l4481:
 10763  002844  0E00               	movlw	low _dbuf
 10764  002846  243E               	addwf	dtoa@i^0,w,c
 10765  002848  6ED9               	movwf	fsr2l,c
 10766  00284A  0E01               	movlw	high _dbuf
 10767  00284C  203F               	addwfc	(dtoa@i+1)^0,w,c
 10768  00284E  6EDA               	movwf	fsr2h,c
 10769  002850  C02E  FFDF         	movff	_dtoa$960,indf2
 10770  002854                     i2l4483:
 10771                           
 10772                           ;/opt/microchip/xc8/v2.10/pic/sources/c99/common/doprnt.c: 314:     return pad(fp, &dbuf
      +                          [i], w);
 10773  002854  C01C  F011         	movff	dtoa@fp,pad@fp
 10774  002858  C01D  F012         	movff	dtoa@fp+1,pad@fp+1
 10775  00285C  0E00               	movlw	low _dbuf
 10776  00285E  243E               	addwf	dtoa@i^0,w,c
 10777  002860  6E13               	movwf	pad@buf^0,c
 10778  002862  0E01               	movlw	high _dbuf
 10779  002864  203F               	addwfc	(dtoa@i+1)^0,w,c
 10780  002866  6E14               	movwf	(pad@buf+1)^0,c
 10781  002868  C032  F015         	movff	dtoa@w,pad@p
 10782  00286C  C033  F016         	movff	dtoa@w+1,pad@p+1
 10783  002870  EC48  F022         	call	_pad	;wreg free
 10784  002874  C011  F01C         	movff	?_pad,?_dtoa
 10785  002878  C012  F01D         	movff	?_pad+1,?_dtoa+1
 10786  00287C  0012               	return		;funcret
 10787  00287E                     __end_of_dtoa:
 10788                           	opt callstack 0
 10789                           
 10790 ;; *************** function _pad *****************
 10791 ;; Defined at:
 10792 ;;		line 72 in file "/opt/microchip/xc8/v2.10/pic/sources/c99/common/doprnt.c"
 10793 ;; Parameters:    Size  Location     Type
 10794 ;;  fp              2   16[COMRAM] PTR struct _IO_FILE
 10795 ;;		 -> sprintf@f(6), 
 10796 ;;  buf             2   18[COMRAM] PTR unsigned char 
 10797 ;;		 -> dbuf(80), 
 10798 ;;  p               2   20[COMRAM] int 
 10799 ;; Auto vars:     Size  Location     Type
 10800 ;;  w               2   25[COMRAM] int 
 10801 ;;  i               2   23[COMRAM] int 
 10802 ;; Return value:  Size  Location     Type
 10803 ;;                  2   16[COMRAM] int 
 10804 ;; Registers used:
 10805 ;;		wreg, fsr1l, fsr1h, fsr2l, fsr2h, status,2, status,0, cstack
 10806 ;; Tracked objects:
 10807 ;;		On entry : 0/0
 10808 ;;		On exit  : 0/0
 10809 ;;		Unchanged: 0/0
 10810 ;; Data sizes:     COMRAM   BANK0   BANK1   BANK2   BANK3   BANK4   BANK5   BANK6   BANK7
 10811 ;;      Params:         6       0       0       0       0       0       0       0       0
 10812 ;;      Locals:         4       0       0       0       0       0       0       0       0
 10813 ;;      Temps:          1       0       0       0       0       0       0       0       0
 10814 ;;      Totals:        11       0       0       0       0       0       0       0       0
 10815 ;;Total ram usage:       11 bytes
 10816 ;; Hardware stack levels used:    1
 10817 ;; Hardware stack levels required when called:    3
 10818 ;; This function calls:
 10819 ;;		_fputc
 10820 ;;		_fputs
 10821 ;;		_strlen
 10822 ;; This function is called by:
 10823 ;;		_dtoa
 10824 ;;		_efgtoa
 10825 ;; This function uses a non-reentrant model
 10826 ;;
 10827                           
 10828                           	psect	text43
 10829  004490                     __ptext43:
 10830                           	opt callstack 0
 10831  004490                     _pad:
 10832                           	opt callstack 17
 10833  004490                     
 10834                           ;/opt/microchip/xc8/v2.10/pic/sources/c99/common/doprnt.c: 72: static int pad(FILE *fp, 
      +                          char *buf, int p);/opt/microchip/xc8/v2.10/pic/sources/c99/common/doprnt.c: 73: {;/opt/m
      +                          icrochip/xc8/v2.10/pic/sources/c99/common/doprnt.c: 74:     int i, w;;/opt/microchip/xc8
      +                          /v2.10/pic/sources/c99/common/doprnt.c: 77:     if (flags & (1 << 0)) {
 10835  004490  A05D               	btfss	_flags^0,0,c
 10836  004492  EF4D  F022         	goto	i2u393_41
 10837  004496  EF4F  F022         	goto	i2u393_40
 10838  00449A                     i2u393_41:
 10839  00449A  EF59  F022         	goto	i2l3793
 10840  00449E                     i2u393_40:
 10841  00449E                     
 10842                           ;/opt/microchip/xc8/v2.10/pic/sources/c99/common/doprnt.c: 78:         fputs((const char
      +                           *)buf, fp);
 10843  00449E  C013  F00A         	movff	pad@buf,fputs@s
 10844  0044A2  C014  F00B         	movff	pad@buf+1,fputs@s+1
 10845  0044A6  C011  F00C         	movff	pad@fp,fputs@fp
 10846  0044AA  C012  F00D         	movff	pad@fp+1,fputs@fp+1
 10847  0044AE  EC93  F026         	call	_fputs	;wreg free
 10848  0044B2                     i2l3793:
 10849                           
 10850                           ;/opt/microchip/xc8/v2.10/pic/sources/c99/common/doprnt.c: 82:     w = (p < 0) ? 0 : p;
 10851  0044B2  BE16               	btfsc	(pad@p+1)^0,7,c
 10852  0044B4  EF5E  F022         	goto	i2u394_41
 10853  0044B8  EF60  F022         	goto	i2u394_40
 10854  0044BC                     i2u394_41:
 10855  0044BC  EF66  F022         	goto	i2l3797
 10856  0044C0                     i2u394_40:
 10857  0044C0  C015  F01A         	movff	pad@p,pad@w
 10858  0044C4  C016  F01B         	movff	pad@p+1,pad@w+1
 10859  0044C8  EF6A  F022         	goto	i2l372
 10860  0044CC                     i2l3797:
 10861  0044CC  0E00               	movlw	0
 10862  0044CE  6E1B               	movwf	(pad@w+1)^0,c
 10863  0044D0  0E00               	movlw	0
 10864  0044D2  6E1A               	movwf	pad@w^0,c
 10865  0044D4                     i2l372:
 10866                           
 10867                           ;/opt/microchip/xc8/v2.10/pic/sources/c99/common/doprnt.c: 83:     i = 0;
 10868  0044D4  0E00               	movlw	0
 10869  0044D6  6E19               	movwf	(pad@i+1)^0,c
 10870  0044D8  0E00               	movlw	0
 10871  0044DA  6E18               	movwf	pad@i^0,c
 10872                           
 10873                           ;/opt/microchip/xc8/v2.10/pic/sources/c99/common/doprnt.c: 84:     while (i < w) {
 10874  0044DC  EF7C  F022         	goto	i2l3803
 10875  0044E0                     i2l3799:
 10876                           
 10877                           ;/opt/microchip/xc8/v2.10/pic/sources/c99/common/doprnt.c: 85:         fputc(' ', fp);
 10878  0044E0  0E00               	movlw	0
 10879  0044E2  6E02               	movwf	(fputc@c+1)^0,c
 10880  0044E4  0E20               	movlw	32
 10881  0044E6  6E01               	movwf	fputc@c^0,c
 10882  0044E8  C011  F003         	movff	pad@fp,fputc@fp
 10883  0044EC  C012  F004         	movff	pad@fp+1,fputc@fp+1
 10884  0044F0  EC1E  F021         	call	_fputc	;wreg free
 10885  0044F4                     
 10886                           ;/opt/microchip/xc8/v2.10/pic/sources/c99/common/doprnt.c: 86:         ++i;
 10887  0044F4  4A18               	infsnz	pad@i^0,f,c
 10888  0044F6  2A19               	incf	(pad@i+1)^0,f,c
 10889  0044F8                     i2l3803:
 10890                           
 10891                           ;/opt/microchip/xc8/v2.10/pic/sources/c99/common/doprnt.c: 84:     while (i < w) {
 10892  0044F8  501A               	movf	pad@w^0,w,c
 10893  0044FA  5C18               	subwf	pad@i^0,w,c
 10894  0044FC  5019               	movf	(pad@i+1)^0,w,c
 10895  0044FE  0A80               	xorlw	128
 10896  004500  6E17               	movwf	??_pad^0,c
 10897  004502  501B               	movf	(pad@w+1)^0,w,c
 10898  004504  0A80               	xorlw	128
 10899  004506  5817               	subwfb	??_pad^0,w,c
 10900  004508  A0D8               	btfss	status,0,c
 10901  00450A  EF89  F022         	goto	i2u395_41
 10902  00450E  EF8B  F022         	goto	i2u395_40
 10903  004512                     i2u395_41:
 10904  004512  EF70  F022         	goto	i2l3799
 10905  004516                     i2u395_40:
 10906  004516                     
 10907                           ;/opt/microchip/xc8/v2.10/pic/sources/c99/common/doprnt.c: 90:     if (!(flags & (1 << 0
      +                          ))) {
 10908  004516  B05D               	btfsc	_flags^0,0,c
 10909  004518  EF90  F022         	goto	i2u396_41
 10910  00451C  EF92  F022         	goto	i2u396_40
 10911  004520                     i2u396_41:
 10912  004520  EF9C  F022         	goto	i2l3807
 10913  004524                     i2u396_40:
 10914  004524                     
 10915                           ;/opt/microchip/xc8/v2.10/pic/sources/c99/common/doprnt.c: 91:         fputs((const char
      +                           *)buf, fp);
 10916  004524  C013  F00A         	movff	pad@buf,fputs@s
 10917  004528  C014  F00B         	movff	pad@buf+1,fputs@s+1
 10918  00452C  C011  F00C         	movff	pad@fp,fputs@fp
 10919  004530  C012  F00D         	movff	pad@fp+1,fputs@fp+1
 10920  004534  EC93  F026         	call	_fputs	;wreg free
 10921  004538                     i2l3807:
 10922                           
 10923                           ;/opt/microchip/xc8/v2.10/pic/sources/c99/common/doprnt.c: 94:     return strlen(buf) + 
      +                          w;
 10924  004538  C013  F001         	movff	pad@buf,strlen@s
 10925  00453C  C014  F002         	movff	pad@buf+1,strlen@s+1
 10926  004540  EC47  F027         	call	_strlen	;wreg free
 10927  004544  501A               	movf	pad@w^0,w,c
 10928  004546  2401               	addwf	?_strlen^0,w,c
 10929  004548  6E11               	movwf	?_pad^0,c
 10930  00454A  501B               	movf	(pad@w+1)^0,w,c
 10931  00454C  2002               	addwfc	(?_strlen+1)^0,w,c
 10932  00454E  6E12               	movwf	(?_pad+1)^0,c
 10933  004550  0012               	return		;funcret
 10934  004552                     __end_of_pad:
 10935                           	opt callstack 0
 10936                           
 10937 ;; *************** function _strlen *****************
 10938 ;; Defined at:
 10939 ;;		line 5 in file "/opt/microchip/xc8/v2.10/pic/sources/c99/common/strlen.c"
 10940 ;; Parameters:    Size  Location     Type
 10941 ;;  s               2    0[COMRAM] PTR const unsigned char 
 10942 ;;		 -> dbuf(80), INT_EX_0@data(10), 
 10943 ;; Auto vars:     Size  Location     Type
 10944 ;;  a               2    2[COMRAM] PTR const unsigned char 
 10945 ;;		 -> dbuf(80), INT_EX_0@data(10), 
 10946 ;; Return value:  Size  Location     Type
 10947 ;;                  2    0[COMRAM] unsigned int 
 10948 ;; Registers used:
 10949 ;;		wreg, fsr2l, fsr2h, status,2, status,0
 10950 ;; Tracked objects:
 10951 ;;		On entry : 0/0
 10952 ;;		On exit  : 0/0
 10953 ;;		Unchanged: 0/0
 10954 ;; Data sizes:     COMRAM   BANK0   BANK1   BANK2   BANK3   BANK4   BANK5   BANK6   BANK7
 10955 ;;      Params:         2       0       0       0       0       0       0       0       0
 10956 ;;      Locals:         2       0       0       0       0       0       0       0       0
 10957 ;;      Temps:          0       0       0       0       0       0       0       0       0
 10958 ;;      Totals:         4       0       0       0       0       0       0       0       0
 10959 ;;Total ram usage:        4 bytes
 10960 ;; Hardware stack levels used:    1
 10961 ;; This function calls:
 10962 ;;		Nothing
 10963 ;; This function is called by:
 10964 ;;		_pad
 10965 ;;		_strcat
 10966 ;; This function uses a non-reentrant model
 10967 ;;
 10968                           
 10969                           	psect	text44
 10970  004E8E                     __ptext44:
 10971                           	opt callstack 0
 10972  004E8E                     _strlen:
 10973                           	opt callstack 23
 10974  004E8E  C001  F003         	movff	strlen@s,strlen@a
 10975  004E92  C002  F004         	movff	strlen@s+1,strlen@a+1
 10976  004E96  EF4F  F027         	goto	i2l3577
 10977  004E9A                     i2l3575:
 10978  004E9A  4A01               	infsnz	strlen@s^0,f,c
 10979  004E9C  2A02               	incf	(strlen@s+1)^0,f,c
 10980  004E9E                     i2l3577:
 10981  004E9E  C001  FFD9         	movff	strlen@s,fsr2l
 10982  004EA2  C002  FFDA         	movff	strlen@s+1,fsr2h
 10983  004EA6  50DF               	movf	indf2,w,c
 10984  004EA8  A4D8               	btfss	status,2,c
 10985  004EAA  EF59  F027         	goto	i2u351_41
 10986  004EAE  EF5B  F027         	goto	i2u351_40
 10987  004EB2                     i2u351_41:
 10988  004EB2  EF4D  F027         	goto	i2l3575
 10989  004EB6                     i2u351_40:
 10990  004EB6  5003               	movf	strlen@a^0,w,c
 10991  004EB8  5C01               	subwf	strlen@s^0,w,c
 10992  004EBA  6E01               	movwf	?_strlen^0,c
 10993  004EBC  5004               	movf	(strlen@a+1)^0,w,c
 10994  004EBE  5802               	subwfb	(strlen@s+1)^0,w,c
 10995  004EC0  6E02               	movwf	(?_strlen+1)^0,c
 10996  004EC2  0012               	return		;funcret
 10997  004EC4                     __end_of_strlen:
 10998                           	opt callstack 0
 10999                           
 11000 ;; *************** function _fputs *****************
 11001 ;; Defined at:
 11002 ;;		line 8 in file "/opt/microchip/xc8/v2.10/pic/sources/c99/common/nf_fputs.c"
 11003 ;; Parameters:    Size  Location     Type
 11004 ;;  s               2    9[COMRAM] PTR const unsigned char 
 11005 ;;		 -> dbuf(80), 
 11006 ;;  fp              2   11[COMRAM] PTR struct _IO_FILE
 11007 ;;		 -> sprintf@f(6), 
 11008 ;; Auto vars:     Size  Location     Type
 11009 ;;  i               2   14[COMRAM] int 
 11010 ;;  c               1   13[COMRAM] unsigned char 
 11011 ;; Return value:  Size  Location     Type
 11012 ;;                  2    9[COMRAM] int 
 11013 ;; Registers used:
 11014 ;;		wreg, fsr1l, fsr1h, fsr2l, fsr2h, status,2, status,0, cstack
 11015 ;; Tracked objects:
 11016 ;;		On entry : 0/0
 11017 ;;		On exit  : 0/0
 11018 ;;		Unchanged: 0/0
 11019 ;; Data sizes:     COMRAM   BANK0   BANK1   BANK2   BANK3   BANK4   BANK5   BANK6   BANK7
 11020 ;;      Params:         4       0       0       0       0       0       0       0       0
 11021 ;;      Locals:         3       0       0       0       0       0       0       0       0
 11022 ;;      Temps:          0       0       0       0       0       0       0       0       0
 11023 ;;      Totals:         7       0       0       0       0       0       0       0       0
 11024 ;;Total ram usage:        7 bytes
 11025 ;; Hardware stack levels used:    1
 11026 ;; Hardware stack levels required when called:    2
 11027 ;; This function calls:
 11028 ;;		_fputc
 11029 ;; This function is called by:
 11030 ;;		_pad
 11031 ;; This function uses a non-reentrant model
 11032 ;;
 11033                           
 11034                           	psect	text45
 11035  004D26                     __ptext45:
 11036                           	opt callstack 0
 11037  004D26                     _fputs:
 11038                           	opt callstack 17
 11039  004D26  0E00               	movlw	0
 11040  004D28  6E10               	movwf	(fputs@i+1)^0,c
 11041  004D2A  0E00               	movlw	0
 11042  004D2C  6E0F               	movwf	fputs@i^0,c
 11043  004D2E  EFA4  F026         	goto	i2l3571
 11044  004D32                     i2l3567:
 11045  004D32  C00E  F001         	movff	fputs@c,fputc@c
 11046  004D36  6A02               	clrf	(fputc@c+1)^0,c
 11047  004D38  C00C  F003         	movff	fputs@fp,fputc@fp
 11048  004D3C  C00D  F004         	movff	fputs@fp+1,fputc@fp+1
 11049  004D40  EC1E  F021         	call	_fputc	;wreg free
 11050  004D44  4A0F               	infsnz	fputs@i^0,f,c
 11051  004D46  2A10               	incf	(fputs@i+1)^0,f,c
 11052  004D48                     i2l3571:
 11053  004D48  500F               	movf	fputs@i^0,w,c
 11054  004D4A  240A               	addwf	fputs@s^0,w,c
 11055  004D4C  6ED9               	movwf	fsr2l,c
 11056  004D4E  5010               	movf	(fputs@i+1)^0,w,c
 11057  004D50  200B               	addwfc	(fputs@s+1)^0,w,c
 11058  004D52  6EDA               	movwf	fsr2h,c
 11059  004D54  50DF               	movf	indf2,w,c
 11060  004D56  6E0E               	movwf	fputs@c^0,c
 11061  004D58  500E               	movf	fputs@c^0,w,c
 11062  004D5A  A4D8               	btfss	status,2,c
 11063  004D5C  EFB2  F026         	goto	i2u350_41
 11064  004D60  EFB4  F026         	goto	i2u350_40
 11065  004D64                     i2u350_41:
 11066  004D64  EF99  F026         	goto	i2l3567
 11067  004D68                     i2u350_40:
 11068  004D68  0012               	return		;funcret
 11069  004D6A                     __end_of_fputs:
 11070                           	opt callstack 0
 11071                           
 11072 ;; *************** function _fputc *****************
 11073 ;; Defined at:
 11074 ;;		line 8 in file "/opt/microchip/xc8/v2.10/pic/sources/c99/common/nf_fputc.c"
 11075 ;; Parameters:    Size  Location     Type
 11076 ;;  c               2    0[COMRAM] int 
 11077 ;;  fp              2    2[COMRAM] PTR struct _IO_FILE
 11078 ;;		 -> sprintf@f(6), 
 11079 ;; Auto vars:     Size  Location     Type
 11080 ;;		None
 11081 ;; Return value:  Size  Location     Type
 11082 ;;                  2    0[COMRAM] int 
 11083 ;; Registers used:
 11084 ;;		wreg, fsr1l, fsr1h, fsr2l, fsr2h, status,2, status,0, cstack
 11085 ;; Tracked objects:
 11086 ;;		On entry : 0/0
 11087 ;;		On exit  : 0/0
 11088 ;;		Unchanged: 0/0
 11089 ;; Data sizes:     COMRAM   BANK0   BANK1   BANK2   BANK3   BANK4   BANK5   BANK6   BANK7
 11090 ;;      Params:         4       0       0       0       0       0       0       0       0
 11091 ;;      Locals:         0       0       0       0       0       0       0       0       0
 11092 ;;      Temps:          5       0       0       0       0       0       0       0       0
 11093 ;;      Totals:         9       0       0       0       0       0       0       0       0
 11094 ;;Total ram usage:        9 bytes
 11095 ;; Hardware stack levels used:    1
 11096 ;; Hardware stack levels required when called:    1
 11097 ;; This function calls:
 11098 ;;		_putch
 11099 ;; This function is called by:
 11100 ;;		_pad
 11101 ;;		_vfpfcnvrt
 11102 ;;		_fputs
 11103 ;; This function uses a non-reentrant model
 11104 ;;
 11105                           
 11106                           	psect	text46
 11107  00423C                     __ptext46:
 11108                           	opt callstack 0
 11109  00423C                     _fputc:
 11110                           	opt callstack 20
 11111  00423C  5003               	movf	fputc@fp^0,w,c
 11112  00423E  1004               	iorwf	(fputc@fp+1)^0,w,c
 11113  004240  B4D8               	btfsc	status,2,c
 11114  004242  EF25  F021         	goto	i2u346_41
 11115  004246  EF27  F021         	goto	i2u346_40
 11116  00424A                     i2u346_41:
 11117  00424A  EF30  F021         	goto	i2l3555
 11118  00424E                     i2u346_40:
 11119  00424E  5003               	movf	fputc@fp^0,w,c
 11120  004250  1004               	iorwf	(fputc@fp+1)^0,w,c
 11121  004252  A4D8               	btfss	status,2,c
 11122  004254  EF2E  F021         	goto	i2u347_41
 11123  004258  EF30  F021         	goto	i2u347_40
 11124  00425C                     i2u347_41:
 11125  00425C  EF35  F021         	goto	i2l3557
 11126  004260                     i2u347_40:
 11127  004260                     i2l3555:
 11128  004260  5001               	movf	fputc@c^0,w,c
 11129  004262  ECCD  F027         	call	_putch
 11130  004266  EF82  F021         	goto	i2l1296
 11131  00426A                     i2l3557:
 11132  00426A  EE20 F004          	lfsr	2,4
 11133  00426E  5003               	movf	fputc@fp^0,w,c
 11134  004270  26D9               	addwf	fsr2l,f,c
 11135  004272  5004               	movf	(fputc@fp+1)^0,w,c
 11136  004274  22DA               	addwfc	fsr2h,f,c
 11137  004276  50DE               	movf	postinc2,w,c
 11138  004278  10DE               	iorwf	postinc2,w,c
 11139  00427A  B4D8               	btfsc	status,2,c
 11140  00427C  EF42  F021         	goto	i2u348_41
 11141  004280  EF44  F021         	goto	i2u348_40
 11142  004284                     i2u348_41:
 11143  004284  EF5F  F021         	goto	i2l3561
 11144  004288                     i2u348_40:
 11145  004288  EE20 F004          	lfsr	2,4
 11146  00428C  5003               	movf	fputc@fp^0,w,c
 11147  00428E  26D9               	addwf	fsr2l,f,c
 11148  004290  5004               	movf	(fputc@fp+1)^0,w,c
 11149  004292  22DA               	addwfc	fsr2h,f,c
 11150  004294  EE10 F002          	lfsr	1,2
 11151  004298  5003               	movf	fputc@fp^0,w,c
 11152  00429A  26E1               	addwf	fsr1l,f,c
 11153  00429C  5004               	movf	(fputc@fp+1)^0,w,c
 11154  00429E  22E2               	addwfc	fsr1h,f,c
 11155  0042A0  50DE               	movf	postinc2,w,c
 11156  0042A2  5CE6               	subwf	postinc1,w,c
 11157  0042A4  50E6               	movf	postinc1,w,c
 11158  0042A6  0A80               	xorlw	128
 11159  0042A8  6E09               	movwf	(??_fputc+4)^0,c
 11160  0042AA  50DE               	movf	postinc2,w,c
 11161  0042AC  0A80               	xorlw	128
 11162  0042AE  5809               	subwfb	(??_fputc+4)^0,w,c
 11163  0042B0  B0D8               	btfsc	status,0,c
 11164  0042B2  EF5D  F021         	goto	i2u349_41
 11165  0042B6  EF5F  F021         	goto	i2u349_40
 11166  0042BA                     i2u349_41:
 11167  0042BA  EF82  F021         	goto	i2l1296
 11168  0042BE                     i2u349_40:
 11169  0042BE                     i2l3561:
 11170  0042BE  EE20 F002          	lfsr	2,2
 11171  0042C2  5003               	movf	fputc@fp^0,w,c
 11172  0042C4  26D9               	addwf	fsr2l,f,c
 11173  0042C6  5004               	movf	(fputc@fp+1)^0,w,c
 11174  0042C8  22DA               	addwfc	fsr2h,f,c
 11175  0042CA  CFDE F005          	movff	postinc2,??_fputc
 11176  0042CE  CFDD F006          	movff	postdec2,??_fputc+1
 11177  0042D2  C003  FFD9         	movff	fputc@fp,fsr2l
 11178  0042D6  C004  FFDA         	movff	fputc@fp+1,fsr2h
 11179  0042DA  CFDE F007          	movff	postinc2,??_fputc+2
 11180  0042DE  CFDD F008          	movff	postdec2,??_fputc+3
 11181  0042E2  5005               	movf	??_fputc^0,w,c
 11182  0042E4  2407               	addwf	(??_fputc+2)^0,w,c
 11183  0042E6  6ED9               	movwf	fsr2l,c
 11184  0042E8  5006               	movf	(??_fputc+1)^0,w,c
 11185  0042EA  2008               	addwfc	(??_fputc+3)^0,w,c
 11186  0042EC  6EDA               	movwf	fsr2h,c
 11187  0042EE  C001  FFDF         	movff	fputc@c,indf2
 11188  0042F2  EE20 F002          	lfsr	2,2
 11189  0042F6  5003               	movf	fputc@fp^0,w,c
 11190  0042F8  26D9               	addwf	fsr2l,f,c
 11191  0042FA  5004               	movf	(fputc@fp+1)^0,w,c
 11192  0042FC  22DA               	addwfc	fsr2h,f,c
 11193  0042FE  2ADE               	incf	postinc2,f,c
 11194  004300  0E00               	movlw	0
 11195  004302  22DD               	addwfc	postdec2,f,c
 11196  004304                     i2l1296:
 11197  004304  0012               	return		;funcret
 11198  004306                     __end_of_fputc:
 11199                           	opt callstack 0
 11200                           
 11201 ;; *************** function _putch *****************
 11202 ;; Defined at:
 11203 ;;		line 7 in file "/opt/microchip/xc8/v2.10/pic/sources/c99/common/putch.c"
 11204 ;; Parameters:    Size  Location     Type
 11205 ;;  c               1    wreg     unsigned char 
 11206 ;; Auto vars:     Size  Location     Type
 11207 ;;  c               1    0[COMRAM] unsigned char 
 11208 ;; Return value:  Size  Location     Type
 11209 ;;                  1    wreg      void 
 11210 ;; Registers used:
 11211 ;;		wreg
 11212 ;; Tracked objects:
 11213 ;;		On entry : 0/0
 11214 ;;		On exit  : 0/0
 11215 ;;		Unchanged: 0/0
 11216 ;; Data sizes:     COMRAM   BANK0   BANK1   BANK2   BANK3   BANK4   BANK5   BANK6   BANK7
 11217 ;;      Params:         0       0       0       0       0       0       0       0       0
 11218 ;;      Locals:         0       0       0       0       0       0       0       0       0
 11219 ;;      Temps:          0       0       0       0       0       0       0       0       0
 11220 ;;      Totals:         0       0       0       0       0       0       0       0       0
 11221 ;;Total ram usage:        0 bytes
 11222 ;; Hardware stack levels used:    1
 11223 ;; This function calls:
 11224 ;;		Nothing
 11225 ;; This function is called by:
 11226 ;;		_fputc
 11227 ;; This function uses a non-reentrant model
 11228 ;;
 11229                           
 11230                           	psect	text47
 11231  004F9A                     __ptext47:
 11232                           	opt callstack 0
 11233  004F9A                     _putch:
 11234                           	opt callstack 20
 11235  004F9A  0012               	return		;funcret
 11236  004F9C                     __end_of_putch:
 11237                           	opt callstack 0
 11238                           
 11239 ;; *************** function _abs *****************
 11240 ;; Defined at:
 11241 ;;		line 1 in file "/opt/microchip/xc8/v2.10/pic/sources/c99/common/abs.c"
 11242 ;; Parameters:    Size  Location     Type
 11243 ;;  a               2   18[COMRAM] int 
 11244 ;; Auto vars:     Size  Location     Type
 11245 ;;		None
 11246 ;; Return value:  Size  Location     Type
 11247 ;;                  2   18[COMRAM] int 
 11248 ;; Registers used:
 11249 ;;		wreg, status,2, status,0
 11250 ;; Tracked objects:
 11251 ;;		On entry : 0/0
 11252 ;;		On exit  : 0/0
 11253 ;;		Unchanged: 0/0
 11254 ;; Data sizes:     COMRAM   BANK0   BANK1   BANK2   BANK3   BANK4   BANK5   BANK6   BANK7
 11255 ;;      Params:         2       0       0       0       0       0       0       0       0
 11256 ;;      Locals:         0       0       0       0       0       0       0       0       0
 11257 ;;      Temps:          2       0       0       0       0       0       0       0       0
 11258 ;;      Totals:         4       0       0       0       0       0       0       0       0
 11259 ;;Total ram usage:        4 bytes
 11260 ;; Hardware stack levels used:    1
 11261 ;; This function calls:
 11262 ;;		Nothing
 11263 ;; This function is called by:
 11264 ;;		_dtoa
 11265 ;; This function uses a non-reentrant model
 11266 ;;
 11267                           
 11268                           	psect	text48
 11269  004D6A                     __ptext48:
 11270                           	opt callstack 0
 11271  004D6A                     _abs:
 11272                           	opt callstack 20
 11273  004D6A  BE14               	btfsc	(abs@a+1)^0,7,c
 11274  004D6C  EFC2  F026         	goto	i2u397_40
 11275  004D70  5014               	movf	(abs@a+1)^0,w,c
 11276  004D72  E106               	bnz	i2u397_41
 11277  004D74  0413               	decf	abs@a^0,w,c
 11278  004D76  B0D8               	btfsc	status,0,c
 11279  004D78  EFC0  F026         	goto	i2u397_41
 11280  004D7C  EFC2  F026         	goto	i2u397_40
 11281  004D80                     i2u397_41:
 11282  004D80  EFD0  F026         	goto	i2l1217
 11283  004D84                     i2u397_40:
 11284  004D84  C013  F015         	movff	abs@a,??_abs
 11285  004D88  C014  F016         	movff	abs@a+1,??_abs+1
 11286  004D8C  1E15               	comf	??_abs^0,f,c
 11287  004D8E  1E16               	comf	(??_abs+1)^0,f,c
 11288  004D90  4A15               	infsnz	??_abs^0,f,c
 11289  004D92  2A16               	incf	(??_abs+1)^0,f,c
 11290  004D94  C015  F013         	movff	??_abs,?_abs
 11291  004D98  C016  F014         	movff	??_abs+1,?_abs+1
 11292  004D9C  EFD4  F026         	goto	i2l1220
 11293  004DA0                     i2l1217:
 11294  004DA0  C013  F013         	movff	abs@a,?_abs
 11295  004DA4  C014  F014         	movff	abs@a+1,?_abs+1
 11296  004DA8                     i2l1220:
 11297  004DA8  0012               	return		;funcret
 11298  004DAA                     __end_of_abs:
 11299                           	opt callstack 0
 11300                           
 11301 ;; *************** function ___aomod *****************
 11302 ;; Defined at:
 11303 ;;		line 9 in file "/opt/microchip/xc8/v2.10/pic/sources/c99/common/aomod.c"
 11304 ;; Parameters:    Size  Location     Type
 11305 ;;  dividend        8    0[COMRAM] long long 
 11306 ;;  divisor         8    8[COMRAM] long long 
 11307 ;; Auto vars:     Size  Location     Type
 11308 ;;  sign            1   17[COMRAM] unsigned char 
 11309 ;;  counter         1   16[COMRAM] unsigned char 
 11310 ;; Return value:  Size  Location     Type
 11311 ;;                  8    0[COMRAM] long long 
 11312 ;; Registers used:
 11313 ;;		wreg, status,2, status,0
 11314 ;; Tracked objects:
 11315 ;;		On entry : 0/0
 11316 ;;		On exit  : 0/0
 11317 ;;		Unchanged: 0/0
 11318 ;; Data sizes:     COMRAM   BANK0   BANK1   BANK2   BANK3   BANK4   BANK5   BANK6   BANK7
 11319 ;;      Params:        16       0       0       0       0       0       0       0       0
 11320 ;;      Locals:         2       0       0       0       0       0       0       0       0
 11321 ;;      Temps:          0       0       0       0       0       0       0       0       0
 11322 ;;      Totals:        18       0       0       0       0       0       0       0       0
 11323 ;;Total ram usage:       18 bytes
 11324 ;; Hardware stack levels used:    1
 11325 ;; This function calls:
 11326 ;;		Nothing
 11327 ;; This function is called by:
 11328 ;;		_dtoa
 11329 ;; This function uses a non-reentrant model
 11330 ;;
 11331                           
 11332                           	psect	text49
 11333  003454                     __ptext49:
 11334                           	opt callstack 0
 11335  003454                     ___aomod:
 11336                           	opt callstack 20
 11337  003454  0E00               	movlw	0
 11338  003456  6E12               	movwf	___aomod@sign^0,c
 11339  003458  BE08               	btfsc	(___aomod@dividend+7)^0,7,c
 11340  00345A  EF33  F01A         	goto	i2u429_40
 11341  00345E  EF31  F01A         	goto	i2u429_41
 11342  003462                     i2u429_41:
 11343  003462  EF45  F01A         	goto	i2l3941
 11344  003466                     i2u429_40:
 11345  003466  1E08               	comf	(___aomod@dividend+7)^0,f,c
 11346  003468  1E07               	comf	(___aomod@dividend+6)^0,f,c
 11347  00346A  1E06               	comf	(___aomod@dividend+5)^0,f,c
 11348  00346C  1E05               	comf	(___aomod@dividend+4)^0,f,c
 11349  00346E  1E04               	comf	(___aomod@dividend+3)^0,f,c
 11350  003470  1E03               	comf	(___aomod@dividend+2)^0,f,c
 11351  003472  1E02               	comf	(___aomod@dividend+1)^0,f,c
 11352  003474  6C01               	negf	___aomod@dividend^0,c
 11353  003476  0E00               	movlw	0
 11354  003478  2202               	addwfc	(___aomod@dividend+1)^0,f,c
 11355  00347A  2203               	addwfc	(___aomod@dividend+2)^0,f,c
 11356  00347C  2204               	addwfc	(___aomod@dividend+3)^0,f,c
 11357  00347E  2205               	addwfc	(___aomod@dividend+4)^0,f,c
 11358  003480  2206               	addwfc	(___aomod@dividend+5)^0,f,c
 11359  003482  2207               	addwfc	(___aomod@dividend+6)^0,f,c
 11360  003484  2208               	addwfc	(___aomod@dividend+7)^0,f,c
 11361  003486  0E01               	movlw	1
 11362  003488  6E12               	movwf	___aomod@sign^0,c
 11363  00348A                     i2l3941:
 11364  00348A  BE10               	btfsc	(___aomod@divisor+7)^0,7,c
 11365  00348C  EF4C  F01A         	goto	i2u430_40
 11366  003490  EF4A  F01A         	goto	i2u430_41
 11367  003494                     i2u430_41:
 11368  003494  EF5C  F01A         	goto	i2l3945
 11369  003498                     i2u430_40:
 11370  003498  1E10               	comf	(___aomod@divisor+7)^0,f,c
 11371  00349A  1E0F               	comf	(___aomod@divisor+6)^0,f,c
 11372  00349C  1E0E               	comf	(___aomod@divisor+5)^0,f,c
 11373  00349E  1E0D               	comf	(___aomod@divisor+4)^0,f,c
 11374  0034A0  1E0C               	comf	(___aomod@divisor+3)^0,f,c
 11375  0034A2  1E0B               	comf	(___aomod@divisor+2)^0,f,c
 11376  0034A4  1E0A               	comf	(___aomod@divisor+1)^0,f,c
 11377  0034A6  6C09               	negf	___aomod@divisor^0,c
 11378  0034A8  0E00               	movlw	0
 11379  0034AA  220A               	addwfc	(___aomod@divisor+1)^0,f,c
 11380  0034AC  220B               	addwfc	(___aomod@divisor+2)^0,f,c
 11381  0034AE  220C               	addwfc	(___aomod@divisor+3)^0,f,c
 11382  0034B0  220D               	addwfc	(___aomod@divisor+4)^0,f,c
 11383  0034B2  220E               	addwfc	(___aomod@divisor+5)^0,f,c
 11384  0034B4  220F               	addwfc	(___aomod@divisor+6)^0,f,c
 11385  0034B6  2210               	addwfc	(___aomod@divisor+7)^0,f,c
 11386  0034B8                     i2l3945:
 11387  0034B8  5009               	movf	___aomod@divisor^0,w,c
 11388  0034BA  100A               	iorwf	(___aomod@divisor+1)^0,w,c
 11389  0034BC  100B               	iorwf	(___aomod@divisor+2)^0,w,c
 11390  0034BE  100C               	iorwf	(___aomod@divisor+3)^0,w,c
 11391  0034C0  100D               	iorwf	(___aomod@divisor+4)^0,w,c
 11392  0034C2  100E               	iorwf	(___aomod@divisor+5)^0,w,c
 11393  0034C4  100F               	iorwf	(___aomod@divisor+6)^0,w,c
 11394  0034C6  1010               	iorwf	(___aomod@divisor+7)^0,w,c
 11395  0034C8  B4D8               	btfsc	status,2,c
 11396  0034CA  EF69  F01A         	goto	i2u431_41
 11397  0034CE  EF6B  F01A         	goto	i2u431_40
 11398  0034D2                     i2u431_41:
 11399  0034D2  EFB3  F01A         	goto	i2l3961
 11400  0034D6                     i2u431_40:
 11401  0034D6  0E01               	movlw	1
 11402  0034D8  6E11               	movwf	___aomod@counter^0,c
 11403  0034DA  EF79  F01A         	goto	i2l3951
 11404  0034DE                     i2l3949:
 11405  0034DE  90D8               	bcf	status,0,c
 11406  0034E0  3609               	rlcf	___aomod@divisor^0,f,c
 11407  0034E2  360A               	rlcf	(___aomod@divisor+1)^0,f,c
 11408  0034E4  360B               	rlcf	(___aomod@divisor+2)^0,f,c
 11409  0034E6  360C               	rlcf	(___aomod@divisor+3)^0,f,c
 11410  0034E8  360D               	rlcf	(___aomod@divisor+4)^0,f,c
 11411  0034EA  360E               	rlcf	(___aomod@divisor+5)^0,f,c
 11412  0034EC  360F               	rlcf	(___aomod@divisor+6)^0,f,c
 11413  0034EE  3610               	rlcf	(___aomod@divisor+7)^0,f,c
 11414  0034F0  2A11               	incf	___aomod@counter^0,f,c
 11415  0034F2                     i2l3951:
 11416  0034F2  AE10               	btfss	(___aomod@divisor+7)^0,7,c
 11417  0034F4  EF7E  F01A         	goto	i2u432_41
 11418  0034F8  EF80  F01A         	goto	i2u432_40
 11419  0034FC                     i2u432_41:
 11420  0034FC  EF6F  F01A         	goto	i2l3949
 11421  003500                     i2u432_40:
 11422  003500                     i2l3953:
 11423  003500  5009               	movf	___aomod@divisor^0,w,c
 11424  003502  5C01               	subwf	___aomod@dividend^0,w,c
 11425  003504  500A               	movf	(___aomod@divisor+1)^0,w,c
 11426  003506  5802               	subwfb	(___aomod@dividend+1)^0,w,c
 11427  003508  500B               	movf	(___aomod@divisor+2)^0,w,c
 11428  00350A  5803               	subwfb	(___aomod@dividend+2)^0,w,c
 11429  00350C  500C               	movf	(___aomod@divisor+3)^0,w,c
 11430  00350E  5804               	subwfb	(___aomod@dividend+3)^0,w,c
 11431  003510  500D               	movf	(___aomod@divisor+4)^0,w,c
 11432  003512  5805               	subwfb	(___aomod@dividend+4)^0,w,c
 11433  003514  500E               	movf	(___aomod@divisor+5)^0,w,c
 11434  003516  5806               	subwfb	(___aomod@dividend+5)^0,w,c
 11435  003518  500F               	movf	(___aomod@divisor+6)^0,w,c
 11436  00351A  5807               	subwfb	(___aomod@dividend+6)^0,w,c
 11437  00351C  5010               	movf	(___aomod@divisor+7)^0,w,c
 11438  00351E  5808               	subwfb	(___aomod@dividend+7)^0,w,c
 11439  003520  A0D8               	btfss	status,0,c
 11440  003522  EF95  F01A         	goto	i2u433_41
 11441  003526  EF97  F01A         	goto	i2u433_40
 11442  00352A                     i2u433_41:
 11443  00352A  EFA7  F01A         	goto	i2l3957
 11444  00352E                     i2u433_40:
 11445  00352E  5009               	movf	___aomod@divisor^0,w,c
 11446  003530  5E01               	subwf	___aomod@dividend^0,f,c
 11447  003532  500A               	movf	(___aomod@divisor+1)^0,w,c
 11448  003534  5A02               	subwfb	(___aomod@dividend+1)^0,f,c
 11449  003536  500B               	movf	(___aomod@divisor+2)^0,w,c
 11450  003538  5A03               	subwfb	(___aomod@dividend+2)^0,f,c
 11451  00353A  500C               	movf	(___aomod@divisor+3)^0,w,c
 11452  00353C  5A04               	subwfb	(___aomod@dividend+3)^0,f,c
 11453  00353E  500D               	movf	(___aomod@divisor+4)^0,w,c
 11454  003540  5A05               	subwfb	(___aomod@dividend+4)^0,f,c
 11455  003542  500E               	movf	(___aomod@divisor+5)^0,w,c
 11456  003544  5A06               	subwfb	(___aomod@dividend+5)^0,f,c
 11457  003546  500F               	movf	(___aomod@divisor+6)^0,w,c
 11458  003548  5A07               	subwfb	(___aomod@dividend+6)^0,f,c
 11459  00354A  5010               	movf	(___aomod@divisor+7)^0,w,c
 11460  00354C  5A08               	subwfb	(___aomod@dividend+7)^0,f,c
 11461  00354E                     i2l3957:
 11462  00354E  90D8               	bcf	status,0,c
 11463  003550  3210               	rrcf	(___aomod@divisor+7)^0,f,c
 11464  003552  320F               	rrcf	(___aomod@divisor+6)^0,f,c
 11465  003554  320E               	rrcf	(___aomod@divisor+5)^0,f,c
 11466  003556  320D               	rrcf	(___aomod@divisor+4)^0,f,c
 11467  003558  320C               	rrcf	(___aomod@divisor+3)^0,f,c
 11468  00355A  320B               	rrcf	(___aomod@divisor+2)^0,f,c
 11469  00355C  320A               	rrcf	(___aomod@divisor+1)^0,f,c
 11470  00355E  3209               	rrcf	___aomod@divisor^0,f,c
 11471  003560  2E11               	decfsz	___aomod@counter^0,f,c
 11472  003562  EF80  F01A         	goto	i2l3953
 11473  003566                     i2l3961:
 11474  003566  5012               	movf	___aomod@sign^0,w,c
 11475  003568  B4D8               	btfsc	status,2,c
 11476  00356A  EFB9  F01A         	goto	i2u434_41
 11477  00356E  EFBB  F01A         	goto	i2u434_40
 11478  003572                     i2u434_41:
 11479  003572  EFCB  F01A         	goto	i2l3965
 11480  003576                     i2u434_40:
 11481  003576  1E08               	comf	(___aomod@dividend+7)^0,f,c
 11482  003578  1E07               	comf	(___aomod@dividend+6)^0,f,c
 11483  00357A  1E06               	comf	(___aomod@dividend+5)^0,f,c
 11484  00357C  1E05               	comf	(___aomod@dividend+4)^0,f,c
 11485  00357E  1E04               	comf	(___aomod@dividend+3)^0,f,c
 11486  003580  1E03               	comf	(___aomod@dividend+2)^0,f,c
 11487  003582  1E02               	comf	(___aomod@dividend+1)^0,f,c
 11488  003584  6C01               	negf	___aomod@dividend^0,c
 11489  003586  0E00               	movlw	0
 11490  003588  2202               	addwfc	(___aomod@dividend+1)^0,f,c
 11491  00358A  2203               	addwfc	(___aomod@dividend+2)^0,f,c
 11492  00358C  2204               	addwfc	(___aomod@dividend+3)^0,f,c
 11493  00358E  2205               	addwfc	(___aomod@dividend+4)^0,f,c
 11494  003590  2206               	addwfc	(___aomod@dividend+5)^0,f,c
 11495  003592  2207               	addwfc	(___aomod@dividend+6)^0,f,c
 11496  003594  2208               	addwfc	(___aomod@dividend+7)^0,f,c
 11497  003596                     i2l3965:
 11498  003596  C001  F001         	movff	___aomod@dividend,?___aomod
 11499  00359A  C002  F002         	movff	___aomod@dividend+1,?___aomod+1
 11500  00359E  C003  F003         	movff	___aomod@dividend+2,?___aomod+2
 11501  0035A2  C004  F004         	movff	___aomod@dividend+3,?___aomod+3
 11502  0035A6  C005  F005         	movff	___aomod@dividend+4,?___aomod+4
 11503  0035AA  C006  F006         	movff	___aomod@dividend+5,?___aomod+5
 11504  0035AE  C007  F007         	movff	___aomod@dividend+6,?___aomod+6
 11505  0035B2  C008  F008         	movff	___aomod@dividend+7,?___aomod+7
 11506  0035B6  0012               	return		;funcret
 11507  0035B8                     __end_of___aomod:
 11508                           	opt callstack 0
 11509                           
 11510 ;; *************** function ___aodiv *****************
 11511 ;; Defined at:
 11512 ;;		line 9 in file "/opt/microchip/xc8/v2.10/pic/sources/c99/common/aodiv.c"
 11513 ;; Parameters:    Size  Location     Type
 11514 ;;  dividend        8    0[COMRAM] long long 
 11515 ;;  divisor         8    8[COMRAM] long long 
 11516 ;; Auto vars:     Size  Location     Type
 11517 ;;  quotient        8   18[COMRAM] long long 
 11518 ;;  sign            1   17[COMRAM] unsigned char 
 11519 ;;  counter         1   16[COMRAM] unsigned char 
 11520 ;; Return value:  Size  Location     Type
 11521 ;;                  8    0[COMRAM] long long 
 11522 ;; Registers used:
 11523 ;;		wreg, fsr2l, fsr2h, status,2, status,0
 11524 ;; Tracked objects:
 11525 ;;		On entry : 0/0
 11526 ;;		On exit  : 0/0
 11527 ;;		Unchanged: 0/0
 11528 ;; Data sizes:     COMRAM   BANK0   BANK1   BANK2   BANK3   BANK4   BANK5   BANK6   BANK7
 11529 ;;      Params:        16       0       0       0       0       0       0       0       0
 11530 ;;      Locals:        10       0       0       0       0       0       0       0       0
 11531 ;;      Temps:          0       0       0       0       0       0       0       0       0
 11532 ;;      Totals:        26       0       0       0       0       0       0       0       0
 11533 ;;Total ram usage:       26 bytes
 11534 ;; Hardware stack levels used:    1
 11535 ;; This function calls:
 11536 ;;		Nothing
 11537 ;; This function is called by:
 11538 ;;		_dtoa
 11539 ;; This function uses a non-reentrant model
 11540 ;;
 11541                           
 11542                           	psect	text50
 11543  0032CC                     __ptext50:
 11544                           	opt callstack 0
 11545  0032CC                     ___aodiv:
 11546                           	opt callstack 20
 11547  0032CC  0E00               	movlw	0
 11548  0032CE  6E12               	movwf	___aodiv@sign^0,c
 11549  0032D0  BE10               	btfsc	(___aodiv@divisor+7)^0,7,c
 11550  0032D2  EF6F  F019         	goto	i2u422_40
 11551  0032D6  EF6D  F019         	goto	i2u422_41
 11552  0032DA                     i2u422_41:
 11553  0032DA  EF81  F019         	goto	i2l3897
 11554  0032DE                     i2u422_40:
 11555  0032DE  1E10               	comf	(___aodiv@divisor+7)^0,f,c
 11556  0032E0  1E0F               	comf	(___aodiv@divisor+6)^0,f,c
 11557  0032E2  1E0E               	comf	(___aodiv@divisor+5)^0,f,c
 11558  0032E4  1E0D               	comf	(___aodiv@divisor+4)^0,f,c
 11559  0032E6  1E0C               	comf	(___aodiv@divisor+3)^0,f,c
 11560  0032E8  1E0B               	comf	(___aodiv@divisor+2)^0,f,c
 11561  0032EA  1E0A               	comf	(___aodiv@divisor+1)^0,f,c
 11562  0032EC  6C09               	negf	___aodiv@divisor^0,c
 11563  0032EE  0E00               	movlw	0
 11564  0032F0  220A               	addwfc	(___aodiv@divisor+1)^0,f,c
 11565  0032F2  220B               	addwfc	(___aodiv@divisor+2)^0,f,c
 11566  0032F4  220C               	addwfc	(___aodiv@divisor+3)^0,f,c
 11567  0032F6  220D               	addwfc	(___aodiv@divisor+4)^0,f,c
 11568  0032F8  220E               	addwfc	(___aodiv@divisor+5)^0,f,c
 11569  0032FA  220F               	addwfc	(___aodiv@divisor+6)^0,f,c
 11570  0032FC  2210               	addwfc	(___aodiv@divisor+7)^0,f,c
 11571  0032FE  0E01               	movlw	1
 11572  003300  6E12               	movwf	___aodiv@sign^0,c
 11573  003302                     i2l3897:
 11574  003302  BE08               	btfsc	(___aodiv@dividend+7)^0,7,c
 11575  003304  EF88  F019         	goto	i2u423_40
 11576  003308  EF86  F019         	goto	i2u423_41
 11577  00330C                     i2u423_41:
 11578  00330C  EF9A  F019         	goto	i2l3903
 11579  003310                     i2u423_40:
 11580  003310  1E08               	comf	(___aodiv@dividend+7)^0,f,c
 11581  003312  1E07               	comf	(___aodiv@dividend+6)^0,f,c
 11582  003314  1E06               	comf	(___aodiv@dividend+5)^0,f,c
 11583  003316  1E05               	comf	(___aodiv@dividend+4)^0,f,c
 11584  003318  1E04               	comf	(___aodiv@dividend+3)^0,f,c
 11585  00331A  1E03               	comf	(___aodiv@dividend+2)^0,f,c
 11586  00331C  1E02               	comf	(___aodiv@dividend+1)^0,f,c
 11587  00331E  6C01               	negf	___aodiv@dividend^0,c
 11588  003320  0E00               	movlw	0
 11589  003322  2202               	addwfc	(___aodiv@dividend+1)^0,f,c
 11590  003324  2203               	addwfc	(___aodiv@dividend+2)^0,f,c
 11591  003326  2204               	addwfc	(___aodiv@dividend+3)^0,f,c
 11592  003328  2205               	addwfc	(___aodiv@dividend+4)^0,f,c
 11593  00332A  2206               	addwfc	(___aodiv@dividend+5)^0,f,c
 11594  00332C  2207               	addwfc	(___aodiv@dividend+6)^0,f,c
 11595  00332E  2208               	addwfc	(___aodiv@dividend+7)^0,f,c
 11596  003330  0E01               	movlw	1
 11597  003332  1A12               	xorwf	___aodiv@sign^0,f,c
 11598  003334                     i2l3903:
 11599  003334  EE20  F013         	lfsr	2,___aodiv@quotient
 11600  003338  0E07               	movlw	7
 11601  00333A                     i2u424_41:
 11602  00333A  6ADE               	clrf	postinc2,c
 11603  00333C  06E8               	decf	wreg,f,c
 11604  00333E  E2FD               	bc	i2u424_41
 11605  003340  5009               	movf	___aodiv@divisor^0,w,c
 11606  003342  100A               	iorwf	(___aodiv@divisor+1)^0,w,c
 11607  003344  100B               	iorwf	(___aodiv@divisor+2)^0,w,c
 11608  003346  100C               	iorwf	(___aodiv@divisor+3)^0,w,c
 11609  003348  100D               	iorwf	(___aodiv@divisor+4)^0,w,c
 11610  00334A  100E               	iorwf	(___aodiv@divisor+5)^0,w,c
 11611  00334C  100F               	iorwf	(___aodiv@divisor+6)^0,w,c
 11612  00334E  1010               	iorwf	(___aodiv@divisor+7)^0,w,c
 11613  003350  B4D8               	btfsc	status,2,c
 11614  003352  EFAD  F019         	goto	i2u425_41
 11615  003356  EFAF  F019         	goto	i2u425_40
 11616  00335A                     i2u425_41:
 11617  00335A  EF01  F01A         	goto	i2l3925
 11618  00335E                     i2u425_40:
 11619  00335E  0E01               	movlw	1
 11620  003360  6E11               	movwf	___aodiv@counter^0,c
 11621  003362  EFBD  F019         	goto	i2l3911
 11622  003366                     i2l3909:
 11623  003366  90D8               	bcf	status,0,c
 11624  003368  3609               	rlcf	___aodiv@divisor^0,f,c
 11625  00336A  360A               	rlcf	(___aodiv@divisor+1)^0,f,c
 11626  00336C  360B               	rlcf	(___aodiv@divisor+2)^0,f,c
 11627  00336E  360C               	rlcf	(___aodiv@divisor+3)^0,f,c
 11628  003370  360D               	rlcf	(___aodiv@divisor+4)^0,f,c
 11629  003372  360E               	rlcf	(___aodiv@divisor+5)^0,f,c
 11630  003374  360F               	rlcf	(___aodiv@divisor+6)^0,f,c
 11631  003376  3610               	rlcf	(___aodiv@divisor+7)^0,f,c
 11632  003378  2A11               	incf	___aodiv@counter^0,f,c
 11633  00337A                     i2l3911:
 11634  00337A  AE10               	btfss	(___aodiv@divisor+7)^0,7,c
 11635  00337C  EFC2  F019         	goto	i2u426_41
 11636  003380  EFC4  F019         	goto	i2u426_40
 11637  003384                     i2u426_41:
 11638  003384  EFB3  F019         	goto	i2l3909
 11639  003388                     i2u426_40:
 11640  003388                     i2l3913:
 11641  003388  90D8               	bcf	status,0,c
 11642  00338A  3613               	rlcf	___aodiv@quotient^0,f,c
 11643  00338C  3614               	rlcf	(___aodiv@quotient+1)^0,f,c
 11644  00338E  3615               	rlcf	(___aodiv@quotient+2)^0,f,c
 11645  003390  3616               	rlcf	(___aodiv@quotient+3)^0,f,c
 11646  003392  3617               	rlcf	(___aodiv@quotient+4)^0,f,c
 11647  003394  3618               	rlcf	(___aodiv@quotient+5)^0,f,c
 11648  003396  3619               	rlcf	(___aodiv@quotient+6)^0,f,c
 11649  003398  361A               	rlcf	(___aodiv@quotient+7)^0,f,c
 11650  00339A  5009               	movf	___aodiv@divisor^0,w,c
 11651  00339C  5C01               	subwf	___aodiv@dividend^0,w,c
 11652  00339E  500A               	movf	(___aodiv@divisor+1)^0,w,c
 11653  0033A0  5802               	subwfb	(___aodiv@dividend+1)^0,w,c
 11654  0033A2  500B               	movf	(___aodiv@divisor+2)^0,w,c
 11655  0033A4  5803               	subwfb	(___aodiv@dividend+2)^0,w,c
 11656  0033A6  500C               	movf	(___aodiv@divisor+3)^0,w,c
 11657  0033A8  5804               	subwfb	(___aodiv@dividend+3)^0,w,c
 11658  0033AA  500D               	movf	(___aodiv@divisor+4)^0,w,c
 11659  0033AC  5805               	subwfb	(___aodiv@dividend+4)^0,w,c
 11660  0033AE  500E               	movf	(___aodiv@divisor+5)^0,w,c
 11661  0033B0  5806               	subwfb	(___aodiv@dividend+5)^0,w,c
 11662  0033B2  500F               	movf	(___aodiv@divisor+6)^0,w,c
 11663  0033B4  5807               	subwfb	(___aodiv@dividend+6)^0,w,c
 11664  0033B6  5010               	movf	(___aodiv@divisor+7)^0,w,c
 11665  0033B8  5808               	subwfb	(___aodiv@dividend+7)^0,w,c
 11666  0033BA  A0D8               	btfss	status,0,c
 11667  0033BC  EFE2  F019         	goto	i2u427_41
 11668  0033C0  EFE4  F019         	goto	i2u427_40
 11669  0033C4                     i2u427_41:
 11670  0033C4  EFF5  F019         	goto	i2l3921
 11671  0033C8                     i2u427_40:
 11672  0033C8  5009               	movf	___aodiv@divisor^0,w,c
 11673  0033CA  5E01               	subwf	___aodiv@dividend^0,f,c
 11674  0033CC  500A               	movf	(___aodiv@divisor+1)^0,w,c
 11675  0033CE  5A02               	subwfb	(___aodiv@dividend+1)^0,f,c
 11676  0033D0  500B               	movf	(___aodiv@divisor+2)^0,w,c
 11677  0033D2  5A03               	subwfb	(___aodiv@dividend+2)^0,f,c
 11678  0033D4  500C               	movf	(___aodiv@divisor+3)^0,w,c
 11679  0033D6  5A04               	subwfb	(___aodiv@dividend+3)^0,f,c
 11680  0033D8  500D               	movf	(___aodiv@divisor+4)^0,w,c
 11681  0033DA  5A05               	subwfb	(___aodiv@dividend+4)^0,f,c
 11682  0033DC  500E               	movf	(___aodiv@divisor+5)^0,w,c
 11683  0033DE  5A06               	subwfb	(___aodiv@dividend+5)^0,f,c
 11684  0033E0  500F               	movf	(___aodiv@divisor+6)^0,w,c
 11685  0033E2  5A07               	subwfb	(___aodiv@dividend+6)^0,f,c
 11686  0033E4  5010               	movf	(___aodiv@divisor+7)^0,w,c
 11687  0033E6  5A08               	subwfb	(___aodiv@dividend+7)^0,f,c
 11688  0033E8  8013               	bsf	___aodiv@quotient^0,0,c
 11689  0033EA                     i2l3921:
 11690  0033EA  90D8               	bcf	status,0,c
 11691  0033EC  3210               	rrcf	(___aodiv@divisor+7)^0,f,c
 11692  0033EE  320F               	rrcf	(___aodiv@divisor+6)^0,f,c
 11693  0033F0  320E               	rrcf	(___aodiv@divisor+5)^0,f,c
 11694  0033F2  320D               	rrcf	(___aodiv@divisor+4)^0,f,c
 11695  0033F4  320C               	rrcf	(___aodiv@divisor+3)^0,f,c
 11696  0033F6  320B               	rrcf	(___aodiv@divisor+2)^0,f,c
 11697  0033F8  320A               	rrcf	(___aodiv@divisor+1)^0,f,c
 11698  0033FA  3209               	rrcf	___aodiv@divisor^0,f,c
 11699  0033FC  2E11               	decfsz	___aodiv@counter^0,f,c
 11700  0033FE  EFC4  F019         	goto	i2l3913
 11701  003402                     i2l3925:
 11702  003402  5012               	movf	___aodiv@sign^0,w,c
 11703  003404  B4D8               	btfsc	status,2,c
 11704  003406  EF07  F01A         	goto	i2u428_41
 11705  00340A  EF09  F01A         	goto	i2u428_40
 11706  00340E                     i2u428_41:
 11707  00340E  EF19  F01A         	goto	i2l3929
 11708  003412                     i2u428_40:
 11709  003412  1E1A               	comf	(___aodiv@quotient+7)^0,f,c
 11710  003414  1E19               	comf	(___aodiv@quotient+6)^0,f,c
 11711  003416  1E18               	comf	(___aodiv@quotient+5)^0,f,c
 11712  003418  1E17               	comf	(___aodiv@quotient+4)^0,f,c
 11713  00341A  1E16               	comf	(___aodiv@quotient+3)^0,f,c
 11714  00341C  1E15               	comf	(___aodiv@quotient+2)^0,f,c
 11715  00341E  1E14               	comf	(___aodiv@quotient+1)^0,f,c
 11716  003420  6C13               	negf	___aodiv@quotient^0,c
 11717  003422  0E00               	movlw	0
 11718  003424  2214               	addwfc	(___aodiv@quotient+1)^0,f,c
 11719  003426  2215               	addwfc	(___aodiv@quotient+2)^0,f,c
 11720  003428  2216               	addwfc	(___aodiv@quotient+3)^0,f,c
 11721  00342A  2217               	addwfc	(___aodiv@quotient+4)^0,f,c
 11722  00342C  2218               	addwfc	(___aodiv@quotient+5)^0,f,c
 11723  00342E  2219               	addwfc	(___aodiv@quotient+6)^0,f,c
 11724  003430  221A               	addwfc	(___aodiv@quotient+7)^0,f,c
 11725  003432                     i2l3929:
 11726  003432  C013  F001         	movff	___aodiv@quotient,?___aodiv
 11727  003436  C014  F002         	movff	___aodiv@quotient+1,?___aodiv+1
 11728  00343A  C015  F003         	movff	___aodiv@quotient+2,?___aodiv+2
 11729  00343E  C016  F004         	movff	___aodiv@quotient+3,?___aodiv+3
 11730  003442  C017  F005         	movff	___aodiv@quotient+4,?___aodiv+4
 11731  003446  C018  F006         	movff	___aodiv@quotient+5,?___aodiv+5
 11732  00344A  C019  F007         	movff	___aodiv@quotient+6,?___aodiv+6
 11733  00344E  C01A  F008         	movff	___aodiv@quotient+7,?___aodiv+7
 11734  003452  0012               	return		;funcret
 11735  003454                     __end_of___aodiv:
 11736                           	opt callstack 0
 11737                           
 11738 ;; *************** function _atoi *****************
 11739 ;; Defined at:
 11740 ;;		line 4 in file "/opt/microchip/xc8/v2.10/pic/sources/c99/common/atoi.c"
 11741 ;; Parameters:    Size  Location     Type
 11742 ;;  s               2    7[COMRAM] PTR const unsigned char 
 11743 ;;		 -> STR_5(3), STR_1(5), 
 11744 ;; Auto vars:     Size  Location     Type
 11745 ;;  n               2   20[COMRAM] int 
 11746 ;;  neg             2   13[COMRAM] int 
 11747 ;; Return value:  Size  Location     Type
 11748 ;;                  2    7[COMRAM] int 
 11749 ;; Registers used:
 11750 ;;		wreg, status,2, status,0, tblptrl, tblptrh, tblptru, prodl, prodh, cstack
 11751 ;; Tracked objects:
 11752 ;;		On entry : 0/0
 11753 ;;		On exit  : 0/0
 11754 ;;		Unchanged: 0/0
 11755 ;; Data sizes:     COMRAM   BANK0   BANK1   BANK2   BANK3   BANK4   BANK5   BANK6   BANK7
 11756 ;;      Params:         2       0       0       0       0       0       0       0       0
 11757 ;;      Locals:         9       0       0       0       0       0       0       0       0
 11758 ;;      Temps:          4       0       0       0       0       0       0       0       0
 11759 ;;      Totals:        15       0       0       0       0       0       0       0       0
 11760 ;;Total ram usage:       15 bytes
 11761 ;; Hardware stack levels used:    1
 11762 ;; Hardware stack levels required when called:    1
 11763 ;; This function calls:
 11764 ;;		___wmul
 11765 ;;		_isdigit
 11766 ;;		_isspace
 11767 ;; This function is called by:
 11768 ;;		_vfpfcnvrt
 11769 ;; This function uses a non-reentrant model
 11770 ;;
 11771                           
 11772                           	psect	text51
 11773  00313C                     __ptext51:
 11774                           	opt callstack 0
 11775  00313C                     _atoi:
 11776                           	opt callstack 20
 11777  00313C  0E00               	movlw	0
 11778  00313E  6E16               	movwf	(atoi@n+1)^0,c
 11779  003140  0E00               	movlw	0
 11780  003142  6E15               	movwf	atoi@n^0,c
 11781  003144  0E00               	movlw	0
 11782  003146  6E0F               	movwf	(atoi@neg+1)^0,c
 11783  003148  0E00               	movlw	0
 11784  00314A  6E0E               	movwf	atoi@neg^0,c
 11785  00314C  EFAA  F018         	goto	i2l4789
 11786  003150                     i2l4787:
 11787  003150  4A08               	infsnz	atoi@s^0,f,c
 11788  003152  2A09               	incf	(atoi@s+1)^0,f,c
 11789  003154                     i2l4789:
 11790  003154  0E01               	movlw	1
 11791  003156  6E14               	movwf	_atoi$1488^0,c
 11792  003158  C008  FFF6         	movff	atoi@s,tblptrl
 11793  00315C  C009  FFF7         	movff	atoi@s+1,tblptrh
 11794  003160                     	if	0	;tblptru may be non-zero
 11795  003160                     	endif
 11796  003160                     	if	0	;tblptru may be non-zero
 11797  003160                     	endif
 11798  003160  0008               	tblrd		*
 11799  003162  50F5               	movf	tablat,w,c
 11800  003164  0A20               	xorlw	32
 11801  003166  B4D8               	btfsc	status,2,c
 11802  003168  EFB8  F018         	goto	i2u574_41
 11803  00316C  EFBA  F018         	goto	i2u574_40
 11804  003170                     i2u574_41:
 11805  003170  EFD7  F018         	goto	i2l4797
 11806  003174                     i2u574_40:
 11807  003174  0EF7               	movlw	247
 11808  003176  6E0A               	movwf	??_atoi^0,c
 11809  003178  0EFF               	movlw	255
 11810  00317A  6E0B               	movwf	(??_atoi+1)^0,c
 11811  00317C  C008  FFF6         	movff	atoi@s,tblptrl
 11812  003180  C009  FFF7         	movff	atoi@s+1,tblptrh
 11813  003184                     	if	0	;tblptru may be non-zero
 11814  003184                     	endif
 11815  003184                     	if	0	;tblptru may be non-zero
 11816  003184                     	endif
 11817  003184  0008               	tblrd		*
 11818  003186  50F5               	movf	tablat,w,c
 11819  003188  6E0C               	movwf	(??_atoi+2)^0,c
 11820  00318A  6A0D               	clrf	(??_atoi+3)^0,c
 11821  00318C  500A               	movf	??_atoi^0,w,c
 11822  00318E  260C               	addwf	(??_atoi+2)^0,f,c
 11823  003190  500B               	movf	(??_atoi+1)^0,w,c
 11824  003192  220D               	addwfc	(??_atoi+3)^0,f,c
 11825  003194  500D               	movf	(??_atoi+3)^0,w,c
 11826  003196  E109               	bnz	i2u575_40
 11827  003198  0E05               	movlw	5
 11828  00319A  5C0C               	subwf	(??_atoi+2)^0,w,c
 11829  00319C  A0D8               	btfss	status,0,c
 11830  00319E  EFD3  F018         	goto	i2u575_41
 11831  0031A2  EFD5  F018         	goto	i2u575_40
 11832  0031A6                     i2u575_41:
 11833  0031A6  EFD7  F018         	goto	i2l4797
 11834  0031AA                     i2u575_40:
 11835  0031AA  0E00               	movlw	0
 11836  0031AC  6E14               	movwf	_atoi$1488^0,c
 11837  0031AE                     i2l4797:
 11838  0031AE  C014  F010         	movff	_atoi$1488,_atoi$1487
 11839  0031B2  6A11               	clrf	(_atoi$1487+1)^0,c
 11840  0031B4  5010               	movf	_atoi$1487^0,w,c
 11841  0031B6  1011               	iorwf	(_atoi$1487+1)^0,w,c
 11842  0031B8  A4D8               	btfss	status,2,c
 11843  0031BA  EFE1  F018         	goto	i2u576_41
 11844  0031BE  EFE3  F018         	goto	i2u576_40
 11845  0031C2                     i2u576_41:
 11846  0031C2  EFA8  F018         	goto	i2l4787
 11847  0031C6                     i2u576_40:
 11848  0031C6  EFED  F018         	goto	i2l4807
 11849  0031CA                     i2l4803:
 11850  0031CA  0E00               	movlw	0
 11851  0031CC  6E0F               	movwf	(atoi@neg+1)^0,c
 11852  0031CE  0E01               	movlw	1
 11853  0031D0  6E0E               	movwf	atoi@neg^0,c
 11854  0031D2                     i2l4805:
 11855  0031D2  4A08               	infsnz	atoi@s^0,f,c
 11856  0031D4  2A09               	incf	(atoi@s+1)^0,f,c
 11857  0031D6  EF22  F019         	goto	i2l4813
 11858  0031DA                     i2l4807:
 11859  0031DA  C008  FFF6         	movff	atoi@s,tblptrl
 11860  0031DE  C009  FFF7         	movff	atoi@s+1,tblptrh
 11861  0031E2                     	if	0	;tblptru may be non-zero
 11862  0031E2                     	endif
 11863  0031E2                     	if	0	;tblptru may be non-zero
 11864  0031E2                     	endif
 11865  0031E2  0008               	tblrd		*
 11866  0031E4  50F5               	movf	tablat,w,c
 11867  0031E6  6E0A               	movwf	??_atoi^0,c
 11868  0031E8  6A0B               	clrf	(??_atoi+1)^0,c
 11869                           
 11870                           ; Switch on 2 bytes has been partitioned into a top level switch of size 1, and 1 sub-sw
      +                          itches
 11871                           ; Switch size 1, requested type "simple"
 11872                           ; Number of cases is 1, Range of values is 0 to 0
 11873                           ; switch strategies available:
 11874                           ; Name         Instructions Cycles
 11875                           ; simple_byte            4     3 (average)
 11876                           ;	Chosen strategy is simple_byte
 11877  0031EA  500B               	movf	(??_atoi+1)^0,w,c
 11878  0031EC  0A00               	xorlw	0	; case 0
 11879  0031EE  B4D8               	btfsc	status,2,c
 11880  0031F0  EFFC  F018         	goto	i2l5739
 11881  0031F4  EF22  F019         	goto	i2l4813
 11882  0031F8                     i2l5739:
 11883                           
 11884                           ; Switch size 1, requested type "simple"
 11885                           ; Number of cases is 2, Range of values is 43 to 45
 11886                           ; switch strategies available:
 11887                           ; Name         Instructions Cycles
 11888                           ; simple_byte            7     4 (average)
 11889                           ;	Chosen strategy is simple_byte
 11890  0031F8  500A               	movf	??_atoi^0,w,c
 11891  0031FA  0A2B               	xorlw	43	; case 43
 11892  0031FC  B4D8               	btfsc	status,2,c
 11893  0031FE  EFE9  F018         	goto	i2l4805
 11894  003202  0A06               	xorlw	6	; case 45
 11895  003204  B4D8               	btfsc	status,2,c
 11896  003206  EFE5  F018         	goto	i2l4803
 11897  00320A  EF22  F019         	goto	i2l4813
 11898  00320E                     i2l4809:
 11899  00320E  C015  F001         	movff	atoi@n,___wmul@multiplier
 11900  003212  C016  F002         	movff	atoi@n+1,___wmul@multiplier+1
 11901  003216  0E00               	movlw	0
 11902  003218  6E04               	movwf	(___wmul@multiplicand+1)^0,c
 11903  00321A  0E0A               	movlw	10
 11904  00321C  6E03               	movwf	___wmul@multiplicand^0,c
 11905  00321E  ECA1  F027         	call	___wmul	;wreg free
 11906  003222  C008  FFF6         	movff	atoi@s,tblptrl
 11907  003226  C009  FFF7         	movff	atoi@s+1,tblptrh
 11908  00322A                     	if	0	;tblptru may be non-zero
 11909  00322A                     	endif
 11910  00322A                     	if	0	;tblptru may be non-zero
 11911  00322A                     	endif
 11912  00322A  0008               	tblrd		*
 11913  00322C  50F5               	movf	tablat,w,c
 11914  00322E  5E01               	subwf	?___wmul^0,f,c
 11915  003230  0E00               	movlw	0
 11916  003232  5A02               	subwfb	(?___wmul+1)^0,f,c
 11917  003234  0E30               	movlw	48
 11918  003236  2401               	addwf	?___wmul^0,w,c
 11919  003238  6E15               	movwf	atoi@n^0,c
 11920  00323A  0E00               	movlw	0
 11921  00323C  2002               	addwfc	(?___wmul+1)^0,w,c
 11922  00323E  6E16               	movwf	(atoi@n+1)^0,c
 11923  003240  EFE9  F018         	goto	i2l4805
 11924  003244                     i2l4813:
 11925  003244  0ED0               	movlw	208
 11926  003246  6E0A               	movwf	??_atoi^0,c
 11927  003248  0EFF               	movlw	255
 11928  00324A  6E0B               	movwf	(??_atoi+1)^0,c
 11929  00324C  C008  FFF6         	movff	atoi@s,tblptrl
 11930  003250  C009  FFF7         	movff	atoi@s+1,tblptrh
 11931  003254                     	if	0	;tblptru may be non-zero
 11932  003254                     	endif
 11933  003254                     	if	0	;tblptru may be non-zero
 11934  003254                     	endif
 11935  003254  0008               	tblrd		*
 11936  003256  50F5               	movf	tablat,w,c
 11937  003258  6E0C               	movwf	(??_atoi+2)^0,c
 11938  00325A  6A0D               	clrf	(??_atoi+3)^0,c
 11939  00325C  500A               	movf	??_atoi^0,w,c
 11940  00325E  260C               	addwf	(??_atoi+2)^0,f,c
 11941  003260  500B               	movf	(??_atoi+1)^0,w,c
 11942  003262  220D               	addwfc	(??_atoi+3)^0,f,c
 11943  003264  500D               	movf	(??_atoi+3)^0,w,c
 11944  003266  E10A               	bnz	i2u577_40
 11945  003268  0E0A               	movlw	10
 11946  00326A  5C0C               	subwf	(??_atoi+2)^0,w,c
 11947  00326C  A0D8               	btfss	status,0,c
 11948  00326E  EF3B  F019         	goto	i2u577_41
 11949  003272  EF3E  F019         	goto	i2u577_40
 11950  003276                     i2u577_41:
 11951  003276  0E01               	movlw	1
 11952  003278  EF3F  F019         	goto	i2u578_40
 11953  00327C                     i2u577_40:
 11954  00327C  0E00               	movlw	0
 11955  00327E                     i2u578_40:
 11956  00327E  6E12               	movwf	_atoi$1489^0,c
 11957  003280  6A13               	clrf	(_atoi$1489+1)^0,c
 11958  003282  5012               	movf	_atoi$1489^0,w,c
 11959  003284  1013               	iorwf	(_atoi$1489+1)^0,w,c
 11960  003286  A4D8               	btfss	status,2,c
 11961  003288  EF48  F019         	goto	i2u579_41
 11962  00328C  EF4A  F019         	goto	i2u579_40
 11963  003290                     i2u579_41:
 11964  003290  EF07  F019         	goto	i2l4809
 11965  003294                     i2u579_40:
 11966  003294  500E               	movf	atoi@neg^0,w,c
 11967  003296  100F               	iorwf	(atoi@neg+1)^0,w,c
 11968  003298  A4D8               	btfss	status,2,c
 11969  00329A  EF51  F019         	goto	i2u580_41
 11970  00329E  EF53  F019         	goto	i2u580_40
 11971  0032A2                     i2u580_41:
 11972  0032A2  EF61  F019         	goto	i2l1248
 11973  0032A6                     i2u580_40:
 11974  0032A6  C015  F00A         	movff	atoi@n,??_atoi
 11975  0032AA  C016  F00B         	movff	atoi@n+1,??_atoi+1
 11976  0032AE  1E0A               	comf	??_atoi^0,f,c
 11977  0032B0  1E0B               	comf	(??_atoi+1)^0,f,c
 11978  0032B2  4A0A               	infsnz	??_atoi^0,f,c
 11979  0032B4  2A0B               	incf	(??_atoi+1)^0,f,c
 11980  0032B6  C00A  F008         	movff	??_atoi,?_atoi
 11981  0032BA  C00B  F009         	movff	??_atoi+1,?_atoi+1
 11982  0032BE  EF65  F019         	goto	i2l1251
 11983  0032C2                     i2l1248:
 11984  0032C2  C015  F008         	movff	atoi@n,?_atoi
 11985  0032C6  C016  F009         	movff	atoi@n+1,?_atoi+1
 11986  0032CA                     i2l1251:
 11987  0032CA  0012               	return		;funcret
 11988  0032CC                     __end_of_atoi:
 11989                           	opt callstack 0
 11990                           
 11991 ;; *************** function _isspace *****************
 11992 ;; Defined at:
 11993 ;;		line 5 in file "/opt/microchip/xc8/v2.10/pic/sources/c99/common/isspace.c"
 11994 ;; Parameters:    Size  Location     Type
 11995 ;;  c               2    0[COMRAM] int 
 11996 ;; Auto vars:     Size  Location     Type
 11997 ;;		None
 11998 ;; Return value:  Size  Location     Type
 11999 ;;                  2    0[COMRAM] int 
 12000 ;; Registers used:
 12001 ;;		wreg, status,2, status,0
 12002 ;; Tracked objects:
 12003 ;;		On entry : 0/0
 12004 ;;		On exit  : 0/0
 12005 ;;		Unchanged: 0/0
 12006 ;; Data sizes:     COMRAM   BANK0   BANK1   BANK2   BANK3   BANK4   BANK5   BANK6   BANK7
 12007 ;;      Params:         2       0       0       0       0       0       0       0       0
 12008 ;;      Locals:         1       0       0       0       0       0       0       0       0
 12009 ;;      Temps:          4       0       0       0       0       0       0       0       0
 12010 ;;      Totals:         7       0       0       0       0       0       0       0       0
 12011 ;;Total ram usage:        7 bytes
 12012 ;; Hardware stack levels used:    1
 12013 ;; This function calls:
 12014 ;;		Nothing
 12015 ;; This function is called by:
 12016 ;;		_atoi
 12017 ;; This function uses a non-reentrant model
 12018 ;;
 12019                           
 12020                           	psect	text52
 12021  004BFE                     __ptext52:
 12022                           	opt callstack 0
 12023  004BFE                     _isspace:
 12024                           	opt callstack 20
 12025  004BFE  0E01               	movlw	1
 12026  004C00  6E07               	movwf	_isspace$1518^0,c
 12027  004C02  0E20               	movlw	32
 12028  004C04  1801               	xorwf	isspace@c^0,w,c
 12029  004C06  1002               	iorwf	(isspace@c+1)^0,w,c
 12030  004C08  B4D8               	btfsc	status,2,c
 12031  004C0A  EF09  F026         	goto	i2u505_41
 12032  004C0E  EF0B  F026         	goto	i2u505_40
 12033  004C12                     i2u505_41:
 12034  004C12  EF24  F026         	goto	i2l4421
 12035  004C16                     i2u505_40:
 12036  004C16  0EF7               	movlw	247
 12037  004C18  6E03               	movwf	??_isspace^0,c
 12038  004C1A  0EFF               	movlw	255
 12039  004C1C  6E04               	movwf	(??_isspace+1)^0,c
 12040  004C1E  C001  F005         	movff	isspace@c,??_isspace+2
 12041  004C22  C002  F006         	movff	isspace@c+1,??_isspace+3
 12042  004C26  5003               	movf	??_isspace^0,w,c
 12043  004C28  2605               	addwf	(??_isspace+2)^0,f,c
 12044  004C2A  5004               	movf	(??_isspace+1)^0,w,c
 12045  004C2C  2206               	addwfc	(??_isspace+3)^0,f,c
 12046  004C2E  5006               	movf	(??_isspace+3)^0,w,c
 12047  004C30  E109               	bnz	i2u506_40
 12048  004C32  0E05               	movlw	5
 12049  004C34  5C05               	subwf	(??_isspace+2)^0,w,c
 12050  004C36  A0D8               	btfss	status,0,c
 12051  004C38  EF20  F026         	goto	i2u506_41
 12052  004C3C  EF22  F026         	goto	i2u506_40
 12053  004C40                     i2u506_41:
 12054  004C40  EF24  F026         	goto	i2l4421
 12055  004C44                     i2u506_40:
 12056  004C44  0E00               	movlw	0
 12057  004C46  6E07               	movwf	_isspace$1518^0,c
 12058  004C48                     i2l4421:
 12059  004C48  C007  F001         	movff	_isspace$1518,?_isspace
 12060  004C4C  6A02               	clrf	(?_isspace+1)^0,c
 12061  004C4E  0012               	return		;funcret
 12062  004C50                     __end_of_isspace:
 12063                           	opt callstack 0
 12064                           
 12065 ;; *************** function _isdigit *****************
 12066 ;; Defined at:
 12067 ;;		line 5 in file "/opt/microchip/xc8/v2.10/pic/sources/c99/common/isdigit.c"
 12068 ;; Parameters:    Size  Location     Type
 12069 ;;  c               2    0[COMRAM] int 
 12070 ;; Auto vars:     Size  Location     Type
 12071 ;;		None
 12072 ;; Return value:  Size  Location     Type
 12073 ;;                  2    0[COMRAM] int 
 12074 ;; Registers used:
 12075 ;;		wreg, status,2, status,0
 12076 ;; Tracked objects:
 12077 ;;		On entry : 0/0
 12078 ;;		On exit  : 0/0
 12079 ;;		Unchanged: 0/0
 12080 ;; Data sizes:     COMRAM   BANK0   BANK1   BANK2   BANK3   BANK4   BANK5   BANK6   BANK7
 12081 ;;      Params:         2       0       0       0       0       0       0       0       0
 12082 ;;      Locals:         0       0       0       0       0       0       0       0       0
 12083 ;;      Temps:          4       0       0       0       0       0       0       0       0
 12084 ;;      Totals:         6       0       0       0       0       0       0       0       0
 12085 ;;Total ram usage:        6 bytes
 12086 ;; Hardware stack levels used:    1
 12087 ;; This function calls:
 12088 ;;		Nothing
 12089 ;; This function is called by:
 12090 ;;		_vfpfcnvrt
 12091 ;;		_atoi
 12092 ;; This function uses a non-reentrant model
 12093 ;;
 12094                           
 12095                           	psect	text53
 12096  004E56                     __ptext53:
 12097                           	opt callstack 0
 12098  004E56                     _isdigit:
 12099                           	opt callstack 21
 12100  004E56  0ED0               	movlw	208
 12101  004E58  6E03               	movwf	??_isdigit^0,c
 12102  004E5A  0EFF               	movlw	255
 12103  004E5C  6E04               	movwf	(??_isdigit+1)^0,c
 12104  004E5E  C001  F005         	movff	isdigit@c,??_isdigit+2
 12105  004E62  C002  F006         	movff	isdigit@c+1,??_isdigit+3
 12106  004E66  5003               	movf	??_isdigit^0,w,c
 12107  004E68  2605               	addwf	(??_isdigit+2)^0,f,c
 12108  004E6A  5004               	movf	(??_isdigit+1)^0,w,c
 12109  004E6C  2206               	addwfc	(??_isdigit+3)^0,f,c
 12110  004E6E  5006               	movf	(??_isdigit+3)^0,w,c
 12111  004E70  E10A               	bnz	i2u420_40
 12112  004E72  0E0A               	movlw	10
 12113  004E74  5C05               	subwf	(??_isdigit+2)^0,w,c
 12114  004E76  A0D8               	btfss	status,0,c
 12115  004E78  EF40  F027         	goto	i2u420_41
 12116  004E7C  EF43  F027         	goto	i2u420_40
 12117  004E80                     i2u420_41:
 12118  004E80  0E01               	movlw	1
 12119  004E82  EF44  F027         	goto	i2u421_40
 12120  004E86                     i2u420_40:
 12121  004E86  0E00               	movlw	0
 12122  004E88                     i2u421_40:
 12123  004E88  6E01               	movwf	?_isdigit^0,c
 12124  004E8A  6A02               	clrf	(?_isdigit+1)^0,c
 12125  004E8C  0012               	return		;funcret
 12126  004E8E                     __end_of_isdigit:
 12127                           	opt callstack 0
 12128                           
 12129 ;; *************** function ___wmul *****************
 12130 ;; Defined at:
 12131 ;;		line 15 in file "/opt/microchip/xc8/v2.10/pic/sources/c99/common/Umul16.c"
 12132 ;; Parameters:    Size  Location     Type
 12133 ;;  multiplier      2    0[COMRAM] unsigned int 
 12134 ;;  multiplicand    2    2[COMRAM] unsigned int 
 12135 ;; Auto vars:     Size  Location     Type
 12136 ;;  product         2    4[COMRAM] unsigned int 
 12137 ;; Return value:  Size  Location     Type
 12138 ;;                  2    0[COMRAM] unsigned int 
 12139 ;; Registers used:
 12140 ;;		wreg, status,2, status,0, prodl, prodh
 12141 ;; Tracked objects:
 12142 ;;		On entry : 0/0
 12143 ;;		On exit  : 0/0
 12144 ;;		Unchanged: 0/0
 12145 ;; Data sizes:     COMRAM   BANK0   BANK1   BANK2   BANK3   BANK4   BANK5   BANK6   BANK7
 12146 ;;      Params:         4       0       0       0       0       0       0       0       0
 12147 ;;      Locals:         2       0       0       0       0       0       0       0       0
 12148 ;;      Temps:          0       0       0       0       0       0       0       0       0
 12149 ;;      Totals:         6       0       0       0       0       0       0       0       0
 12150 ;;Total ram usage:        6 bytes
 12151 ;; Hardware stack levels used:    1
 12152 ;; This function calls:
 12153 ;;		Nothing
 12154 ;; This function is called by:
 12155 ;;		_atoi
 12156 ;; This function uses a non-reentrant model
 12157 ;;
 12158                           
 12159                           	psect	text54
 12160  004F42                     __ptext54:
 12161                           	opt callstack 0
 12162  004F42                     ___wmul:
 12163                           	opt callstack 20
 12164  004F42  5001               	movf	___wmul@multiplier^0,w,c
 12165  004F44  0203               	mulwf	___wmul@multiplicand^0,c
 12166  004F46  CFF3 F005          	movff	prodl,___wmul@product
 12167  004F4A  CFF4 F006          	movff	prodh,___wmul@product+1
 12168  004F4E  5001               	movf	___wmul@multiplier^0,w,c
 12169  004F50  0204               	mulwf	(___wmul@multiplicand+1)^0,c
 12170  004F52  50F3               	movf	243,w,c
 12171  004F54  2606               	addwf	(___wmul@product+1)^0,f,c
 12172  004F56  5002               	movf	(___wmul@multiplier+1)^0,w,c
 12173  004F58  0203               	mulwf	___wmul@multiplicand^0,c
 12174  004F5A  50F3               	movf	243,w,c
 12175  004F5C  2606               	addwf	(___wmul@product+1)^0,f,c
 12176  004F5E  C005  F001         	movff	___wmul@product,?___wmul
 12177  004F62  C006  F002         	movff	___wmul@product+1,?___wmul+1
 12178  004F66  0012               	return		;funcret
 12179  004F68                     __end_of___wmul:
 12180                           	opt callstack 0
 12181                           
 12182 ;; *************** function ___xxtofl *****************
 12183 ;; Defined at:
 12184 ;;		line 10 in file "/opt/microchip/xc8/v2.10/pic/sources/c99/common/xxtofl.c"
 12185 ;; Parameters:    Size  Location     Type
 12186 ;;  sign            1    wreg     unsigned char 
 12187 ;;  val             4    0[COMRAM] long 
 12188 ;; Auto vars:     Size  Location     Type
 12189 ;;  sign            1    8[COMRAM] unsigned char 
 12190 ;;  arg             4   10[COMRAM] unsigned long 
 12191 ;;  exp             1    9[COMRAM] unsigned char 
 12192 ;; Return value:  Size  Location     Type
 12193 ;;                  4    0[COMRAM] unsigned char 
 12194 ;; Registers used:
 12195 ;;		wreg, status,2, status,0
 12196 ;; Tracked objects:
 12197 ;;		On entry : 0/0
 12198 ;;		On exit  : 0/0
 12199 ;;		Unchanged: 0/0
 12200 ;; Data sizes:     COMRAM   BANK0   BANK1   BANK2   BANK3   BANK4   BANK5   BANK6   BANK7
 12201 ;;      Params:         4       0       0       0       0       0       0       0       0
 12202 ;;      Locals:         6       0       0       0       0       0       0       0       0
 12203 ;;      Temps:          4       0       0       0       0       0       0       0       0
 12204 ;;      Totals:        14       0       0       0       0       0       0       0       0
 12205 ;;Total ram usage:       14 bytes
 12206 ;; Hardware stack levels used:    1
 12207 ;; This function calls:
 12208 ;;		Nothing
 12209 ;; This function is called by:
 12210 ;;		_INT_EX_0
 12211 ;; This function uses a non-reentrant model
 12212 ;;
 12213                           
 12214                           	psect	text55
 12215  002F88                     __ptext55:
 12216                           	opt callstack 0
 12217  002F88                     ___xxtofl:
 12218                           	opt callstack 24
 12219                           
 12220                           ;incstack = 0
 12221                           ;___xxtofl@sign stored from wreg
 12222  002F88  6E09               	movwf	___xxtofl@sign^0,c
 12223  002F8A  5009               	movf	___xxtofl@sign^0,w,c
 12224  002F8C  B4D8               	btfsc	status,2,c
 12225  002F8E  EFCB  F017         	goto	i2u668_41
 12226  002F92  EFCD  F017         	goto	i2u668_40
 12227  002F96                     i2u668_41:
 12228  002F96  EFEF  F017         	goto	i2l1186
 12229  002F9A                     i2u668_40:
 12230  002F9A  BE04               	btfsc	(___xxtofl@val+3)^0,7,c
 12231  002F9C  EFD4  F017         	goto	i2u669_40
 12232  002FA0  EFD2  F017         	goto	i2u669_41
 12233  002FA4                     i2u669_41:
 12234  002FA4  EFEF  F017         	goto	i2l1186
 12235  002FA8                     i2u669_40:
 12236  002FA8  C001  F005         	movff	___xxtofl@val,??___xxtofl
 12237  002FAC  C002  F006         	movff	___xxtofl@val+1,??___xxtofl+1
 12238  002FB0  C003  F007         	movff	___xxtofl@val+2,??___xxtofl+2
 12239  002FB4  C004  F008         	movff	___xxtofl@val+3,??___xxtofl+3
 12240  002FB8  1E05               	comf	??___xxtofl^0,f,c
 12241  002FBA  1E06               	comf	(??___xxtofl+1)^0,f,c
 12242  002FBC  1E07               	comf	(??___xxtofl+2)^0,f,c
 12243  002FBE  1E08               	comf	(??___xxtofl+3)^0,f,c
 12244  002FC0  2A05               	incf	??___xxtofl^0,f,c
 12245  002FC2  0E00               	movlw	0
 12246  002FC4  2206               	addwfc	(??___xxtofl+1)^0,f,c
 12247  002FC6  2207               	addwfc	(??___xxtofl+2)^0,f,c
 12248  002FC8  2208               	addwfc	(??___xxtofl+3)^0,f,c
 12249  002FCA  C005  F00B         	movff	??___xxtofl,___xxtofl@arg
 12250  002FCE  C006  F00C         	movff	??___xxtofl+1,___xxtofl@arg+1
 12251  002FD2  C007  F00D         	movff	??___xxtofl+2,___xxtofl@arg+2
 12252  002FD6  C008  F00E         	movff	??___xxtofl+3,___xxtofl@arg+3
 12253  002FDA  EFF7  F017         	goto	i2l5479
 12254  002FDE                     i2l1186:
 12255  002FDE  C001  F00B         	movff	___xxtofl@val,___xxtofl@arg
 12256  002FE2  C002  F00C         	movff	___xxtofl@val+1,___xxtofl@arg+1
 12257  002FE6  C003  F00D         	movff	___xxtofl@val+2,___xxtofl@arg+2
 12258  002FEA  C004  F00E         	movff	___xxtofl@val+3,___xxtofl@arg+3
 12259  002FEE                     i2l5479:
 12260  002FEE  5001               	movf	___xxtofl@val^0,w,c
 12261  002FF0  1002               	iorwf	(___xxtofl@val+1)^0,w,c
 12262  002FF2  1003               	iorwf	(___xxtofl@val+2)^0,w,c
 12263  002FF4  1004               	iorwf	(___xxtofl@val+3)^0,w,c
 12264  002FF6  A4D8               	btfss	status,2,c
 12265  002FF8  EF00  F018         	goto	i2u670_41
 12266  002FFC  EF02  F018         	goto	i2u670_40
 12267  003000                     i2u670_41:
 12268  003000  EF0C  F018         	goto	i2l5485
 12269  003004                     i2u670_40:
 12270  003004  0E00               	movlw	0
 12271  003006  6E01               	movwf	?___xxtofl^0,c
 12272  003008  0E00               	movlw	0
 12273  00300A  6E02               	movwf	(?___xxtofl+1)^0,c
 12274  00300C  0E00               	movlw	0
 12275  00300E  6E03               	movwf	(?___xxtofl+2)^0,c
 12276  003010  0E00               	movlw	0
 12277  003012  6E04               	movwf	(?___xxtofl+3)^0,c
 12278  003014  EF9D  F018         	goto	i2l1189
 12279  003018                     i2l5485:
 12280  003018  0E96               	movlw	150
 12281  00301A  6E0A               	movwf	___xxtofl@exp^0,c
 12282  00301C  EF16  F018         	goto	i2l5489
 12283  003020                     i2l5487:
 12284  003020  2A0A               	incf	___xxtofl@exp^0,f,c
 12285  003022  90D8               	bcf	status,0,c
 12286  003024  320E               	rrcf	(___xxtofl@arg+3)^0,f,c
 12287  003026  320D               	rrcf	(___xxtofl@arg+2)^0,f,c
 12288  003028  320C               	rrcf	(___xxtofl@arg+1)^0,f,c
 12289  00302A  320B               	rrcf	___xxtofl@arg^0,f,c
 12290  00302C                     i2l5489:
 12291  00302C  0E00               	movlw	0
 12292  00302E  140B               	andwf	___xxtofl@arg^0,w,c
 12293  003030  6E05               	movwf	??___xxtofl^0,c
 12294  003032  0E00               	movlw	0
 12295  003034  140C               	andwf	(___xxtofl@arg+1)^0,w,c
 12296  003036  6E06               	movwf	(??___xxtofl+1)^0,c
 12297  003038  0E00               	movlw	0
 12298  00303A  140D               	andwf	(___xxtofl@arg+2)^0,w,c
 12299  00303C  6E07               	movwf	(??___xxtofl+2)^0,c
 12300  00303E  0EFE               	movlw	254
 12301  003040  140E               	andwf	(___xxtofl@arg+3)^0,w,c
 12302  003042  6E08               	movwf	(??___xxtofl+3)^0,c
 12303  003044  5005               	movf	??___xxtofl^0,w,c
 12304  003046  1006               	iorwf	(??___xxtofl+1)^0,w,c
 12305  003048  1007               	iorwf	(??___xxtofl+2)^0,w,c
 12306  00304A  1008               	iorwf	(??___xxtofl+3)^0,w,c
 12307  00304C  A4D8               	btfss	status,2,c
 12308  00304E  EF2B  F018         	goto	i2u671_41
 12309  003052  EF2D  F018         	goto	i2u671_40
 12310  003056                     i2u671_41:
 12311  003056  EF10  F018         	goto	i2l5487
 12312  00305A                     i2u671_40:
 12313  00305A  EF3B  F018         	goto	i2l1193
 12314  00305E                     i2l5491:
 12315  00305E  2A0A               	incf	___xxtofl@exp^0,f,c
 12316  003060  0E01               	movlw	1
 12317  003062  260B               	addwf	___xxtofl@arg^0,f,c
 12318  003064  0E00               	movlw	0
 12319  003066  220C               	addwfc	(___xxtofl@arg+1)^0,f,c
 12320  003068  220D               	addwfc	(___xxtofl@arg+2)^0,f,c
 12321  00306A  220E               	addwfc	(___xxtofl@arg+3)^0,f,c
 12322  00306C  90D8               	bcf	status,0,c
 12323  00306E  320E               	rrcf	(___xxtofl@arg+3)^0,f,c
 12324  003070  320D               	rrcf	(___xxtofl@arg+2)^0,f,c
 12325  003072  320C               	rrcf	(___xxtofl@arg+1)^0,f,c
 12326  003074  320B               	rrcf	___xxtofl@arg^0,f,c
 12327  003076                     i2l1193:
 12328  003076  0E00               	movlw	0
 12329  003078  140B               	andwf	___xxtofl@arg^0,w,c
 12330  00307A  6E05               	movwf	??___xxtofl^0,c
 12331  00307C  0E00               	movlw	0
 12332  00307E  140C               	andwf	(___xxtofl@arg+1)^0,w,c
 12333  003080  6E06               	movwf	(??___xxtofl+1)^0,c
 12334  003082  0E00               	movlw	0
 12335  003084  140D               	andwf	(___xxtofl@arg+2)^0,w,c
 12336  003086  6E07               	movwf	(??___xxtofl+2)^0,c
 12337  003088  0EFF               	movlw	255
 12338  00308A  140E               	andwf	(___xxtofl@arg+3)^0,w,c
 12339  00308C  6E08               	movwf	(??___xxtofl+3)^0,c
 12340  00308E  5005               	movf	??___xxtofl^0,w,c
 12341  003090  1006               	iorwf	(??___xxtofl+1)^0,w,c
 12342  003092  1007               	iorwf	(??___xxtofl+2)^0,w,c
 12343  003094  1008               	iorwf	(??___xxtofl+3)^0,w,c
 12344  003096  A4D8               	btfss	status,2,c
 12345  003098  EF50  F018         	goto	i2u672_41
 12346  00309C  EF52  F018         	goto	i2u672_40
 12347  0030A0                     i2u672_41:
 12348  0030A0  EF2F  F018         	goto	i2l5491
 12349  0030A4                     i2u672_40:
 12350  0030A4  EF5A  F018         	goto	i2l5499
 12351  0030A8                     i2l5497:
 12352  0030A8  060A               	decf	___xxtofl@exp^0,f,c
 12353  0030AA  90D8               	bcf	status,0,c
 12354  0030AC  360B               	rlcf	___xxtofl@arg^0,f,c
 12355  0030AE  360C               	rlcf	(___xxtofl@arg+1)^0,f,c
 12356  0030B0  360D               	rlcf	(___xxtofl@arg+2)^0,f,c
 12357  0030B2  360E               	rlcf	(___xxtofl@arg+3)^0,f,c
 12358  0030B4                     i2l5499:
 12359  0030B4  BE0D               	btfsc	(___xxtofl@arg+2)^0,7,c
 12360  0030B6  EF5F  F018         	goto	i2u673_41
 12361  0030BA  EF61  F018         	goto	i2u673_40
 12362  0030BE                     i2u673_41:
 12363  0030BE  EF69  F018         	goto	i2l1200
 12364  0030C2                     i2u673_40:
 12365  0030C2  0E02               	movlw	2
 12366  0030C4  600A               	cpfslt	___xxtofl@exp^0,c
 12367  0030C6  EF67  F018         	goto	i2u674_41
 12368  0030CA  EF69  F018         	goto	i2u674_40
 12369  0030CE                     i2u674_41:
 12370  0030CE  EF54  F018         	goto	i2l5497
 12371  0030D2                     i2u674_40:
 12372  0030D2                     i2l1200:
 12373  0030D2  B00A               	btfsc	___xxtofl@exp^0,0,c
 12374  0030D4  EF6E  F018         	goto	i2u675_41
 12375  0030D8  EF70  F018         	goto	i2u675_40
 12376  0030DC                     i2u675_41:
 12377  0030DC  EF71  F018         	goto	i2l5505
 12378  0030E0                     i2u675_40:
 12379  0030E0  9E0D               	bcf	(___xxtofl@arg+2)^0,7,c
 12380  0030E2                     i2l5505:
 12381  0030E2  90D8               	bcf	status,0,c
 12382  0030E4  320A               	rrcf	___xxtofl@exp^0,f,c
 12383  0030E6  C00A  F005         	movff	___xxtofl@exp,??___xxtofl
 12384  0030EA  6A06               	clrf	(??___xxtofl+1)^0,c
 12385  0030EC  6A07               	clrf	(??___xxtofl+2)^0,c
 12386  0030EE  6A08               	clrf	(??___xxtofl+3)^0,c
 12387  0030F0  C005  F008         	movff	??___xxtofl,??___xxtofl+3
 12388  0030F4  6A07               	clrf	(??___xxtofl+2)^0,c
 12389  0030F6  6A06               	clrf	(??___xxtofl+1)^0,c
 12390  0030F8  6A05               	clrf	??___xxtofl^0,c
 12391  0030FA  5005               	movf	??___xxtofl^0,w,c
 12392  0030FC  120B               	iorwf	___xxtofl@arg^0,f,c
 12393  0030FE  5006               	movf	(??___xxtofl+1)^0,w,c
 12394  003100  120C               	iorwf	(___xxtofl@arg+1)^0,f,c
 12395  003102  5007               	movf	(??___xxtofl+2)^0,w,c
 12396  003104  120D               	iorwf	(___xxtofl@arg+2)^0,f,c
 12397  003106  5008               	movf	(??___xxtofl+3)^0,w,c
 12398  003108  120E               	iorwf	(___xxtofl@arg+3)^0,f,c
 12399  00310A  5009               	movf	___xxtofl@sign^0,w,c
 12400  00310C  B4D8               	btfsc	status,2,c
 12401  00310E  EF8B  F018         	goto	i2u676_41
 12402  003112  EF8D  F018         	goto	i2u676_40
 12403  003116                     i2u676_41:
 12404  003116  EF95  F018         	goto	i2l5515
 12405  00311A                     i2u676_40:
 12406  00311A  BE04               	btfsc	(___xxtofl@val+3)^0,7,c
 12407  00311C  EF94  F018         	goto	i2u677_40
 12408  003120  EF92  F018         	goto	i2u677_41
 12409  003124                     i2u677_41:
 12410  003124  EF95  F018         	goto	i2l5515
 12411  003128                     i2u677_40:
 12412  003128  8E0E               	bsf	(___xxtofl@arg+3)^0,7,c
 12413  00312A                     i2l5515:
 12414  00312A  C00B  F001         	movff	___xxtofl@arg,?___xxtofl
 12415  00312E  C00C  F002         	movff	___xxtofl@arg+1,?___xxtofl+1
 12416  003132  C00D  F003         	movff	___xxtofl@arg+2,?___xxtofl+2
 12417  003136  C00E  F004         	movff	___xxtofl@arg+3,?___xxtofl+3
 12418  00313A                     i2l1189:
 12419  00313A  0012               	return		;funcret
 12420  00313C                     __end_of___xxtofl:
 12421                           	opt callstack 0
 12422                           
 12423 ;; *************** function _Lcd_Out2 *****************
 12424 ;; Defined at:
 12425 ;;		line 137 in file "./lcd.h"
 12426 ;; Parameters:    Size  Location     Type
 12427 ;;  y               1    wreg     unsigned char 
 12428 ;;  x               1    3[COMRAM] unsigned char 
 12429 ;;  buffer          2    4[COMRAM] PTR unsigned char 
 12430 ;;		 -> INT_EX_0@temp(10), STR_3(10), INT_EX_0@data(10), 
 12431 ;; Auto vars:     Size  Location     Type
 12432 ;;  y               1    8[COMRAM] unsigned char 
 12433 ;;  data            1    9[COMRAM] unsigned char 
 12434 ;; Return value:  Size  Location     Type
 12435 ;;                  1    wreg      void 
 12436 ;; Registers used:
 12437 ;;		wreg, fsr1l, fsr1h, status,2, status,0, tblptrl, tblptrh, tblptru, cstack
 12438 ;; Tracked objects:
 12439 ;;		On entry : 0/0
 12440 ;;		On exit  : 0/0
 12441 ;;		Unchanged: 0/0
 12442 ;; Data sizes:     COMRAM   BANK0   BANK1   BANK2   BANK3   BANK4   BANK5   BANK6   BANK7
 12443 ;;      Params:         3       0       0       0       0       0       0       0       0
 12444 ;;      Locals:         2       0       0       0       0       0       0       0       0
 12445 ;;      Temps:          2       0       0       0       0       0       0       0       0
 12446 ;;      Totals:         7       0       0       0       0       0       0       0       0
 12447 ;;Total ram usage:        7 bytes
 12448 ;; Hardware stack levels used:    1
 12449 ;; Hardware stack levels required when called:    1
 12450 ;; This function calls:
 12451 ;;		_Lcd_Chr_CP
 12452 ;;		i2_Lcd_Cmd
 12453 ;; This function is called by:
 12454 ;;		_INT_EX_0
 12455 ;; This function uses a non-reentrant model
 12456 ;;
 12457                           
 12458                           	psect	text56
 12459  004170                     __ptext56:
 12460                           	opt callstack 0
 12461  004170                     _Lcd_Out2:
 12462                           	opt callstack 23
 12463                           
 12464                           ;incstack = 0
 12465                           ;Lcd_Out2@y stored from wreg
 12466  004170  6E09               	movwf	Lcd_Out2@y^0,c
 12467  004172                     
 12468                           ;./lcd.h: 137: void Lcd_Out2(unsigned char y, unsigned char x, char *buffer);./lcd.h: 13
      +                          8: {;./lcd.h: 139: unsigned char data;;./lcd.h: 140: switch (y)
 12469  004172  EFCF  F020         	goto	i2l5379
 12470  004176                     i2l5369:
 12471  004176  5004               	movf	Lcd_Out2@x^0,w,c
 12472  004178  0F80               	addlw	128
 12473  00417A  6E0A               	movwf	Lcd_Out2@data^0,c
 12474  00417C  EFEC  F020         	goto	i2l5381
 12475  004180                     i2l5371:
 12476  004180  5004               	movf	Lcd_Out2@x^0,w,c
 12477  004182  0FC0               	addlw	192
 12478  004184  6E0A               	movwf	Lcd_Out2@data^0,c
 12479  004186  EFEC  F020         	goto	i2l5381
 12480  00418A                     i2l5373:
 12481  00418A  5004               	movf	Lcd_Out2@x^0,w,c
 12482  00418C  0F94               	addlw	148
 12483  00418E  6E0A               	movwf	Lcd_Out2@data^0,c
 12484  004190  EFEC  F020         	goto	i2l5381
 12485  004194                     i2l5375:
 12486  004194  5004               	movf	Lcd_Out2@x^0,w,c
 12487  004196  0FD4               	addlw	212
 12488  004198  6E0A               	movwf	Lcd_Out2@data^0,c
 12489  00419A  EFEC  F020         	goto	i2l5381
 12490  00419E                     i2l5379:
 12491  00419E  5009               	movf	Lcd_Out2@y^0,w,c
 12492  0041A0  6E07               	movwf	??_Lcd_Out2^0,c
 12493  0041A2  6A08               	clrf	(??_Lcd_Out2+1)^0,c
 12494                           
 12495                           ; Switch on 2 bytes has been partitioned into a top level switch of size 1, and 1 sub-sw
      +                          itches
 12496                           ; Switch size 1, requested type "simple"
 12497                           ; Number of cases is 1, Range of values is 0 to 0
 12498                           ; switch strategies available:
 12499                           ; Name         Instructions Cycles
 12500                           ; simple_byte            4     3 (average)
 12501                           ;	Chosen strategy is simple_byte
 12502  0041A4  5008               	movf	(??_Lcd_Out2+1)^0,w,c
 12503  0041A6  0A00               	xorlw	0	; case 0
 12504  0041A8  B4D8               	btfsc	status,2,c
 12505  0041AA  EFD9  F020         	goto	i2l5741
 12506  0041AE  EFEC  F020         	goto	i2l5381
 12507  0041B2                     i2l5741:
 12508                           
 12509                           ; Switch size 1, requested type "simple"
 12510                           ; Number of cases is 4, Range of values is 1 to 4
 12511                           ; switch strategies available:
 12512                           ; Name         Instructions Cycles
 12513                           ; simple_byte           13     7 (average)
 12514                           ;	Chosen strategy is simple_byte
 12515  0041B2  5007               	movf	??_Lcd_Out2^0,w,c
 12516  0041B4  0A01               	xorlw	1	; case 1
 12517  0041B6  B4D8               	btfsc	status,2,c
 12518  0041B8  EFBB  F020         	goto	i2l5369
 12519  0041BC  0A03               	xorlw	3	; case 2
 12520  0041BE  B4D8               	btfsc	status,2,c
 12521  0041C0  EFC0  F020         	goto	i2l5371
 12522  0041C4  0A01               	xorlw	1	; case 3
 12523  0041C6  B4D8               	btfsc	status,2,c
 12524  0041C8  EFC5  F020         	goto	i2l5373
 12525  0041CC  0A07               	xorlw	7	; case 4
 12526  0041CE  B4D8               	btfsc	status,2,c
 12527  0041D0  EFCA  F020         	goto	i2l5375
 12528  0041D4  EFEC  F020         	goto	i2l5381
 12529  0041D8                     i2l5381:
 12530                           
 12531                           ;./lcd.h: 148: Lcd_Cmd(data);
 12532  0041D8  500A               	movf	Lcd_Out2@data^0,w,c
 12533  0041DA  ECA1  F01C         	call	i2_Lcd_Cmd
 12534                           
 12535                           ;./lcd.h: 149: while(*buffer)
 12536  0041DE  EF05  F021         	goto	i2l5387
 12537  0041E2                     i2l5383:
 12538                           
 12539                           ;./lcd.h: 150: {;./lcd.h: 151:     Lcd_Chr_CP(*buffer);
 12540  0041E2  C005  FFF6         	movff	Lcd_Out2@buffer,tblptrl
 12541  0041E6  C006  FFF7         	movff	Lcd_Out2@buffer+1,tblptrh
 12542  0041EA  6AF8               	clrf	tblptru,c
 12543  0041EC  0E07               	movlw	(high __ramtop+-1)
 12544  0041EE  64F7               	cpfsgt	tblptrh,c
 12545  0041F0  D003               	bra	i2u655_47
 12546  0041F2  0008               	tblrd		*
 12547  0041F4  50F5               	movf	tablat,w,c
 12548  0041F6  D005               	bra	i2u655_40
 12549  0041F8                     i2u655_47:
 12550  0041F8  CFF6 FFE1          	movff	tblptrl,fsr1l
 12551  0041FC  CFF7 FFE2          	movff	tblptrh,fsr1h
 12552  004200  50E7               	movf	indf1,w,c
 12553  004202                     i2u655_40:
 12554  004202  EC74  F01B         	call	_Lcd_Chr_CP
 12555  004206                     
 12556                           ;./lcd.h: 152:     buffer++;
 12557  004206  4A05               	infsnz	Lcd_Out2@buffer^0,f,c
 12558  004208  2A06               	incf	(Lcd_Out2@buffer+1)^0,f,c
 12559  00420A                     i2l5387:
 12560                           
 12561                           ;./lcd.h: 149: while(*buffer)
 12562  00420A  C005  FFF6         	movff	Lcd_Out2@buffer,tblptrl
 12563  00420E  C006  FFF7         	movff	Lcd_Out2@buffer+1,tblptrh
 12564  004212  6AF8               	clrf	tblptru,c
 12565  004214  0E07               	movlw	(high __ramtop+-1)
 12566  004216  64F7               	cpfsgt	tblptrh,c
 12567  004218  D003               	bra	i2u656_47
 12568  00421A  0008               	tblrd		*
 12569  00421C  50F5               	movf	tablat,w,c
 12570  00421E  D005               	bra	i2u656_40
 12571  004220                     i2u656_47:
 12572  004220  CFF6 FFE1          	movff	tblptrl,fsr1l
 12573  004224  CFF7 FFE2          	movff	tblptrh,fsr1h
 12574  004228  50E7               	movf	indf1,w,c
 12575  00422A                     i2u656_40:
 12576  00422A  0900               	iorlw	0
 12577  00422C  A4D8               	btfss	status,2,c
 12578  00422E  EF1B  F021         	goto	i2u657_41
 12579  004232  EF1D  F021         	goto	i2u657_40
 12580  004236                     i2u657_41:
 12581  004236  EFF1  F020         	goto	i2l5383
 12582  00423A                     i2u657_40:
 12583  00423A  0012               	return		;funcret
 12584  00423C                     __end_of_Lcd_Out2:
 12585                           	opt callstack 0
 12586                           
 12587 ;; *************** function _Lcd_Out *****************
 12588 ;; Defined at:
 12589 ;;		line 116 in file "./lcd.h"
 12590 ;; Parameters:    Size  Location     Type
 12591 ;;  y               1    wreg     unsigned char 
 12592 ;;  x               1    3[COMRAM] unsigned char 
 12593 ;;  buffer          2    4[COMRAM] PTR const unsigned char 
 12594 ;;		 -> STR_4(13), 
 12595 ;; Auto vars:     Size  Location     Type
 12596 ;;  y               1    8[COMRAM] unsigned char 
 12597 ;;  data            1    9[COMRAM] unsigned char 
 12598 ;; Return value:  Size  Location     Type
 12599 ;;                  1    wreg      void 
 12600 ;; Registers used:
 12601 ;;		wreg, status,2, status,0, tblptrl, tblptrh, tblptru, cstack
 12602 ;; Tracked objects:
 12603 ;;		On entry : 0/0
 12604 ;;		On exit  : 0/0
 12605 ;;		Unchanged: 0/0
 12606 ;; Data sizes:     COMRAM   BANK0   BANK1   BANK2   BANK3   BANK4   BANK5   BANK6   BANK7
 12607 ;;      Params:         3       0       0       0       0       0       0       0       0
 12608 ;;      Locals:         2       0       0       0       0       0       0       0       0
 12609 ;;      Temps:          2       0       0       0       0       0       0       0       0
 12610 ;;      Totals:         7       0       0       0       0       0       0       0       0
 12611 ;;Total ram usage:        7 bytes
 12612 ;; Hardware stack levels used:    1
 12613 ;; Hardware stack levels required when called:    1
 12614 ;; This function calls:
 12615 ;;		_Lcd_Chr_CP
 12616 ;;		i2_Lcd_Cmd
 12617 ;; This function is called by:
 12618 ;;		_INT_EX_0
 12619 ;; This function uses a non-reentrant model
 12620 ;;
 12621                           
 12622                           	psect	text57
 12623  004802                     __ptext57:
 12624                           	opt callstack 0
 12625  004802                     _Lcd_Out:
 12626                           	opt callstack 23
 12627                           
 12628                           ;incstack = 0
 12629                           ;Lcd_Out@y stored from wreg
 12630  004802  6E09               	movwf	Lcd_Out@y^0,c
 12631  004804                     
 12632                           ;./lcd.h: 116: void Lcd_Out(unsigned char y, unsigned char x, const char *buffer);./lcd.
      +                          h: 117: {;./lcd.h: 118: unsigned char data;;./lcd.h: 119: switch (y)
 12633  004804  EF18  F024         	goto	i2l5353
 12634  004808                     i2l5343:
 12635  004808  5004               	movf	Lcd_Out@x^0,w,c
 12636  00480A  0F80               	addlw	128
 12637  00480C  6E0A               	movwf	Lcd_Out@data^0,c
 12638  00480E  EF35  F024         	goto	i2l5355
 12639  004812                     i2l5345:
 12640  004812  5004               	movf	Lcd_Out@x^0,w,c
 12641  004814  0FC0               	addlw	192
 12642  004816  6E0A               	movwf	Lcd_Out@data^0,c
 12643  004818  EF35  F024         	goto	i2l5355
 12644  00481C                     i2l5347:
 12645  00481C  5004               	movf	Lcd_Out@x^0,w,c
 12646  00481E  0F94               	addlw	148
 12647  004820  6E0A               	movwf	Lcd_Out@data^0,c
 12648  004822  EF35  F024         	goto	i2l5355
 12649  004826                     i2l5349:
 12650  004826  5004               	movf	Lcd_Out@x^0,w,c
 12651  004828  0FD4               	addlw	212
 12652  00482A  6E0A               	movwf	Lcd_Out@data^0,c
 12653  00482C  EF35  F024         	goto	i2l5355
 12654  004830                     i2l5353:
 12655  004830  5009               	movf	Lcd_Out@y^0,w,c
 12656  004832  6E07               	movwf	??_Lcd_Out^0,c
 12657  004834  6A08               	clrf	(??_Lcd_Out+1)^0,c
 12658                           
 12659                           ; Switch on 2 bytes has been partitioned into a top level switch of size 1, and 1 sub-sw
      +                          itches
 12660                           ; Switch size 1, requested type "simple"
 12661                           ; Number of cases is 1, Range of values is 0 to 0
 12662                           ; switch strategies available:
 12663                           ; Name         Instructions Cycles
 12664                           ; simple_byte            4     3 (average)
 12665                           ;	Chosen strategy is simple_byte
 12666  004836  5008               	movf	(??_Lcd_Out+1)^0,w,c
 12667  004838  0A00               	xorlw	0	; case 0
 12668  00483A  B4D8               	btfsc	status,2,c
 12669  00483C  EF22  F024         	goto	i2l5743
 12670  004840  EF35  F024         	goto	i2l5355
 12671  004844                     i2l5743:
 12672                           
 12673                           ; Switch size 1, requested type "simple"
 12674                           ; Number of cases is 4, Range of values is 1 to 4
 12675                           ; switch strategies available:
 12676                           ; Name         Instructions Cycles
 12677                           ; simple_byte           13     7 (average)
 12678                           ;	Chosen strategy is simple_byte
 12679  004844  5007               	movf	??_Lcd_Out^0,w,c
 12680  004846  0A01               	xorlw	1	; case 1
 12681  004848  B4D8               	btfsc	status,2,c
 12682  00484A  EF04  F024         	goto	i2l5343
 12683  00484E  0A03               	xorlw	3	; case 2
 12684  004850  B4D8               	btfsc	status,2,c
 12685  004852  EF09  F024         	goto	i2l5345
 12686  004856  0A01               	xorlw	1	; case 3
 12687  004858  B4D8               	btfsc	status,2,c
 12688  00485A  EF0E  F024         	goto	i2l5347
 12689  00485E  0A07               	xorlw	7	; case 4
 12690  004860  B4D8               	btfsc	status,2,c
 12691  004862  EF13  F024         	goto	i2l5349
 12692  004866  EF35  F024         	goto	i2l5355
 12693  00486A                     i2l5355:
 12694                           
 12695                           ;./lcd.h: 127: Lcd_Cmd(data);
 12696  00486A  500A               	movf	Lcd_Out@data^0,w,c
 12697  00486C  ECA1  F01C         	call	i2_Lcd_Cmd
 12698                           
 12699                           ;./lcd.h: 128: while(*buffer)
 12700  004870  EF44  F024         	goto	i2l5361
 12701  004874                     i2l5357:
 12702                           
 12703                           ;./lcd.h: 129: {;./lcd.h: 130:     Lcd_Chr_CP(*buffer);
 12704  004874  C005  FFF6         	movff	Lcd_Out@buffer,tblptrl
 12705  004878  C006  FFF7         	movff	Lcd_Out@buffer+1,tblptrh
 12706  00487C                     	if	0	;tblptru may be non-zero
 12707  00487C                     	endif
 12708  00487C                     	if	0	;tblptru may be non-zero
 12709  00487C                     	endif
 12710  00487C  0008               	tblrd		*
 12711  00487E  50F5               	movf	tablat,w,c
 12712  004880  EC74  F01B         	call	_Lcd_Chr_CP
 12713  004884                     
 12714                           ;./lcd.h: 131:     buffer++;
 12715  004884  4A05               	infsnz	Lcd_Out@buffer^0,f,c
 12716  004886  2A06               	incf	(Lcd_Out@buffer+1)^0,f,c
 12717  004888                     i2l5361:
 12718                           
 12719                           ;./lcd.h: 128: while(*buffer)
 12720  004888  C005  FFF6         	movff	Lcd_Out@buffer,tblptrl
 12721  00488C  C006  FFF7         	movff	Lcd_Out@buffer+1,tblptrh
 12722  004890                     	if	0	;tblptru may be non-zero
 12723  004890                     	endif
 12724  004890                     	if	0	;tblptru may be non-zero
 12725  004890                     	endif
 12726  004890  0008               	tblrd		*
 12727  004892  50F5               	movf	tablat,w,c
 12728  004894  0900               	iorlw	0
 12729  004896  A4D8               	btfss	status,2,c
 12730  004898  EF50  F024         	goto	i2u654_41
 12731  00489C  EF52  F024         	goto	i2u654_40
 12732  0048A0                     i2u654_41:
 12733  0048A0  EF3A  F024         	goto	i2l5357
 12734  0048A4                     i2u654_40:
 12735  0048A4  0012               	return		;funcret
 12736  0048A6                     __end_of_Lcd_Out:
 12737                           	opt callstack 0
 12738                           
 12739 ;; *************** function i2_Lcd_Cmd *****************
 12740 ;; Defined at:
 12741 ;;		line 172 in file "./lcd.h"
 12742 ;; Parameters:    Size  Location     Type
 12743 ;;  data            1    wreg     unsigned char 
 12744 ;; Auto vars:     Size  Location     Type
 12745 ;;  data            1    2[COMRAM] unsigned char 
 12746 ;; Return value:  Size  Location     Type
 12747 ;;                  1    wreg      void 
 12748 ;; Registers used:
 12749 ;;		wreg, status,2, status,0
 12750 ;; Tracked objects:
 12751 ;;		On entry : 0/0
 12752 ;;		On exit  : 0/0
 12753 ;;		Unchanged: 0/0
 12754 ;; Data sizes:     COMRAM   BANK0   BANK1   BANK2   BANK3   BANK4   BANK5   BANK6   BANK7
 12755 ;;      Params:         0       0       0       0       0       0       0       0       0
 12756 ;;      Locals:         1       0       0       0       0       0       0       0       0
 12757 ;;      Temps:          2       0       0       0       0       0       0       0       0
 12758 ;;      Totals:         3       0       0       0       0       0       0       0       0
 12759 ;;Total ram usage:        3 bytes
 12760 ;; Hardware stack levels used:    1
 12761 ;; This function calls:
 12762 ;;		Nothing
 12763 ;; This function is called by:
 12764 ;;		_Lcd_Out
 12765 ;;		_Lcd_Out2
 12766 ;;		_INT_EX_0
 12767 ;; This function uses a non-reentrant model
 12768 ;;
 12769                           
 12770                           	psect	text58
 12771  003942                     __ptext58:
 12772                           	opt callstack 0
 12773  003942                     i2_Lcd_Cmd:
 12774                           	opt callstack 24
 12775                           
 12776                           ;incstack = 0
 12777                           ;i2Lcd_Cmd@data stored from wreg
 12778  003942  6E03               	movwf	i2Lcd_Cmd@data^0,c
 12779  003944                     
 12780                           ;./lcd.h: 173: PORTDbits.RD3 = 0; PORTDbits.RD1 = 0;
 12781  003944  9683               	bcf	131,3,c	;volatile
 12782  003946  9283               	bcf	131,1,c	;volatile
 12783  003948                     
 12784                           ;./lcd.h: 174: PORTDbits.RD7 = (data & 0b10000000)>>7; PORTDbits.RD6 = (data & 0b0100000
      +                          0)>>6;
 12785  003948  6A01               	clrf	??i2_Lcd_Cmd^0,c
 12786  00394A  AE03               	btfss	i2Lcd_Cmd@data^0,7,c
 12787  00394C  D001               	bra	i2u650_45
 12788  00394E  2A01               	incf	??i2_Lcd_Cmd^0,f,c
 12789  003950                     i2u650_45:
 12790  003950  0E01               	movlw	1
 12791  003952  1601               	andwf	??i2_Lcd_Cmd^0,f,c
 12792  003954  3201               	rrcf	??i2_Lcd_Cmd^0,f,c
 12793  003956  3201               	rrcf	??i2_Lcd_Cmd^0,f,c
 12794  003958  5083               	movf	131,w,c	;volatile
 12795  00395A  1801               	xorwf	??i2_Lcd_Cmd^0,w,c
 12796  00395C  0B7F               	andlw	-129
 12797  00395E  1801               	xorwf	??i2_Lcd_Cmd^0,w,c
 12798  003960  6E83               	movwf	131,c	;volatile
 12799  003962  C003  F001         	movff	i2Lcd_Cmd@data,??i2_Lcd_Cmd
 12800  003966  0E06               	movlw	6
 12801  003968  6E02               	movwf	(??i2_Lcd_Cmd+1)^0,c
 12802  00396A                     i2u651_45:
 12803  00396A  90D8               	bcf	status,0,c
 12804  00396C  3201               	rrcf	??i2_Lcd_Cmd^0,f,c
 12805  00396E  2E02               	decfsz	(??i2_Lcd_Cmd+1)^0,f,c
 12806  003970  EFB5  F01C         	goto	i2u651_45
 12807  003974  0E01               	movlw	1
 12808  003976  1601               	andwf	??i2_Lcd_Cmd^0,f,c
 12809  003978  3A01               	swapf	??i2_Lcd_Cmd^0,f,c
 12810  00397A  4601               	rlncf	??i2_Lcd_Cmd^0,f,c
 12811  00397C  4601               	rlncf	??i2_Lcd_Cmd^0,f,c
 12812  00397E  5083               	movf	131,w,c	;volatile
 12813  003980  1801               	xorwf	??i2_Lcd_Cmd^0,w,c
 12814  003982  0BBF               	andlw	-65
 12815  003984  1801               	xorwf	??i2_Lcd_Cmd^0,w,c
 12816  003986  6E83               	movwf	131,c	;volatile
 12817                           
 12818                           ;./lcd.h: 175: PORTDbits.RD5 = (data & 0b00100000)>>5; PORTDbits.RD4 = (data & 0b0001000
      +                          0)>>4;
 12819  003988  C003  F001         	movff	i2Lcd_Cmd@data,??i2_Lcd_Cmd
 12820  00398C  0E05               	movlw	5
 12821  00398E  6E02               	movwf	(??i2_Lcd_Cmd+1)^0,c
 12822  003990                     i2u652_45:
 12823  003990  90D8               	bcf	status,0,c
 12824  003992  3201               	rrcf	??i2_Lcd_Cmd^0,f,c
 12825  003994  2E02               	decfsz	(??i2_Lcd_Cmd+1)^0,f,c
 12826  003996  EFC8  F01C         	goto	i2u652_45
 12827  00399A  0E01               	movlw	1
 12828  00399C  1601               	andwf	??i2_Lcd_Cmd^0,f,c
 12829  00399E  3A01               	swapf	??i2_Lcd_Cmd^0,f,c
 12830  0039A0  4601               	rlncf	??i2_Lcd_Cmd^0,f,c
 12831  0039A2  5083               	movf	131,w,c	;volatile
 12832  0039A4  1801               	xorwf	??i2_Lcd_Cmd^0,w,c
 12833  0039A6  0BDF               	andlw	-33
 12834  0039A8  1801               	xorwf	??i2_Lcd_Cmd^0,w,c
 12835  0039AA  6E83               	movwf	131,c	;volatile
 12836  0039AC  C003  F001         	movff	i2Lcd_Cmd@data,??i2_Lcd_Cmd
 12837  0039B0  3A01               	swapf	??i2_Lcd_Cmd^0,f,c
 12838  0039B2  0E0F               	movlw	15
 12839  0039B4  1601               	andwf	??i2_Lcd_Cmd^0,f,c
 12840  0039B6  0E01               	movlw	1
 12841  0039B8  1601               	andwf	??i2_Lcd_Cmd^0,f,c
 12842  0039BA  3A01               	swapf	??i2_Lcd_Cmd^0,f,c
 12843  0039BC  5083               	movf	131,w,c	;volatile
 12844  0039BE  1801               	xorwf	??i2_Lcd_Cmd^0,w,c
 12845  0039C0  0BEF               	andlw	-17
 12846  0039C2  1801               	xorwf	??i2_Lcd_Cmd^0,w,c
 12847  0039C4  6E83               	movwf	131,c	;volatile
 12848  0039C6                     
 12849                           ;./lcd.h: 176: _delay((unsigned long)((10)*(4000000/4000000.0)));
 12850  0039C6  0E03               	movlw	3
 12851  0039C8                     i2u704_47:
 12852  0039C8  2EE8               	decfsz	wreg,f,c
 12853  0039CA  D7FE               	bra	i2u704_47
 12854  0039CC  F000               	nop	
 12855  0039CE                     
 12856                           ;./lcd.h: 177: PORTDbits.RD3 = 1; _delay((unsigned long)((5)*(4000000/4000000.0))); PORT
      +                          Dbits.RD3 = 0;
 12857  0039CE  8683               	bsf	131,3,c	;volatile
 12858  0039D0  D000               	nop2		;2 cycle nop
 12859  0039D2  D000               	nop2		;2 cycle nop
 12860  0039D4  F000               	nop	
 12861  0039D6  9683               	bcf	131,3,c	;volatile
 12862  0039D8                     
 12863                           ;./lcd.h: 178: PORTDbits.RD7 = (data & 0b00001000)>>3; PORTDbits.RD6 = (data & 0b0000010
      +                          0)>>2;
 12864  0039D8  C003  F001         	movff	i2Lcd_Cmd@data,??i2_Lcd_Cmd
 12865  0039DC  90D8               	bcf	status,0,c
 12866  0039DE  3201               	rrcf	??i2_Lcd_Cmd^0,f,c
 12867  0039E0  90D8               	bcf	status,0,c
 12868  0039E2  3201               	rrcf	??i2_Lcd_Cmd^0,f,c
 12869  0039E4  90D8               	bcf	status,0,c
 12870  0039E6  3201               	rrcf	??i2_Lcd_Cmd^0,f,c
 12871  0039E8  0E01               	movlw	1
 12872  0039EA  1601               	andwf	??i2_Lcd_Cmd^0,f,c
 12873  0039EC  3201               	rrcf	??i2_Lcd_Cmd^0,f,c
 12874  0039EE  3201               	rrcf	??i2_Lcd_Cmd^0,f,c
 12875  0039F0  5083               	movf	131,w,c	;volatile
 12876  0039F2  1801               	xorwf	??i2_Lcd_Cmd^0,w,c
 12877  0039F4  0B7F               	andlw	-129
 12878  0039F6  1801               	xorwf	??i2_Lcd_Cmd^0,w,c
 12879  0039F8  6E83               	movwf	131,c	;volatile
 12880  0039FA  C003  F001         	movff	i2Lcd_Cmd@data,??i2_Lcd_Cmd
 12881  0039FE  90D8               	bcf	status,0,c
 12882  003A00  3201               	rrcf	??i2_Lcd_Cmd^0,f,c
 12883  003A02  90D8               	bcf	status,0,c
 12884  003A04  3201               	rrcf	??i2_Lcd_Cmd^0,f,c
 12885  003A06  0E01               	movlw	1
 12886  003A08  1601               	andwf	??i2_Lcd_Cmd^0,f,c
 12887  003A0A  3A01               	swapf	??i2_Lcd_Cmd^0,f,c
 12888  003A0C  4601               	rlncf	??i2_Lcd_Cmd^0,f,c
 12889  003A0E  4601               	rlncf	??i2_Lcd_Cmd^0,f,c
 12890  003A10  5083               	movf	131,w,c	;volatile
 12891  003A12  1801               	xorwf	??i2_Lcd_Cmd^0,w,c
 12892  003A14  0BBF               	andlw	-65
 12893  003A16  1801               	xorwf	??i2_Lcd_Cmd^0,w,c
 12894  003A18  6E83               	movwf	131,c	;volatile
 12895  003A1A                     
 12896                           ;./lcd.h: 179: PORTDbits.RD5 = (data & 0b00000010)>>1; PORTDbits.RD4 = (data & 0b0000000
      +                          1);
 12897  003A1A  C003  F001         	movff	i2Lcd_Cmd@data,??i2_Lcd_Cmd
 12898  003A1E  90D8               	bcf	status,0,c
 12899  003A20  3201               	rrcf	??i2_Lcd_Cmd^0,f,c
 12900  003A22  0E01               	movlw	1
 12901  003A24  1601               	andwf	??i2_Lcd_Cmd^0,f,c
 12902  003A26  3A01               	swapf	??i2_Lcd_Cmd^0,f,c
 12903  003A28  4601               	rlncf	??i2_Lcd_Cmd^0,f,c
 12904  003A2A  5083               	movf	131,w,c	;volatile
 12905  003A2C  1801               	xorwf	??i2_Lcd_Cmd^0,w,c
 12906  003A2E  0BDF               	andlw	-33
 12907  003A30  1801               	xorwf	??i2_Lcd_Cmd^0,w,c
 12908  003A32  6E83               	movwf	131,c	;volatile
 12909  003A34  C003  F001         	movff	i2Lcd_Cmd@data,??i2_Lcd_Cmd
 12910  003A38  0E01               	movlw	1
 12911  003A3A  1601               	andwf	??i2_Lcd_Cmd^0,f,c
 12912  003A3C  3A01               	swapf	??i2_Lcd_Cmd^0,f,c
 12913  003A3E  5083               	movf	131,w,c	;volatile
 12914  003A40  1801               	xorwf	??i2_Lcd_Cmd^0,w,c
 12915  003A42  0BEF               	andlw	-17
 12916  003A44  1801               	xorwf	??i2_Lcd_Cmd^0,w,c
 12917  003A46  6E83               	movwf	131,c	;volatile
 12918  003A48                     
 12919                           ;./lcd.h: 180: _delay((unsigned long)((10)*(4000000/4000000.0)));;
 12920  003A48  0E03               	movlw	3
 12921  003A4A                     i2u705_47:
 12922  003A4A  2EE8               	decfsz	wreg,f,c
 12923  003A4C  D7FE               	bra	i2u705_47
 12924  003A4E  F000               	nop	
 12925  003A50                     
 12926                           ;./lcd.h: 181: PORTDbits.RD3 = 1; _delay((unsigned long)((5)*(4000000/4000000.0))); PORT
      +                          Dbits.RD3 = 0;
 12927  003A50  8683               	bsf	131,3,c	;volatile
 12928  003A52  D000               	nop2		;2 cycle nop
 12929  003A54  D000               	nop2		;2 cycle nop
 12930  003A56  F000               	nop	
 12931  003A58  9683               	bcf	131,3,c	;volatile
 12932  003A5A                     
 12933                           ;./lcd.h: 182: _delay((unsigned long)((5500)*(4000000/4000000.0)));
 12934  003A5A  0E08               	movlw	8
 12935  003A5C  6E01               	movwf	??i2_Lcd_Cmd^0,c
 12936  003A5E  0E23               	movlw	35
 12937  003A60                     i2u706_47:
 12938  003A60  2EE8               	decfsz	wreg,f,c
 12939  003A62  D7FE               	bra	i2u706_47
 12940  003A64  2E01               	decfsz	??i2_Lcd_Cmd^0,f,c
 12941  003A66  D7FC               	bra	i2u706_47
 12942  003A68  F000               	nop	
 12943  003A6A  0012               	return		;funcret
 12944  003A6C                     __end_ofi2_Lcd_Cmd:
 12945                           	opt callstack 0
 12946                           
 12947 ;; *************** function _Lcd_Chr_CP *****************
 12948 ;; Defined at:
 12949 ;;		line 158 in file "./lcd.h"
 12950 ;; Parameters:    Size  Location     Type
 12951 ;;  data            1    wreg     unsigned char 
 12952 ;; Auto vars:     Size  Location     Type
 12953 ;;  data            1    2[COMRAM] unsigned char 
 12954 ;; Return value:  Size  Location     Type
 12955 ;;                  1    wreg      void 
 12956 ;; Registers used:
 12957 ;;		wreg, status,2, status,0
 12958 ;; Tracked objects:
 12959 ;;		On entry : 0/0
 12960 ;;		On exit  : 0/0
 12961 ;;		Unchanged: 0/0
 12962 ;; Data sizes:     COMRAM   BANK0   BANK1   BANK2   BANK3   BANK4   BANK5   BANK6   BANK7
 12963 ;;      Params:         0       0       0       0       0       0       0       0       0
 12964 ;;      Locals:         1       0       0       0       0       0       0       0       0
 12965 ;;      Temps:          2       0       0       0       0       0       0       0       0
 12966 ;;      Totals:         3       0       0       0       0       0       0       0       0
 12967 ;;Total ram usage:        3 bytes
 12968 ;; Hardware stack levels used:    1
 12969 ;; This function calls:
 12970 ;;		Nothing
 12971 ;; This function is called by:
 12972 ;;		_Lcd_Out
 12973 ;;		_Lcd_Out2
 12974 ;; This function uses a non-reentrant model
 12975 ;;
 12976                           
 12977                           	psect	text59
 12978  0036E8                     __ptext59:
 12979                           	opt callstack 0
 12980  0036E8                     _Lcd_Chr_CP:
 12981                           	opt callstack 23
 12982                           
 12983                           ;incstack = 0
 12984                           ;Lcd_Chr_CP@data stored from wreg
 12985  0036E8  6E03               	movwf	Lcd_Chr_CP@data^0,c
 12986  0036EA                     
 12987                           ;./lcd.h: 159: PORTDbits.RD3 = 0; PORTDbits.RD1 = 1;
 12988  0036EA  9683               	bcf	131,3,c	;volatile
 12989  0036EC  8283               	bsf	131,1,c	;volatile
 12990  0036EE                     
 12991                           ;./lcd.h: 160: PORTDbits.RD7 = (data & 0b10000000)>>7; PORTDbits.RD6 = (data & 0b0100000
      +                          0)>>6;
 12992  0036EE  6A01               	clrf	??_Lcd_Chr_CP^0,c
 12993  0036F0  AE03               	btfss	Lcd_Chr_CP@data^0,7,c
 12994  0036F2  D001               	bra	i2u638_45
 12995  0036F4  2A01               	incf	??_Lcd_Chr_CP^0,f,c
 12996  0036F6                     i2u638_45:
 12997  0036F6  0E01               	movlw	1
 12998  0036F8  1601               	andwf	??_Lcd_Chr_CP^0,f,c
 12999  0036FA  3201               	rrcf	??_Lcd_Chr_CP^0,f,c
 13000  0036FC  3201               	rrcf	??_Lcd_Chr_CP^0,f,c
 13001  0036FE  5083               	movf	131,w,c	;volatile
 13002  003700  1801               	xorwf	??_Lcd_Chr_CP^0,w,c
 13003  003702  0B7F               	andlw	-129
 13004  003704  1801               	xorwf	??_Lcd_Chr_CP^0,w,c
 13005  003706  6E83               	movwf	131,c	;volatile
 13006  003708  C003  F001         	movff	Lcd_Chr_CP@data,??_Lcd_Chr_CP
 13007  00370C  0E06               	movlw	6
 13008  00370E  6E02               	movwf	(??_Lcd_Chr_CP+1)^0,c
 13009  003710                     i2u639_45:
 13010  003710  90D8               	bcf	status,0,c
 13011  003712  3201               	rrcf	??_Lcd_Chr_CP^0,f,c
 13012  003714  2E02               	decfsz	(??_Lcd_Chr_CP+1)^0,f,c
 13013  003716  EF88  F01B         	goto	i2u639_45
 13014  00371A  0E01               	movlw	1
 13015  00371C  1601               	andwf	??_Lcd_Chr_CP^0,f,c
 13016  00371E  3A01               	swapf	??_Lcd_Chr_CP^0,f,c
 13017  003720  4601               	rlncf	??_Lcd_Chr_CP^0,f,c
 13018  003722  4601               	rlncf	??_Lcd_Chr_CP^0,f,c
 13019  003724  5083               	movf	131,w,c	;volatile
 13020  003726  1801               	xorwf	??_Lcd_Chr_CP^0,w,c
 13021  003728  0BBF               	andlw	-65
 13022  00372A  1801               	xorwf	??_Lcd_Chr_CP^0,w,c
 13023  00372C  6E83               	movwf	131,c	;volatile
 13024                           
 13025                           ;./lcd.h: 161: PORTDbits.RD5 = (data & 0b00100000)>>5; PORTDbits.RD4 = (data & 0b0001000
      +                          0)>>4;
 13026  00372E  C003  F001         	movff	Lcd_Chr_CP@data,??_Lcd_Chr_CP
 13027  003732  0E05               	movlw	5
 13028  003734  6E02               	movwf	(??_Lcd_Chr_CP+1)^0,c
 13029  003736                     i2u640_45:
 13030  003736  90D8               	bcf	status,0,c
 13031  003738  3201               	rrcf	??_Lcd_Chr_CP^0,f,c
 13032  00373A  2E02               	decfsz	(??_Lcd_Chr_CP+1)^0,f,c
 13033  00373C  EF9B  F01B         	goto	i2u640_45
 13034  003740  0E01               	movlw	1
 13035  003742  1601               	andwf	??_Lcd_Chr_CP^0,f,c
 13036  003744  3A01               	swapf	??_Lcd_Chr_CP^0,f,c
 13037  003746  4601               	rlncf	??_Lcd_Chr_CP^0,f,c
 13038  003748  5083               	movf	131,w,c	;volatile
 13039  00374A  1801               	xorwf	??_Lcd_Chr_CP^0,w,c
 13040  00374C  0BDF               	andlw	-33
 13041  00374E  1801               	xorwf	??_Lcd_Chr_CP^0,w,c
 13042  003750  6E83               	movwf	131,c	;volatile
 13043  003752  C003  F001         	movff	Lcd_Chr_CP@data,??_Lcd_Chr_CP
 13044  003756  3A01               	swapf	??_Lcd_Chr_CP^0,f,c
 13045  003758  0E0F               	movlw	15
 13046  00375A  1601               	andwf	??_Lcd_Chr_CP^0,f,c
 13047  00375C  0E01               	movlw	1
 13048  00375E  1601               	andwf	??_Lcd_Chr_CP^0,f,c
 13049  003760  3A01               	swapf	??_Lcd_Chr_CP^0,f,c
 13050  003762  5083               	movf	131,w,c	;volatile
 13051  003764  1801               	xorwf	??_Lcd_Chr_CP^0,w,c
 13052  003766  0BEF               	andlw	-17
 13053  003768  1801               	xorwf	??_Lcd_Chr_CP^0,w,c
 13054  00376A  6E83               	movwf	131,c	;volatile
 13055  00376C                     
 13056                           ;./lcd.h: 162: _delay((unsigned long)((10)*(4000000/4000000.0)));
 13057  00376C  0E03               	movlw	3
 13058  00376E                     i2u707_47:
 13059  00376E  2EE8               	decfsz	wreg,f,c
 13060  003770  D7FE               	bra	i2u707_47
 13061  003772  F000               	nop	
 13062  003774                     
 13063                           ;./lcd.h: 163: PORTDbits.RD3 = 1; _delay((unsigned long)((5)*(4000000/4000000.0))); PORT
      +                          Dbits.RD3 = 0;
 13064  003774  8683               	bsf	131,3,c	;volatile
 13065  003776  D000               	nop2		;2 cycle nop
 13066  003778  D000               	nop2		;2 cycle nop
 13067  00377A  F000               	nop	
 13068  00377C  9683               	bcf	131,3,c	;volatile
 13069  00377E                     
 13070                           ;./lcd.h: 164: PORTDbits.RD7 = (data & 0b00001000)>>3; PORTDbits.RD6 = (data & 0b0000010
      +                          0)>>2;
 13071  00377E  C003  F001         	movff	Lcd_Chr_CP@data,??_Lcd_Chr_CP
 13072  003782  90D8               	bcf	status,0,c
 13073  003784  3201               	rrcf	??_Lcd_Chr_CP^0,f,c
 13074  003786  90D8               	bcf	status,0,c
 13075  003788  3201               	rrcf	??_Lcd_Chr_CP^0,f,c
 13076  00378A  90D8               	bcf	status,0,c
 13077  00378C  3201               	rrcf	??_Lcd_Chr_CP^0,f,c
 13078  00378E  0E01               	movlw	1
 13079  003790  1601               	andwf	??_Lcd_Chr_CP^0,f,c
 13080  003792  3201               	rrcf	??_Lcd_Chr_CP^0,f,c
 13081  003794  3201               	rrcf	??_Lcd_Chr_CP^0,f,c
 13082  003796  5083               	movf	131,w,c	;volatile
 13083  003798  1801               	xorwf	??_Lcd_Chr_CP^0,w,c
 13084  00379A  0B7F               	andlw	-129
 13085  00379C  1801               	xorwf	??_Lcd_Chr_CP^0,w,c
 13086  00379E  6E83               	movwf	131,c	;volatile
 13087  0037A0  C003  F001         	movff	Lcd_Chr_CP@data,??_Lcd_Chr_CP
 13088  0037A4  90D8               	bcf	status,0,c
 13089  0037A6  3201               	rrcf	??_Lcd_Chr_CP^0,f,c
 13090  0037A8  90D8               	bcf	status,0,c
 13091  0037AA  3201               	rrcf	??_Lcd_Chr_CP^0,f,c
 13092  0037AC  0E01               	movlw	1
 13093  0037AE  1601               	andwf	??_Lcd_Chr_CP^0,f,c
 13094  0037B0  3A01               	swapf	??_Lcd_Chr_CP^0,f,c
 13095  0037B2  4601               	rlncf	??_Lcd_Chr_CP^0,f,c
 13096  0037B4  4601               	rlncf	??_Lcd_Chr_CP^0,f,c
 13097  0037B6  5083               	movf	131,w,c	;volatile
 13098  0037B8  1801               	xorwf	??_Lcd_Chr_CP^0,w,c
 13099  0037BA  0BBF               	andlw	-65
 13100  0037BC  1801               	xorwf	??_Lcd_Chr_CP^0,w,c
 13101  0037BE  6E83               	movwf	131,c	;volatile
 13102  0037C0                     
 13103                           ;./lcd.h: 165: PORTDbits.RD5 = (data & 0b00000010)>>1; PORTDbits.RD4 = (data & 0b0000000
      +                          1);
 13104  0037C0  C003  F001         	movff	Lcd_Chr_CP@data,??_Lcd_Chr_CP
 13105  0037C4  90D8               	bcf	status,0,c
 13106  0037C6  3201               	rrcf	??_Lcd_Chr_CP^0,f,c
 13107  0037C8  0E01               	movlw	1
 13108  0037CA  1601               	andwf	??_Lcd_Chr_CP^0,f,c
 13109  0037CC  3A01               	swapf	??_Lcd_Chr_CP^0,f,c
 13110  0037CE  4601               	rlncf	??_Lcd_Chr_CP^0,f,c
 13111  0037D0  5083               	movf	131,w,c	;volatile
 13112  0037D2  1801               	xorwf	??_Lcd_Chr_CP^0,w,c
 13113  0037D4  0BDF               	andlw	-33
 13114  0037D6  1801               	xorwf	??_Lcd_Chr_CP^0,w,c
 13115  0037D8  6E83               	movwf	131,c	;volatile
 13116  0037DA  C003  F001         	movff	Lcd_Chr_CP@data,??_Lcd_Chr_CP
 13117  0037DE  0E01               	movlw	1
 13118  0037E0  1601               	andwf	??_Lcd_Chr_CP^0,f,c
 13119  0037E2  3A01               	swapf	??_Lcd_Chr_CP^0,f,c
 13120  0037E4  5083               	movf	131,w,c	;volatile
 13121  0037E6  1801               	xorwf	??_Lcd_Chr_CP^0,w,c
 13122  0037E8  0BEF               	andlw	-17
 13123  0037EA  1801               	xorwf	??_Lcd_Chr_CP^0,w,c
 13124  0037EC  6E83               	movwf	131,c	;volatile
 13125  0037EE                     
 13126                           ;./lcd.h: 166: _delay((unsigned long)((10)*(4000000/4000000.0)));
 13127  0037EE  0E03               	movlw	3
 13128  0037F0                     i2u708_47:
 13129  0037F0  2EE8               	decfsz	wreg,f,c
 13130  0037F2  D7FE               	bra	i2u708_47
 13131  0037F4  F000               	nop	
 13132  0037F6                     
 13133                           ;./lcd.h: 167: PORTDbits.RD3 = 1; _delay((unsigned long)((5)*(4000000/4000000.0))); PORT
      +                          Dbits.RD3 = 0;
 13134  0037F6  8683               	bsf	131,3,c	;volatile
 13135  0037F8  D000               	nop2		;2 cycle nop
 13136  0037FA  D000               	nop2		;2 cycle nop
 13137  0037FC  F000               	nop	
 13138  0037FE  9683               	bcf	131,3,c	;volatile
 13139  003800                     
 13140                           ;./lcd.h: 168: _delay((unsigned long)((5)*(4000000/4000000.0))); _delay((unsigned long)(
      +                          (5500)*(4000000/4000000.0)));
 13141  003800  D000               	nop2		;2 cycle nop
 13142  003802  D000               	nop2		;2 cycle nop
 13143  003804  F000               	nop	
 13144  003806  0E08               	movlw	8
 13145  003808  6E01               	movwf	??_Lcd_Chr_CP^0,c
 13146  00380A  0E23               	movlw	35
 13147  00380C                     i2u709_47:
 13148  00380C  2EE8               	decfsz	wreg,f,c
 13149  00380E  D7FE               	bra	i2u709_47
 13150  003810  2E01               	decfsz	??_Lcd_Chr_CP^0,f,c
 13151  003812  D7FC               	bra	i2u709_47
 13152  003814  F000               	nop	
 13153  003816  0012               	return		;funcret
 13154  003818                     __end_of_Lcd_Chr_CP:
 13155                           	opt callstack 0
 13156                           
 13157 ;; *************** function _ADC_Read *****************
 13158 ;; Defined at:
 13159 ;;		line 18 in file "adc.c"
 13160 ;; Parameters:    Size  Location     Type
 13161 ;;  channel         2    0[COMRAM] int 
 13162 ;; Auto vars:     Size  Location     Type
 13163 ;;  digital         2    6[COMRAM] int 
 13164 ;; Return value:  Size  Location     Type
 13165 ;;                  2    0[COMRAM] int 
 13166 ;; Registers used:
 13167 ;;		wreg, status,2, status,0
 13168 ;; Tracked objects:
 13169 ;;		On entry : 0/0
 13170 ;;		On exit  : 0/0
 13171 ;;		Unchanged: 0/0
 13172 ;; Data sizes:     COMRAM   BANK0   BANK1   BANK2   BANK3   BANK4   BANK5   BANK6   BANK7
 13173 ;;      Params:         2       0       0       0       0       0       0       0       0
 13174 ;;      Locals:         2       0       0       0       0       0       0       0       0
 13175 ;;      Temps:          4       0       0       0       0       0       0       0       0
 13176 ;;      Totals:         8       0       0       0       0       0       0       0       0
 13177 ;;Total ram usage:        8 bytes
 13178 ;; Hardware stack levels used:    1
 13179 ;; This function calls:
 13180 ;;		Nothing
 13181 ;; This function is called by:
 13182 ;;		_INT_EX_0
 13183 ;; This function uses a non-reentrant model
 13184 ;;
 13185                           
 13186                           	psect	text60
 13187  0048A6                     __ptext60:
 13188                           	opt callstack 0
 13189  0048A6                     _ADC_Read:
 13190                           	opt callstack 24
 13191  0048A6                     
 13192                           ;adc.c: 18: int ADC_Read(int channel);adc.c: 19: {;adc.c: 20:     int digital;;adc.c: 21
      +                          :     ADCON0 =(ADCON0 & 0b11000011)|((channel<<2) & 0b00111100);
 13193  0048A6  C001  F003         	movff	ADC_Read@channel,??_ADC_Read
 13194  0048AA  90D8               	bcf	status,0,c
 13195  0048AC  3603               	rlcf	??_ADC_Read^0,f,c
 13196  0048AE  90D8               	bcf	status,0,c
 13197  0048B0  3603               	rlcf	??_ADC_Read^0,f,c
 13198  0048B2  0E3C               	movlw	60
 13199  0048B4  1603               	andwf	??_ADC_Read^0,f,c
 13200  0048B6  50C2               	movf	194,w,c	;volatile
 13201  0048B8  0BC3               	andlw	195
 13202  0048BA  1003               	iorwf	??_ADC_Read^0,w,c
 13203  0048BC  6EC2               	movwf	194,c	;volatile
 13204                           
 13205                           ;adc.c: 24:     ADCON0 |= ((1<<ADON)|(1<<GO));
 13206  0048BE  B2C2               	btfsc	4034,1,c	;volatile
 13207  0048C0  EF64  F024         	goto	i2u659_41
 13208  0048C4  EF68  F024         	goto	i2u659_40
 13209  0048C8                     i2u659_41:
 13210  0048C8  6A03               	clrf	??_ADC_Read^0,c
 13211  0048CA  2A03               	incf	??_ADC_Read^0,f,c
 13212  0048CC  EF69  F024         	goto	i2u660_48
 13213  0048D0                     i2u659_40:
 13214  0048D0  6A03               	clrf	??_ADC_Read^0,c
 13215  0048D2                     i2u660_48:
 13216  0048D2  0E01               	movlw	1
 13217  0048D4  6E04               	movwf	(??_ADC_Read+1)^0,c
 13218  0048D6  2A03               	incf	??_ADC_Read^0,f,c
 13219  0048D8  EF70  F024         	goto	i2u661_44
 13220  0048DC                     i2u661_45:
 13221  0048DC  90D8               	bcf	status,0,c
 13222  0048DE  3604               	rlcf	(??_ADC_Read+1)^0,f,c
 13223  0048E0                     i2u661_44:
 13224  0048E0  2E03               	decfsz	??_ADC_Read^0,f,c
 13225  0048E2  EF6E  F024         	goto	i2u661_45
 13226  0048E6  B0C2               	btfsc	4034,0,c	;volatile
 13227  0048E8  EF78  F024         	goto	i2u662_41
 13228  0048EC  EF7C  F024         	goto	i2u662_40
 13229  0048F0                     i2u662_41:
 13230  0048F0  6A05               	clrf	(??_ADC_Read+2)^0,c
 13231  0048F2  2A05               	incf	(??_ADC_Read+2)^0,f,c
 13232  0048F4  EF7D  F024         	goto	i2u663_48
 13233  0048F8                     i2u662_40:
 13234  0048F8  6A05               	clrf	(??_ADC_Read+2)^0,c
 13235  0048FA                     i2u663_48:
 13236  0048FA  0E01               	movlw	1
 13237  0048FC  6E06               	movwf	(??_ADC_Read+3)^0,c
 13238  0048FE  2A05               	incf	(??_ADC_Read+2)^0,f,c
 13239  004900  EF84  F024         	goto	i2u664_44
 13240  004904                     i2u664_45:
 13241  004904  90D8               	bcf	status,0,c
 13242  004906  3606               	rlcf	(??_ADC_Read+3)^0,f,c
 13243  004908                     i2u664_44:
 13244  004908  2E05               	decfsz	(??_ADC_Read+2)^0,f,c
 13245  00490A  EF82  F024         	goto	i2u664_45
 13246  00490E  5006               	movf	(??_ADC_Read+3)^0,w,c
 13247  004910  1004               	iorwf	(??_ADC_Read+1)^0,w,c
 13248  004912  12C2               	iorwf	194,f,c	;volatile
 13249  004914                     i2l301:
 13250  004914  B2C2               	btfsc	194,1,c	;volatile
 13251  004916  EF8F  F024         	goto	i2u665_41
 13252  00491A  EF91  F024         	goto	i2u665_40
 13253  00491E                     i2u665_41:
 13254  00491E  EF8A  F024         	goto	i2l301
 13255  004922                     i2u665_40:
 13256  004922                     
 13257                           ;adc.c: 29:    digital = (ADRESH*256) | (ADRESL);
 13258  004922  50C3               	movf	195,w,c	;volatile
 13259  004924  CFC4 F003          	movff	4036,??_ADC_Read	;volatile
 13260  004928  6A04               	clrf	(??_ADC_Read+1)^0,c
 13261  00492A  C003  F004         	movff	??_ADC_Read,??_ADC_Read+1
 13262  00492E  6A03               	clrf	??_ADC_Read^0,c
 13263  004930  1003               	iorwf	??_ADC_Read^0,w,c
 13264  004932  6E07               	movwf	ADC_Read@digital^0,c
 13265  004934  5004               	movf	(??_ADC_Read+1)^0,w,c
 13266  004936  6E08               	movwf	(ADC_Read@digital+1)^0,c
 13267  004938                     
 13268                           ;adc.c: 32:     return(digital);
 13269  004938  C007  F001         	movff	ADC_Read@digital,?_ADC_Read
 13270  00493C  C008  F002         	movff	ADC_Read@digital+1,?_ADC_Read+1
 13271  004940  0012               	return		;funcret
 13272  004942                     __end_of_ADC_Read:
 13273                           	opt callstack 0
 13274                           
 13275                           	psect	rparam
 13276  0000                     
 13277                           	psect	temp
 13278  00005F                     btemp:
 13279                           	opt callstack 0
 13280  00005F                     	ds	1
 13281  0000                     int$flags	set	btemp
 13282  0000                     wtemp8	set	btemp+1
 13283  0000                     ttemp5	set	btemp+1
 13284  0000                     ttemp6	set	btemp+4
 13285  0000                     ttemp7	set	btemp+8
 13286                           tosu	equ	0xFFF
 13287                           tosh	equ	0xFFE
 13288                           tosl	equ	0xFFD
 13289                           stkptr	equ	0xFFC
 13290                           pclatu	equ	0xFFB
 13291                           pclath	equ	0xFFA
 13292                           pcl	equ	0xFF9
 13293                           tblptru	equ	0xFF8
 13294                           tblptrh	equ	0xFF7
 13295                           tblptrl	equ	0xFF6
 13296                           tablat	equ	0xFF5
 13297                           prodh	equ	0xFF4
 13298                           prodl	equ	0xFF3
 13299                           indf0	equ	0xFEF
 13300                           postinc0	equ	0xFEE
 13301                           postdec0	equ	0xFED
 13302                           preinc0	equ	0xFEC
 13303                           plusw0	equ	0xFEB
 13304                           fsr0h	equ	0xFEA
 13305                           fsr0l	equ	0xFE9
 13306                           wreg	equ	0xFE8
 13307                           indf1	equ	0xFE7
 13308                           postinc1	equ	0xFE6
 13309                           postdec1	equ	0xFE5
 13310                           preinc1	equ	0xFE4
 13311                           plusw1	equ	0xFE3
 13312                           fsr1h	equ	0xFE2
 13313                           fsr1l	equ	0xFE1
 13314                           bsr	equ	0xFE0
 13315                           indf2	equ	0xFDF
 13316                           postinc2	equ	0xFDE
 13317                           postdec2	equ	0xFDD
 13318                           preinc2	equ	0xFDC
 13319                           plusw2	equ	0xFDB
 13320                           fsr2h	equ	0xFDA
 13321                           fsr2l	equ	0xFD9
 13322                           status	equ	0xFD8


Data Sizes:
    Strings     52
    Constant    0
    Data        4
    BSS         102
    Persistent  0
    Stack       0

Auto Spaces:
    Space          Size  Autos    Used
    COMRAM           94     92      94
    BANK0           160    136     156
    BANK1           256     49     133
    BANK2           256      0       0
    BANK3           256      0       0
    BANK4           256      0       0
    BANK5           256      0       0
    BANK6           256      0       0
    BANK7           256      0       0

Pointer List with Targets:

    strncmp@_r	PTR const unsigned char  size(2) Largest target is 3
		 -> STR_16(CODE[3]), 

    strncmp@r	PTR const unsigned char  size(2) Largest target is 3
		 -> STR_16(CODE[3]), 

    strncmp@_l	PTR const unsigned char  size(2) Largest target is 3
		 -> vfpfcnvrt@ct(BANK0[3]), 

    strncmp@l	PTR const unsigned char  size(2) Largest target is 3
		 -> vfpfcnvrt@ct(BANK0[3]), 

    strlen@s	PTR const unsigned char  size(2) Largest target is 80
		 -> dbuf(BANK1[80]), INT_EX_0@data(BANK0[10]), 

    strlen@a	PTR const unsigned char  size(2) Largest target is 80
		 -> dbuf(BANK1[80]), INT_EX_0@data(BANK0[10]), 

    strcpy@dest	PTR unsigned char  size(2) Largest target is 80
		 -> dbuf(BANK1[80]), INT_EX_0@data(BANK0[10]), 

    strcpy@d	PTR unsigned char  size(2) Largest target is 80
		 -> dbuf(BANK1[80]), INT_EX_0@data(BANK0[10]), 

    strcpy@src	PTR const unsigned char  size(2) Largest target is 80
		 -> STR_11(CODE[4]), STR_10(CODE[4]), STR_7(CODE[4]), STR_6(CODE[4]), 
		 -> dbuf(BANK1[80]), STR_2(CODE[2]), 

    strcpy@s	PTR const unsigned char  size(2) Largest target is 80
		 -> STR_11(CODE[4]), STR_10(CODE[4]), STR_7(CODE[4]), STR_6(CODE[4]), 
		 -> dbuf(BANK1[80]), STR_2(CODE[2]), 

    strcat@src	PTR const unsigned char  size(2) Largest target is 2
		 -> STR_2(CODE[2]), 

    strcat@dest	PTR unsigned char  size(2) Largest target is 10
		 -> INT_EX_0@data(BANK0[10]), 

    sprintf@fmt	PTR const unsigned char  size(2) Largest target is 5
		 -> STR_5(CODE[3]), STR_1(CODE[5]), 

    sprintf@s	PTR unsigned char  size(2) Largest target is 10
		 -> INT_EX_0@temp(BANK0[10]), INT_EX_0@data(BANK0[10]), 

    sprintf@ap	PTR void [1] size(2) Largest target is 2
		 -> ?_sprintf(BANK0[2]), 

    f.buffer	PTR unsigned char  size(2) Largest target is 10
		 -> INT_EX_0@temp(BANK0[10]), INT_EX_0@data(BANK0[10]), 

    fputs@s	PTR const unsigned char  size(2) Largest target is 80
		 -> dbuf(BANK1[80]), 

    fputs@fp	PTR struct _IO_FILE size(2) Largest target is 7
		 -> sprintf@f(BANK0[6]), 

    S1531_IO_FILE$buffer	PTR unsigned char  size(2) Largest target is 10
		 -> INT_EX_0@temp(BANK0[10]), INT_EX_0@data(BANK0[10]), 

    fputc@fp.buffer	PTR unsigned char  size(2) Largest target is 10
		 -> INT_EX_0@temp(BANK0[10]), INT_EX_0@data(BANK0[10]), 

    fputc@fp	PTR struct _IO_FILE size(2) Largest target is 7
		 -> sprintf@f(BANK0[6]), 

    atoi@s	PTR const unsigned char  size(2) Largest target is 5
		 -> STR_5(CODE[3]), STR_1(CODE[5]), 

    vfprintf@ap	PTR PTR void  size(2) Largest target is 2
		 -> sprintf@ap(BANK0[2]), 

    vfprintf@fp	PTR struct _IO_FILE size(2) Largest target is 7
		 -> sprintf@f(BANK0[6]), 

    vfprintf@fmt	PTR const unsigned char  size(2) Largest target is 5
		 -> STR_5(CODE[3]), STR_1(CODE[5]), 

    vfprintf@cfmt	PTR unsigned char  size(2) Largest target is 5
		 -> STR_5(CODE[3]), STR_1(CODE[5]), 

    vfpfcnvrt@fp	PTR struct _IO_FILE size(2) Largest target is 7
		 -> sprintf@f(BANK0[6]), 

    vfpfcnvrt@ap	PTR PTR void  size(2) Largest target is 2
		 -> sprintf@ap(BANK0[2]), 

    vfpfcnvrt@fmt	PTR PTR unsigned char  size(2) Largest target is 2
		 -> vfprintf@cfmt(COMRAM[2]), 

    efgtoa@fp	PTR struct _IO_FILE size(2) Largest target is 7
		 -> sprintf@f(BANK0[6]), 

    sp__strcpy	PTR unsigned char  size(2) Largest target is 80
		 -> dbuf(BANK1[80]), INT_EX_0@data(BANK0[10]), 

    dtoa@fp	PTR struct _IO_FILE size(2) Largest target is 7
		 -> sprintf@f(BANK0[6]), 

    pad@fp	PTR struct _IO_FILE size(2) Largest target is 7
		 -> sprintf@f(BANK0[6]), 

    pad@buf	PTR unsigned char  size(2) Largest target is 80
		 -> dbuf(BANK1[80]), 

    sp__strcat	PTR unsigned char  size(2) Largest target is 10
		 -> INT_EX_0@data(BANK0[10]), 

    Lcd_Out2@buffer	PTR unsigned char  size(2) Largest target is 10
		 -> INT_EX_0@temp(BANK0[10]), STR_3(CODE[10]), INT_EX_0@data(BANK0[10]), 

    Lcd_Out@buffer	PTR const unsigned char  size(2) Largest target is 13
		 -> STR_4(CODE[13]), 


Critical Paths under _main in COMRAM

    None.

Critical Paths under _INT_EXT_1 in COMRAM

    None.

Critical Paths under _INT_EX_0 in COMRAM

    _strcat->_strcpy
    _sprintf->_vfprintf
    _vfprintf->_vfpfcnvrt
    _vfpfcnvrt->_efgtoa
    _efgtoa->___flge
    _tolower->_isupper
    _strcpy->_strlen
    _floorf->___fldiv
    ___fltol->___flmul
    ___flsub->___flmul
    ___flmul->___fldiv
    ___flge->___flmul
    _dtoa->_pad
    _pad->_fputs
    _fputs->_fputc
    _abs->___aomod
    _atoi->_isspace
    _Lcd_Out2->_Lcd_Chr_CP
    _Lcd_Out2->i2_Lcd_Cmd
    _Lcd_Out->_Lcd_Chr_CP
    _Lcd_Out->i2_Lcd_Cmd

Critical Paths under _main in BANK0

    None.

Critical Paths under _INT_EXT_1 in BANK0

    None.

Critical Paths under _INT_EX_0 in BANK0

    _INT_EX_0->_sprintf
    _vfprintf->_vfpfcnvrt
    _vfpfcnvrt->_efgtoa

Critical Paths under _main in BANK1

    _main->_Dutty_Pwm
    _Lcd_Init->_Lcd_Cmd
    _Dutty_Pwm->_mostrar_dec
    _mostrar_inc->___lwdiv
    _mostrar_dec->_PWM_generar
    _PWM_generar->___lldiv

Critical Paths under _INT_EXT_1 in BANK1

    None.

Critical Paths under _INT_EX_0 in BANK1

    None.

Critical Paths under _main in BANK2

    None.

Critical Paths under _INT_EXT_1 in BANK2

    None.

Critical Paths under _INT_EX_0 in BANK2

    None.

Critical Paths under _main in BANK3

    None.

Critical Paths under _INT_EXT_1 in BANK3

    None.

Critical Paths under _INT_EX_0 in BANK3

    None.

Critical Paths under _main in BANK4

    None.

Critical Paths under _INT_EXT_1 in BANK4

    None.

Critical Paths under _INT_EX_0 in BANK4

    None.

Critical Paths under _main in BANK5

    None.

Critical Paths under _INT_EXT_1 in BANK5

    None.

Critical Paths under _INT_EX_0 in BANK5

    None.

Critical Paths under _main in BANK6

    None.

Critical Paths under _INT_EXT_1 in BANK6

    None.

Critical Paths under _INT_EX_0 in BANK6

    None.

Critical Paths under _main in BANK7

    None.

Critical Paths under _INT_EXT_1 in BANK7

    None.

Critical Paths under _INT_EX_0 in BANK7

    None.

Call Graph Tables:

 ---------------------------------------------------------------------------------
 (Depth) Function   	        Calls       Base Space   Used Autos Params    Refs
 ---------------------------------------------------------------------------------
 (0) _main                                                 5     5      0    7972
                                             48 BANK1      1     1      0
                           _ADC_Init
                          _Dutty_Pwm
                            _Lcd_Cmd
                           _Lcd_Init
                             _declet
                     _eeprom_guardar
                        _eeprom_leer
 ---------------------------------------------------------------------------------
 (1) _eeprom_leer                                          2     0      2     148
                                              1 BANK1      2     0      2
 ---------------------------------------------------------------------------------
 (1) _eeprom_guardar                                       3     0      3     448
                                              1 BANK1      3     0      3
 ---------------------------------------------------------------------------------
 (1) _declet                                               0     0      0       0
 ---------------------------------------------------------------------------------
 (1) _Lcd_Init                                             2     2      0     314
                                              4 BANK1      2     2      0
                            _Lcd_Cmd
 ---------------------------------------------------------------------------------
 (2) _Lcd_Cmd                                              3     3      0     176
                                              1 BANK1      3     3      0
 ---------------------------------------------------------------------------------
 (1) _Dutty_Pwm                                            8     4      4    6886
                                             40 BANK1      8     4      4
                        _PWM_generar
                            _delay_s
                        _mostrar_dec
                        _mostrar_inc
 ---------------------------------------------------------------------------------
 (2) _mostrar_inc                                          6     4      2    1004
                                              8 BANK1      6     4      2
                            ___lwdiv
                            _segment
 ---------------------------------------------------------------------------------
 (3) _segment                                              2     0      2     296
                                              1 BANK1      2     0      2
 ---------------------------------------------------------------------------------
 (2) _mostrar_dec                                          6     4      2    3078
                                             34 BANK1      6     4      2
                        _PWM_generar
                            ___lwdiv
                           _segment2
 ---------------------------------------------------------------------------------
 (3) _segment2                                             2     0      2     296
                                              1 BANK1      2     0      2
 ---------------------------------------------------------------------------------
 (3) ___lwdiv                                              7     3      4     466
                                              1 BANK1      7     3      4
 ---------------------------------------------------------------------------------
 (3) _PWM_generar                                         20    16      4    2008
                                             14 BANK1     20    16      4
                            ___lldiv
                             ___lmul
 ---------------------------------------------------------------------------------
 (4) ___lmul                                              12     4      8     370
                                              1 BANK1     12     4      8
 ---------------------------------------------------------------------------------
 (4) ___lldiv                                             13     5      8     466
                                              1 BANK1     13     5      8
 ---------------------------------------------------------------------------------
 (2) _delay_s                                              4     2      2     175
                                              1 BANK1      4     2      2
 ---------------------------------------------------------------------------------
 (1) _ADC_Init                                             0     0      0       0
 ---------------------------------------------------------------------------------
 Estimated maximum stack depth 4
 ---------------------------------------------------------------------------------
 (Depth) Function   	        Calls       Base Space   Used Autos Params    Refs
 ---------------------------------------------------------------------------------
 (5) _INT_EXT_1                                            1     1      0       0
                                              0 BANK1      1     1      0
 ---------------------------------------------------------------------------------
 Estimated maximum stack depth 5
 ---------------------------------------------------------------------------------
 (Depth) Function   	        Calls       Base Space   Used Autos Params    Refs
 ---------------------------------------------------------------------------------
 (6) _INT_EX_0                                            44    44      0   43558
                                             94 BANK0     42    42      0
                           _ADC_Read
                            _Lcd_Out
                           _Lcd_Out2
                            ___fldiv
                            ___flmul
                            ___fltol
                           ___xxtofl
                            _sprintf
                             _strcat
                          i2_Lcd_Cmd
                   i2_eeprom_guardar
                      i2_eeprom_leer
 ---------------------------------------------------------------------------------
 (7) i2_eeprom_leer                                        2     0      2      48
                                              0 COMRAM     2     0      2
 ---------------------------------------------------------------------------------
 (7) i2_eeprom_guardar                                     3     0      3      96
                                              0 COMRAM     3     0      3
 ---------------------------------------------------------------------------------
 (7) _strcat                                               4     0      4    1474
                                             14 COMRAM     4     0      4
                             _strcpy
                             _strlen
 ---------------------------------------------------------------------------------
 (7) _sprintf                                             18    10      8   34058
                                             76 BANK0     18    10      8
                           _vfprintf
 ---------------------------------------------------------------------------------
 (8) _vfprintf                                             8     2      6   33547
                                             84 COMRAM     8     2      6
                          _vfpfcnvrt
 ---------------------------------------------------------------------------------
 (9) _vfpfcnvrt                                           48    42      6   33171
                                             74 COMRAM    10     4      6
                                             56 BANK0     20    20      0
                               _atoi
                               _dtoa
                             _efgtoa
                              _fputc
                            _isdigit
                            _isupper
                            _strncmp
                            _tolower
 ---------------------------------------------------------------------------------
 (10) _strncmp                                            11     5      6     453
                                              0 COMRAM    11     5      6
 ---------------------------------------------------------------------------------
 (10) _efgtoa                                             68    61      7   22529
                                             62 COMRAM    12     5      7
                                              0 BANK0     56    56      0
                            ___awdiv
                            ___awmod
                            ___fladd
                            ___fldiv
                             ___fleq
                             ___flge
                            ___flmul
                            ___flneg
                            ___flsub
                            ___fltol
                      ___fpclassifyf
                             _floorf
                            _isupper
                                _pad
                             _strcpy
                            _tolower
 ---------------------------------------------------------------------------------
 (10) _tolower                                             8     6      2     944
                                              6 COMRAM     8     6      2
                            _isupper
 ---------------------------------------------------------------------------------
 (11) _isupper                                             6     4      2     465
                                              0 COMRAM     6     4      2
 ---------------------------------------------------------------------------------
 (8) _strcpy                                              10     6      4    1008
                                              4 COMRAM    10     6      4
                             _strlen (ARG)
 ---------------------------------------------------------------------------------
 (11) _floorf                                             20    16      4     490
                                             25 COMRAM    20    16      4
                            ___fldiv (ARG)
 ---------------------------------------------------------------------------------
 (11) ___fpclassifyf                                      14    10      4     287
                                              0 COMRAM    14    10      4
 ---------------------------------------------------------------------------------
 (11) ___fltol                                            10     6      4     457
                                             50 COMRAM    10     6      4
                            ___fldiv (ARG)
                            ___flmul (ARG)
 ---------------------------------------------------------------------------------
 (11) ___flsub                                             8     0      8    2889
                                             50 COMRAM     8     0      8
                            ___fladd
                            ___flmul (ARG)
 ---------------------------------------------------------------------------------
 (12) ___fladd                                            16     8      8    2414
                                              0 COMRAM    16     8      8
 ---------------------------------------------------------------------------------
 (11) ___flneg                                             4     0      4     121
                                              0 COMRAM     4     0      4
 ---------------------------------------------------------------------------------
 (11) ___flmul                                            25    17      8    2656
                                             25 COMRAM    25    17      8
                            ___fldiv (ARG)
                           ___xxtofl (ARG)
 ---------------------------------------------------------------------------------
 (11) ___flge                                             12     4      8     638
                                             50 COMRAM    12     4      8
                            ___flmul (ARG)
 ---------------------------------------------------------------------------------
 (11) ___fleq                                             12     4      8     646
                                              0 COMRAM    12     4      8
 ---------------------------------------------------------------------------------
 (11) ___fldiv                                            25    17      8    2159
                                              0 COMRAM    25    17      8
 ---------------------------------------------------------------------------------
 (11) ___awmod                                             6     2      4     448
                                              0 COMRAM     6     2      4
 ---------------------------------------------------------------------------------
 (11) ___awdiv                                             8     4      4     452
                                              0 COMRAM     8     4      4
 ---------------------------------------------------------------------------------
 (10) _dtoa                                               36    26     10    5118
                                             27 COMRAM    36    26     10
                            ___aodiv
                            ___aomod
                                _abs
                                _pad
 ---------------------------------------------------------------------------------
 (11) _pad                                                11     5      6    3469
                                             16 COMRAM    11     5      6
                              _fputc
                              _fputs
                             _strlen
 ---------------------------------------------------------------------------------
 (8) _strlen                                               4     2      2     242
                                              0 COMRAM     4     2      2
 ---------------------------------------------------------------------------------
 (12) _fputs                                               7     3      4    1235
                                              9 COMRAM     7     3      4
                              _fputc
 ---------------------------------------------------------------------------------
 (10) _fputc                                               9     5      4     834
                                              0 COMRAM     9     5      4
                              _putch
 ---------------------------------------------------------------------------------
 (11) _putch                                               1     1      0       0
 ---------------------------------------------------------------------------------
 (11) _abs                                                 4     2      2     142
                                             18 COMRAM     4     2      2
                            ___aomod (ARG)
 ---------------------------------------------------------------------------------
 (11) ___aomod                                            18     2     16     448
                                              0 COMRAM    18     2     16
 ---------------------------------------------------------------------------------
 (11) ___aodiv                                            26    10     16     452
                                              0 COMRAM    26    10     16
 ---------------------------------------------------------------------------------
 (10) _atoi                                               15    13      2    1244
                                              7 COMRAM    15    13      2
                             ___wmul
                            _isdigit
                            _isspace
 ---------------------------------------------------------------------------------
 (11) _isspace                                             7     5      2     207
                                              0 COMRAM     7     5      2
 ---------------------------------------------------------------------------------
 (10) _isdigit                                             6     4      2     237
                                              0 COMRAM     6     4      2
 ---------------------------------------------------------------------------------
 (11) ___wmul                                              6     2      4     403
                                              0 COMRAM     6     2      4
 ---------------------------------------------------------------------------------
 (7) ___xxtofl                                            14    10      4     398
                                              0 COMRAM    14    10      4
 ---------------------------------------------------------------------------------
 (7) _Lcd_Out2                                             7     4      3     989
                                              3 COMRAM     7     4      3
                         _Lcd_Chr_CP
                          i2_Lcd_Cmd
 ---------------------------------------------------------------------------------
 (7) _Lcd_Out                                              7     4      3     685
                                              3 COMRAM     7     4      3
                         _Lcd_Chr_CP
                          i2_Lcd_Cmd
 ---------------------------------------------------------------------------------
 (7) i2_Lcd_Cmd                                            3     3      0     176
                                              0 COMRAM     3     3      0
 ---------------------------------------------------------------------------------
 (8) _Lcd_Chr_CP                                           3     3      0     176
                                              0 COMRAM     3     3      0
 ---------------------------------------------------------------------------------
 (7) _ADC_Read                                             8     6      2     121
                                              0 COMRAM     8     6      2
 ---------------------------------------------------------------------------------
 Estimated maximum stack depth 12
 ---------------------------------------------------------------------------------

 Call Graph Graphs:

 _main (ROOT)
   _ADC_Init
   _Dutty_Pwm
     _PWM_generar
       ___lldiv
       ___lmul
     _delay_s
     _mostrar_dec
       _PWM_generar
         ___lldiv
         ___lmul
       ___lwdiv
       _segment2
     _mostrar_inc
       ___lwdiv
       _segment
   _Lcd_Cmd
   _Lcd_Init
     _Lcd_Cmd
   _declet
   _eeprom_guardar
   _eeprom_leer

 _INT_EXT_1 (ROOT)

 _INT_EX_0 (ROOT)
   _ADC_Read
   _Lcd_Out
     _Lcd_Chr_CP
     i2_Lcd_Cmd
   _Lcd_Out2
     _Lcd_Chr_CP
     i2_Lcd_Cmd
   ___fldiv
   ___flmul
     ___fldiv (ARG)
     ___xxtofl (ARG)
   ___fltol
     ___fldiv (ARG)
     ___flmul (ARG)
       ___fldiv (ARG)
       ___xxtofl (ARG)
   ___xxtofl
   _sprintf
     _vfprintf
       _vfpfcnvrt
         _atoi
           ___wmul
           _isdigit
           _isspace
         _dtoa
           ___aodiv
           ___aomod
           _abs
             ___aomod (ARG)
           _pad
             _fputc
               _putch
             _fputs
               _fputc
                 _putch
             _strlen
         _efgtoa
           ___awdiv
           ___awmod
           ___fladd
           ___fldiv
           ___fleq
           ___flge
             ___flmul (ARG)
               ___fldiv (ARG)
               ___xxtofl (ARG)
           ___flmul
             ___fldiv (ARG)
             ___xxtofl (ARG)
           ___flneg
           ___flsub
             ___fladd
             ___flmul (ARG)
               ___fldiv (ARG)
               ___xxtofl (ARG)
           ___fltol
             ___fldiv (ARG)
             ___flmul (ARG)
               ___fldiv (ARG)
               ___xxtofl (ARG)
           ___fpclassifyf
           _floorf
             ___fldiv (ARG)
           _isupper
           _pad
             _fputc
               _putch
             _fputs
               _fputc
                 _putch
             _strlen
           _strcpy
             _strlen (ARG)
           _tolower
             _isupper
         _fputc
           _putch
         _isdigit
         _isupper
         _strncmp
         _tolower
           _isupper
   _strcat
     _strcpy
       _strlen (ARG)
     _strlen
   i2_Lcd_Cmd
   i2_eeprom_guardar
   i2_eeprom_leer

 Address spaces:
Name               Size   Autos  Total    Cost      Usage
BIGRAM             7FF      0       0      21        0.0%
EEDATA             100      0       0       0        0.0%
BITBANK7           100      0       0      19        0.0%
BANK7              100      0       0      20        0.0%
BITBANK6           100      0       0      17        0.0%
BANK6              100      0       0      18        0.0%
BITBANK5           100      0       0      15        0.0%
BANK5              100      0       0      16        0.0%
BITBANK4           100      0       0      13        0.0%
BANK4              100      0       0      14        0.0%
BITBANK3           100      0       0      11        0.0%
BANK3              100      0       0      12        0.0%
BITBANK2           100      0       0       9        0.0%
BANK2              100      0       0      10        0.0%
BITBANK1           100      0       0       7        0.0%
BANK1              100     31      85       8       52.0%
BITBANK0            A0      0       0       4        0.0%
BANK0               A0     88      9C       5       97.5%
BITCOMRAM           5E      0       0       0        0.0%
COMRAM              5E     5C      5E       1      100.0%
BITSFR_1             0      0       0     200        0.0%
SFR_1                0      0       0     200        0.0%
BITSFR               0      0       0     200        0.0%
SFR                  0      0       0     200        0.0%
STACK                0      0       0       2        0.0%
NULL                 0      0       0       0        0.0%
ABS                  0      0     17F       6        0.0%
DATA                 0      0     17F       3        0.0%
CODE                 0      0       0       0        0.0%


Microchip Technology PIC18 Macro Assembler V2.10 build 88905656 
Symbol Table                                                                                   Tue May 18 13:32:44 2021

             ___fldiv@aexp 0019               ___fldiv@bexp 0018               ___fldiv@sign 0011  
                       l45 38A0                         l46 38EE                         l47 3940  
                       l79 36E6                         _GO 007E11               ___awdiv@sign 0006  
                       bsr 000FE0        ___wmul@multiplicand 0003               __CFG_CP0$OFF 000000  
             __CFG_CP1$OFF 000000               __CFG_CP2$OFF 000000               __CFG_CP3$OFF 000000  
        PWM_generar@PR2cal 016A                        l206 43CA                        l222 3B8C  
                      l320 4EEE                        l146 2D74                        l250 3CAE  
                      l323 4F86                        l244 3CAE                        l228 3B8C  
                      l253 4CDE                        l317 4EDC                        l319 4EEA  
                      l256 4DD0                        l266 4098                        l259 4DE4  
                      l542 4A12                        l198 4A8C                        l543 4A22  
                      l298 4F78                        l565 4800                        l558 47F0  
                      _CEN 0183               __CFG_CPB$OFF 000000                        _PR2 000FBB  
             __CFG_CPD$OFF 000000          eeprom_guardar@DIR 0151                        _abs 4D6A  
                      _pad 4490               ___awmod@sign 0006                        wreg 000FE8  
             ___flmul@aexp 002B               ___flmul@bexp 002C               ___flmul@sign 0026  
             ___flmul@temp 0031               ___flmul@prod 002D               __CFG_LVP$OFF 000000  
             ___fltol@exp1 003C                       l1022 49AE                       ?_abs 0013  
                     l1029 49B6                       l5001 3CA6                       l5111 496E  
                     l5103 4942                       l5121 49A2                       l5113 497C  
                     l5105 494C                       l5201 4A80                       l5123 49A8  
                     l5115 4982                       l5107 495E                       l5211 4354  
                     l5203 4306                       l5131 3648                       l5117 4998  
                     l5109 4966                       l5221 439E                       l5213 435C  
                     l5205 4324                       l5141 3696                       l5133 364A  
                     l5125 35BC                       l5301 3838                       l5231 4DAE  
                     l5119 49A0                       l5223 43A4                       l5215 4374  
                     l5207 432E                       l5151 36D4                       l5143 36B0  
                     l5135 3650                       l5127 35C0                       l5311 387A  
                     l5303 383A                       l5233 4DC8                       l5217 4388  
                     l5225 43B4                       l5209 4342                       l5153 36D6  
                     l5145 36C4                       l5137 3652                       l5129 3640  
                     l5321 38DA                       l5313 388A                       l5305 384A  
                     l5401 4F82                       l5227 43C6                       l5219 439A  
                     l5147 36CC                       l5139 3676                       l5331 392E  
                     l5323 3918                       l5307 385A                       l5403 4F84  
                     l5229 4DAA                       l5149 36CE                       l5333 3934  
                     l5325 3928                       l5309 386A                       ?_pad 0011  
                     l5191 4A4C                       l5335 3934                       l5327 3928  
                     l5319 38CA                       l5431 4C9A                       l5193 4A5E  
                     l5337 393A                       l5329 392E                       l5281 3824  
                     l5273 3818                       l5433 4CDC                       l5435 4F68  
                     l5195 4A66                       l5187 4A24                       l5451 400A  
                     l5443 3FCA                       l5339 393A                       l5291 382E  
                     l5283 3826                       l5275 381E                       l4901 2C5E  
                     l5197 4A78                       l5189 4A42                       l5461 4046  
                     l5453 4026                       l5445 3FEA                       l5437 3FB8  
                     l5293 3830                       l5285 3828                       l5277 3820  
                     l5621 4572                       l5613 4552                       l4911 2D2A  
                     l4903 2C8E                       l5199 4A7C                       l5471 4094  
                     l5463 405A                       l5447 3FF8                       l5295 3832  
                     l5287 382A                       l5279 3822                       l5631 45E4  
                     l5623 4578                       l5615 4560                       l4921 2D70  
                     l4913 2D2E                       l4905 2CF6                       l5465 4066  
                     l5449 4004                       l5297 3834                       l5289 382C  
                     l5393 4EC4                       l5625 45A4                       l5617 4568  
                     l4851 49D8                       l4915 2D34                       l4907 2CFE  
                     l4931 3AA4                       l4923 3A6C                       l5467 4072  
                     l5459 403A                       l5299 3836                       l5395 4ED2  
                     l5627 45B8                       l5619 456C                       l4861 4784  
                     l4853 49E8                       l4917 2D6A                       l4909 2D08  
                     l4941 3AF0                       l4933 3AB8                       l4925 3A80  
                     l5469 4078                       l5397 4EDA                       l5629 45D2  
                     l4871 47CE                       l4863 478C                       l4855 49F2  
                     l4847 49B8                       l4919 2D6E                       l4951 3B30  
                     l4943 3AF8                       l4935 3AC0                       l4927 3A88  
                     l5399 4F7A                       l4873 47DE                       l4865 4798  
                     l4857 475C                       l4849 49CA                       l4881 2B36  
                     l4961 3B7C                       l4953 3B44                       l4945 3B0C  
                     l4937 3AD4                       l4929 3A9C                       l4875 47E0  
                     l4867 47A6                       l4859 476E                       l4891 2BE4  
                     l4883 2B56                       l4971 3BCE                       l4963 3B8E  
                     l4955 3B4C                       l4947 3B14                       l4939 3ADC  
                     l4877 47EA                       l4869 47B0                       l4893 2C1A  
                     l4885 2B86                       l4981 3C1A                       l4973 3BE2  
                     l4965 3BA2                       l4957 3B60                       l4949 3B28  
                     l4895 2C34                       l4887 2BBE                       l4879 2B34  
                     l4991 3C5A                       l4983 3C22                       l4975 3BEA  
                     l4967 3BB2                       l4959 3B68                       l4897 2C3E  
                     l4889 2BC6                       l4993 3C6E                       l4985 3C36  
                     l4977 3BFE                       l4969 3BC6                       _CEN2 0181  
                     l4899 2C42                       l4995 3C76                       l4987 3C3E  
                     l4979 3C06                       l4997 3C8A                       l4989 3C52  
                     l4999 3C92                       _ADON 007E10                       STR_1 0818  
                     STR_2 0833                       STR_3 080E                       STR_4 0801  
                     STR_5 0830                       STR_6 081D                       STR_7 0825  
                     _LATA 000F89                       _LATB 000F8A                       _LATE 000F8D  
                     u6000 3AF0                       u6001 3AEC                       u6010 3B0C  
                     u6011 3B08                       u6100 3C1A                       u6020 3B28  
                     u6101 3C16                       u6021 3B24                       u6110 3C36  
                     u6030 3B44                       u6111 3C32                       u6031 3B40  
                     u6120 3C52                       u6040 3B60                       u6121 3C4E  
                     u6041 3B5C                       u6130 3C6E                       u6050 3B7C  
                     u6131 3C6A                       u6051 3B78                       u6140 3C8A  
                     u6060 3BA2                       u6141 3C86                       u6061 3B9E  
                     u6150 3CA6                       u6070 3BC6                       u6151 3CA2  
                     u6071 3BC2                       u7007 36DE                       u6320 495E  
                     u6080 3BE2                       u7017 4DBA                       u6321 495A  
                     u6081 3BDE                       u6330 497C                       u6090 3BFE  
                     u6410 4A5E                       u6331 4978                       u6091 3BFA  
                     u6411 4A5A                       u6340 4998                       u6420 4A78  
                     u6341 4994                       u6421 4A74                       u6430 4342  
                     u6431 433E                       u6440 4354                       u6441 4350  
                     u6450 4388                       u6530 38EE                       u6451 4384  
                     u6355 35CA                       u6531 38EA                       i2l60 48A4  
                     u5900 47CE                       u6460 439A                       u5901 47CA  
                     u6461 4396                       u6365 35E4                       u5910 2BA8  
                     u6470 43C6                       u6471 43C2                       u6375 360A  
                     u6480 4DE4                       u5920 2C04                       i2l73 423A  
                     u6481 4DE0                       u5930 2C34                       u5931 2C30  
                     u5915 2B9C                       i2l76 3816                       u5860 49D8  
                     u6660 4026                       u6580 4EEA                       u5861 49D4  
                     u5925 2BFA                       u6661 4022                       u6581 4EE6  
                     u5870 4A12                       u5950 2D54                       u6670 4094  
                     i2l79 3A6A                       u5871 4A0E                       u6671 4090  
       eeprom_guardar@DATE 0153                       u5880 4784                       u5960 3A80  
                     u5881 4780                       u5945 2CA0                       u5961 3A7C  
                     u5890 47A6                       u5970 3A9C                       u6850 45B8  
                     u5891 47A2                       u5955 2D4A                       u5971 3A98  
                     u6907 3842                       u6851 45B4                       u5980 3AB8  
                     u6860 45E4                       u5981 3AB4                       u6917 3852  
                     u6861 45E0                       u5990 3AD4                       u5991 3AD0  
                     u6927 3862                       u6937 3872                       u6947 3882  
                     u6957 3892                       u6967 38D2                       u6977 3920  
                     u6987 3642                       u6997 36C6                       _TMR2 000FBC  
                     abs@a 0013                       _dbuf 0100                       _flag 00F8  
                     _atoi 313C                _PWM_generar 2B34                       _main 4552  
                     _dtoa 259E                       _prec 00F4                       _nout 00F0  
                     pad@i 0018                       pad@p 0015                       fsr1h 000FE2  
                     fsr2h 000FDA                       indf1 000FE7                       indf2 000FDF  
                     fsr1l 000FE1                       pad@w 001A                       fsr2l 000FD9  
                     btemp 005F              __CFG_BORV$190 000000           __end_of_ADC_Init 4F7A  
         __end_of_ADC_Read 4942              ___fpclassifyf 3EBA                       prodh 000FF4  
                     prodl 000FF3                       start 0036              __CFG_IESO$OFF 000000  
          ___fldiv@new_exp 0012             delay_s@seconds 0151            __end_of_Lcd_Cmd 36E8  
             _tolower$1610 000D            __end_of_Lcd_Out 48A6              __CFG_MCLRE$ON 000000  
             ___param_bank 000000                 _Lcd_Chr_CP 36E8                      ??_abs 0015  
                    ??_pad 0017         __size_of_INT_EXT_1 001E             Lcd_Out2@buffer 0005  
            ___fltol@sign1 003B            __end_of___aodiv 3454                      ?_atoi 0008  
          __end_of___fladd 1DDA                      ?_main 0001                      ?_dtoa 001C  
          __end_of___aomod 35B8            __end_of___fldiv 259E            __end_of___awdiv 4490  
          __end_of___flneg 4E56                      _EEADR 000FA9                      STR_10 0821  
                    STR_11 0829                      STR_14 082D                      STR_16 082D  
          __end_of___awmod 46B2            __end_of___flmul 2204            __end_of___flsub 4D26  
          __end_of___fltol 3DB6            __end_of___lldiv 4802            ___awdiv@divisor 0003  
                    _T2CON 000FBA           __end_of_INT_EX_0 2B34            __end_of___lwdiv 49B8  
                    i1l113 002E                      i2l101 28D6                      i2l103 2AC0  
                    i2l107 2B08                      i2l301 4914                      i2l304 4940  
                    i2l320 4F1A                      i2l403 287C                      i2l323 4F94  
                    i2l421 13E6                      i2l317 4F08                      i2l319 4F16  
                    i2l521 1862                      i2l513 1918                      i2l531 4F66  
                    i2l372 44D4                      i2l375 4516                      i2l383 263E  
                    i2l439 0C22                      i2l527 4AE6                      i2l528 4AEE  
                    i2l377 4550                      i2l385 2646                      i2l801 3EB8  
                    i2l465 0FBA                      i2l645 3452                      i2l805 4E54  
                    i2l658 35B6                      i2l762 448E                      i2l828 3DB4  
                    i2l790 475A                      i2l775 46B0                      i2l796 3E72  
          ___awdiv@counter 0005               vfpfcnvrt@fmt 004D                      _PORTA 000F80  
                    _PORTB 000F81                      _PORTC 000F82                      _PORTD 000F83  
                    _PORTE 000F84                      _TRISA 000F92                      _TRISB 000F93  
                    _TRISC 000F94                      _TRISE 000F96            __end_of_delay_s 4DE6  
            __CFG_WRT0$OFF 000000              __CFG_WRT1$OFF 000000              __CFG_WRT2$OFF 000000  
      ___lmul@multiplicand 0155              __CFG_WRT3$OFF 000000             __CFG_EBTR0$OFF 000000  
           __CFG_FCMEN$OFF 000000             __CFG_EBTR1$OFF 000000             __CFG_EBTR2$OFF 000000  
           __CFG_EBTR3$OFF 000000              __CFG_WRTB$OFF 000000              __CFG_WRTC$OFF 000000  
            __CFG_WRTD$OFF 000000         __size_ofi2_Lcd_Cmd 012A             __CFG_EBTRB$OFF 000000  
                    _delay 00FA                      _flags 005D                 Dutty_Pwm@i 017C  
               Dutty_Pwm@k 017E                      _eprom 00F6                      _fputc 423C  
                    _fputs 4D26            __end_of_isdigit 4E8E                      atoi@n 0015  
                    pad@fp 0011                      atoi@s 0008                      _width 00F2  
                    _putch 4F9A                      dtoa@d 001E                      dtoa@i 003E  
                    dtoa@n 0036                      dtoa@p 0030                      dtoa@s 0034  
                    dtoa@w 0032            __end_of_isspace 4C50            __end_of_segment 3B8E  
          __end_of_isupper 4E1E                      tablat 000FF5             eeprom_leer@DIR 0151  
                    ttemp5 0060                      ttemp6 0063                      ttemp7 0067  
                    status 000FD8             __CFG_T3CMX$RC0 000000                      wtemp8 0060  
          __end_of_sprintf 4BFE             ?___fpclassifyf 0001            __end_of_tolower 4B50  
          __end_of_strncmp 4170             __CFG_ICPRT$OFF 000000             __CFG_PBADEN$ON 000000  
         __end_of_Lcd_Init 3942           __end_of_Lcd_Out2 423C            __initialization 4C50  
        ?i2_eeprom_guardar 0001               __end_of_atoi 32CC               __end_of_main 4602  
             __end_of_dtoa 287E         ??i2_eeprom_guardar 0004                     ??_atoi 000A  
                   ??_main 0180                     ??_dtoa 0026              __activetblptr 000002  
           __CFG_SDOMX$RB3 000000            __CFG_CCP2MX$RC1 000000                     _ADCON0 000FC2  
                   _ADCON1 000FC1                     _ADCON2 000FC0           ??_eeprom_guardar 0154  
                   ?_fputc 0001                     ?_fputs 000A                     _ADRESH 000FC4  
                   _ADRESL 000FC3                     _EEDATA 000FA8                     _CCPR2L 000F90  
                   _EECON2 000FA7           ___awdiv@dividend 0001                     _ANSELA 000F5B  
                   ?_putch 0001                     _ANSELB 000F5C                     _ANSELC 000F5D  
                   _ANSELD 000F5E                     _ANSELE 000F5F          __end_of_INT_EXT_1 0036  
                   i2l1101 4D24                     i2l1200 30D2                     i2l1113 259C  
                   i2l1115 23FC                     i2l1220 4DA8                     i2l1124 2442  
                   i2l1060 1AF6                     i2l1212 3FB6                     i2l1061 1ABC  
                   i2l1126 24BA                     i2l1118 23C0                     i2l1127 24A8  
                   i2l1311 4BFC                     i2l1304 4D68                     i2l1152 2094  
                   i2l1217 4DA0                     i2l1145 1E9E                     i2l1321 4F40  
                   i2l1314 4F9A                     i2l1162 21C4                     i2l1154 210C  
                   i2l1251 32CA                     i2l1155 20FA                     i2l1059 1B08  
                   i2l1076 1C22                     i2l1068 1DD8                     i2l1260 2ECA  
                   i2l1333 4EC2                     i2l1149 2202                     i2l1085 1CF2  
                   i2l1086 1CE0                     i2l1327 4BAA                     i2l1248 32C2  
                   i2l1352 4B4E                     i2l1193 3076                     i2l4001 22B6  
                   i2l1257 2F86                     i2l1281 4E1C                     i2l1337 416E  
                   i2l1186 2FDE                     i2l1267 4E8C                     i2l1275 4C4E  
                   i2l4011 22F6                     i2l4003 22B8                     i2l1347 4B46  
                   i1l5611 002C                     i2l1189 313A                     i2l4021 2326  
                   i2l4013 22FE                     i2l4005 22C0                     i2l4031 2364  
                   i2l4023 2326                     i2l4015 2302                     i2l4007 22D0  
                   i2l4111 1DF4                     i2l1296 4304                     i2l4041 23B0  
                   i2l4033 2374                     i2l4009 22E6                     i2l4201 20C4  
                   i2l4121 1E2C                     i2l4113 1DF6                     i1l5609 001E  
                   i2l4051 23FA                     i2l4043 23BE                     i2l4035 2384  
                   i2l4027 233A                     i2l4019 2316                     i2l4211 2136  
                   i2l4203 20F2                     i2l4131 1E58                     i2l4123 1E3C  
                   i2l4115 1E06                     i2l4107 1DDA                     i2l5011 1430  
                   i2l5003 13E8                     i2l4301 4648                     i2l4061 2440  
                   i2l4053 240C                     i2l4045 23CA                     i2l4037 238C  
                   i2l4029 2354                     i2l4221 21AC                     i2l4213 2160  
                   i2l4141 1EAE                     i2l4133 1E68                     i2l4125 1E42  
                   i2l4117 1E16                     i2l4109 1DE6                     i2l5021 14C8  
                   i2l5013 1454                     i2l5005 140C             __CFG_WDTEN$OFF 000000  
                   i2l4311 4684                     i2l4303 4650                     i2l4071 24A0  
                   i2l4055 2422                     i2l4063 2452                     i2l4047 23E8  
                   i2l4039 239C                     i2l4223 21C8                     i2l4231 21EE  
                   i2l4207 211C                     i2l4215 2164                     i2l4151 1EE8  
                   i2l4143 1EBE                     i2l4135 1E78                     i2l4127 1E48  
                   i2l4119 1E26                     i2l5023 14E8                     i2l5015 145C  
                   i2l5031 1550                     i2l5007 141A                     i2l4313 468A  
                   i2l4305 4658                     i2l4081 250E                     i2l4065 2460  
                   i2l4057 2428                     i2l4049 23EA                     i2l4233 21F2  
                   i2l4225 21D8                     i2l4217 217E                     i2l4209 2128  
                   i2l4161 1F3A                     i2l4153 1EFE                     i2l4137 1E88  
                   i2l4129 1E56                     i2l3601 1968                     i2l4401 3D68  
                   i2l5041 15F6                     i2l5033 1572                     i2l5025 14F6  
                   i2l5017 146A                     i2l5009 142C                     i2l4251 43EA  
                   i2l4243 43CC                     i2l4307 4666                     i2l4315 4690  
                   i2l4091 2578                     i2l4075 24CA                     i2l4083 2512  
                   i2l4067 2464                     i2l4059 2432                     i2l4331 472E  
                   i2l4323 46B2                     i2l4227 21E6                     i2l4219 2192  
                   i2l4171 1F80                     i2l4163 1F48                     i2l4155 1F0A  
                   i2l4147 1ED2                     i2l4139 1E8E                     i2l3611 199A  
                   i2l3603 1970                     i2l4403 3D74                     i2l5051 16BE  
                   i2l5043 161A                     i2l5035 1582                     i2l5019 148E  
                   i2l4421 4C48                     i2l4413 4BFE                     i2l4261 441E  
                   i2l4253 43F8                     i2l4245 43D0                     i2l4317 46A0  
                   i2l4309 467C                     i2l4093 257C                     i2l4085 252C  
                   i2l4077 24D6                     i2l4069 2472                     i2l4333 4752  
                   i2l4325 46E0                     i2l4341 3DE4                     i2l4229 21E8  
                   i2l4181 1FEE                     i2l4173 1F9A                     i2l4165 1F54  
                   i2l4157 1F22                     i2l4149 1EDE                     i2l3701 1B72  
                   i2l3621 19D0                     i2l3613 19A0                     i2l3605 1980  
                   i2l4237 4CE0                     i2l4405 3D84                     i2l4501 089C  
                   i2l5053 16D0                     i2l5045 163E                     i2l5037 15B4  
                   i2l5029 153E                     i2l4415 4C02                     i2l3551 423C  
                   i2l4431 2606                     i2l4271 4458                     i2l4263 4426  
                   i2l4255 4400                     i2l4247 43DE                     i2l4319 46A8  
                   i2l4095 258A                     i2l4087 2542                     i2l4079 24E4  
                   i2l4335 4758                     i2l4327 46F0                     i2l4351 3E52  
                   i2l4343 3DF4                     i2l4191 2084                     i2l4183 2018  
                   i2l4175 1FAA                     i2l4167 1F64                     i2l4159 1F2E  
                   i2l3703 1B76                     i2l3711 1B96                     i2l3631 1A0C  
                   i2l3623 19E0                     i2l3615 19AE                     i2l3607 1986  
                   i2l4239 4CF0                     i2l4407 3D94                     i2l4511 08E2  
                   i2l4503 08AE                     i2l5071 17FE                     i2l5055 16E6  
                   i2l5063 1750                     i2l5047 1686                     i2l5039 15C4  
                   i2l5161 3774                     i2l4417 4C16                     i2l3561 42BE  
                   i2l3553 424E                     i2l3801 44F4                     i2l4441 2660  
                   i2l4433 2616                     i2l4425 259E                     i2l4281 447E  
                   i2l4273 4460                     i2l4265 442E                     i2l4257 4404  
                   i2l4249 43E6                     i2l4097 2590                     i2l4089 255C  
                   i2l4329 471E                     i2l4353 3E60                     i2l4345 3E22  
                   i2l4193 2092                     i2l4185 204E                     i2l4177 1FC6  
                   i2l4169 1F70                     i2l4361 4E1E                     i2l3713 1BBC  
                   i2l3721 1C12                     i2l3705 1B84                     i2l3641 1A2A  
                   i2l3633 1A1A                     i2l3625 19E2                     i2l3617 19B0  
                   i2l3609 1998                     i2l4409 3DA4                     i2l4601 0CB0  
                   i2l4513 08E6                     i2l4505 08BC                     i2l5081 189A  
                   i2l5073 1832                     i2l5065 177E                     i2l5057 16F4  
                   i2l5241 4ACA                     i2l5411 4938                     i2l5171 37C0  
                   i2l5163 3776                     i2l5155 36EA                     i2l5251 39D0  
                   i2l5243 3944                     i2l4419 4C44                     i2l3811 4D6A  
                   i2l3555 4260                     i2l3571 4D48                     i2l3803 44F8  
                   i2l4451 268C                     i2l4443 266E                     i2l4435 2618  
                   i2l4427 25BE                     i2l4283 4486                     i2l4275 4462  
                   i2l4267 443C                     i2l4259 440C                     i2l4291 4614  
                   i2l4099 2592                     i2l4355 3EB0                     i2l4347 3E32  
                   i2l4339 3DB6                     i2l4195 20A4                     i2l4187 205C  
                   i2l4179 1FD2                     i2l4363 4E34                     i2l3731 1C66  
                   i2l3723 1C38                     i2l3715 1BF0                     i2l3707 1B86  
                   i2l3651 1A3E                     i2l3643 1A2E                     i2l3635 1A1E  
                   i2l3619 19C0                     i2l3627 19EA                     i2l4371 3CC6  
                   i2l4611 0CEE                     i2l4603 0CB8                     i2l4531 099C  
                   i2l4523 094C                     i2l4515 08EA                     i2l4507 08CE  
                   i2l5091 18D6                     i2l5083 18A8                     i2l5059 1724  
                   i2l5235 4A8E                     i2l5181 37FE                     i2l5173 37DA  
                   i2l5165 377C                     i2l5157 36EE                     i2l5261 3A34  
                   i2l5253 39D6                     i2l5245 3948                     i2l5341 4804  
                   i2l5501 30C2                     i2l3901 3330                     i2l3813 4D84  
                   i2l3557 426A                     i2l3565 4D26                     i2l3573 4E8E  
                   i2l3805 4524                     i2l4461 2798                     i2l4453 270E  
                   i2l4445 2674                     i2l4437 2632                     i2l4429 25E6  
                   i2l4277 4468                     i2l4269 4442                     i2l4293 461C  
                   i2l4357 3EB6                     i2l4349 3E40                     i2l4197 20B2  
                   i2l4189 207A                     i2l4365 4E44                     i2l3741 1C90  
                   i2l3733 1C74                     i2l3725 1C48                     i2l3717 1BF2  
                   i2l3709 1B90                     i2l3661 1A52                     i2l3653 1A42  
                   i2l3645 1A32                     i2l3637 1A22                     i2l3629 19FA  
                   i2l4381 3D16                     i2l3821 3F40                     i2l4701 1172  
                   i2l4613 0D00                     i2l4621 0D40                     i2l4605 0CCA  
                   i2l4541 0A20                     i2l4525 095E                     i2l4509 08DA  
                   i2l4517 08F0                     i2l5085 18BC                     i2l5069 17EC  
                   i2l5237 4A96                     i2l5421 4BCE                     i2l5407 48A6  
                   i2l5183 3800                     i2l5175 37EE                     i2l5167 377E  
                   i2l5159 376C                     i2l5271 3A5A                     i2l5263 3A48  
                   i2l5255 39D8                     i2l5247 39C6                     i2l5343 4808  
                   i2l5511 311A                     i2l5503 30E0                     i2l3911 337A  
                   i2l3903 3334                     i2l3559 4288                     i2l3567 4D32  
                   i2l3575 4E9A                     i2l3807 4538                     i2l4471 280A  
                   i2l4463 27B6                     i2l4455 2714                     i2l4447 267C  
                   i2l4439 264E                     i2l4279 446E                     i2l4295 4620  
                   i2l4287 4602                     i2l4199 20B6                     i2l3751 1CC2  
                   i2l3743 1CA0                     i2l3735 1C76                     i2l3719 1C02  
                   i2l3671 1AA4                     i2l3663 1A56                     i2l3655 1A46  
                   i2l3647 1A36                     i2l3639 1A26                     i2l3591 1934  
                   i2l4391 3D40                     i2l4383 3D1A                     i2l4375 3CDA  
                   i2l3823 3F4C                     i2l3815 3EBA                     i2l3583 4DE6  
                   i2l4711 11EC                     i2l4703 11A6                     i2l4631 0E28  
                   i2l4623 0D48                     i2l4615 0D0E                     i2l4607 0CDC  
                   i2l4543 0A32                     i2l4527 097A                     i2l4519 0916  
                   i2l4535 09C4                     i2l5079 1876                     i2l5095 18E2  
                   i2l5239 4AA4                     i2l5423 4BEA                     i2l5415 4BAC  
                   i2l5409 4922                     i2l5185 3806                     i2l5177 37F6  
                   i2l5169 37A0                     i2l5265 3A50                     i2l5257 39FA  
                   i2l5249 39CE                     i2l5361 4888                     i2l5345 4812  
                   i2l5353 4830                     i2l5513 3128                     i2l5505 30E2  
                   i2l4801 31B4                     i2l3921 33EA                     i2l3913 3388  
                   i2l3905 3340                     i2l3569 4D44                     i2l3577 4E9E  
                   i2l4481 2844                     i2l4473 2818                     i2l4465 27D0  
                   i2l4457 271A                     i2l4449 2686                     i2l4297 462E  
                   i2l4289 4606                     i2l3761 1D1C                     i2l3753 1CD8  
                   i2l3737 1C84                     i2l3729 1C5C                     i2l3745 1CA2  
                   i2l3681 1AE8                     i2l3673 1AB4                     i2l3657 1A4A  
                   i2l3649 1A3A                     i2l3665 1A5A                     i2l3593 1936  
                   i2l4393 3D4A                     i2l4385 3D28                     i2l4377 3D04  
                   i2l4369 3CB0                     i2l3833 3FAE                     i2l3817 3EDA  
                   i2l3841 4AF0                     i2l4721 1230                     i2l4713 11FE  
                   i2l4705 11AE                     i2l4641 0EE6                     i2l4633 0E5C  
                   i2l4625 0D58                     i2l4617 0D26                     i2l4609 0CEA  
                   i2l4561 0AEE                     i2l4545 0A4E                     i2l4537 09EA  
                   i2l4553 0A6A                     i2l4529 0992                     i2l5097 1906  
                   i2l5089 18C8                     i2l5417 4BBE                     i2l5521 4EFE  
                   i2l5601 2ACE                     i2l5179 37F8                     i2l5267 3A52  
                   i2l5259 3A1A                     i2l5347 481C                     i2l5355 486A  
                   i2l5371 4180                     i2l5515 312A                     i2l5507 30E6  
                   i2l4803 31CA                     i2l3923 33FC                     i2l3915 339A  
                   i2l3907 335E                     i2l3579 4EB6                     i2l4475 281E  
                   i2l4483 2854                     i2l4467 27EA                     i2l4459 277E  
                   i2l4299 4636                     i2l3771 1D98                     i2l3763 1D56  
                   i2l3739 1C8C                     i2l3747 1CB0                     i2l3683 1AEA  
                   i2l3675 1ACA                     i2l3667 1A5E                     i2l3659 1A4E  
                   i2l3595 1946                     i2l3587 191A                     i2l4395 3D54  
                   i2l4379 3D06                     i2l3819 3F18                     i2l3827 3F58  
                   i2l3851 2D76                     i2l4731 1270                     i2l4723 1242  
                   i2l4715 120C                     i2l4707 11B2                     i2l4651 0F82  
                   i2l4643 0EFC                     i2l4627 0D6C                     i2l4635 0E62  
                   i2l4619 0D38                     i2l4563 0AF4                     i2l4571 0BBC  
                   i2l4555 0A84                     i2l4491 0850                     i2l5419 4BC6  
                   i2l5427 4F1C                     i2l5523 4F06                     i2l5603 2AE8  
                   i2l5269 3A58                     i2l5357 4874                     i2l5349 4826  
                   i2l5373 418A                     i2l5381 41D8                     i2l5509 310A  
                   i2l4821 32A6                     i2l4813 3244                     i2l4805 31D2  
                   i2l3917 33C8                     i2l3909 3366                     i2l3925 3402  
                   i2l3941 348A                     i2l3933 3454                     i2l4477 2830  
                   i2l4469 27F8                     i2l3781 1DB8                     i2l3773 1D9C  
                   i2l3757 1D02                     i2l3765 1D58                     i2l3749 1CB4  
                   i2l3693 1B3A                     i2l3685 1AF4                     i2l3677 1AD6  
                   i2l3669 1A88                     i2l3597 1956                     i2l3589 1926  
                   i2l3829 3F6A                     i2l3853 2D96                     i2l3837 4B50  
                   i2l3845 4B26                     i2l4741 12B8                     i2l4733 1278  
                   i2l4725 124A                     i2l4717 121C                     i2l4709 11D0  
                   i2l4661 103A                     i2l4653 0F92                     i2l4645 0F2E  
                   i2l4637 0E80                     i2l4629 0DD0                     i2l4581 0BFC  
                   i2l4573 0BCC                     i2l4565 0B4E                     i2l4493 085E  
                   i2l5525 4F88                     i2l5605 2AF2                     i2l5359 4884  
                   i2l5383 41E2                     i2l5375 4194                     i2l5367 4172  
                   i2l4807 31DA                     i2l3927 3412                     i2l3919 33E8  
                   i2l3951 34F2                     i2l3943 3498                     i2l3935 3458  
                   i2l3791 449E                     i2l4479 283C                     i2l3783 1DC6  
                   i2l3775 1DAA                     i2l3767 1D68                     i2l3759 1D0E  
                   i2l3695 1B4A                     i2l3687 1B16                     i2l3679 1ADA  
                   i2l3599 1966                     i2l3871 2F3E                     i2l3863 2E7E  
                   i2l3855 2DEC                     i2l3839 4B60                     i2l3847 4B38  
                   i2l4751 130E                     i2l4743 12D4                     i2l4735 1280  
                   i2l4727 125A                     i2l4719 1220                     i2l4663 1048  
                   i2l4671 1084                     i2l4655 0FA6                     i2l4647 0F3E  
                   i2l4639 0EB4                     i2l4591 0C40                     i2l4583 0C16  
                   i2l4575 0BD0                     i2l4567 0B82                     i2l4559 0ABA  
                   i2l4495 0866                     i2l4487 0836                     i2l5519 4EF0  
                   i2l5527 4F90                     i2l5607 2AF4                     i2l5385 4206  
                   i2l5369 4176                     i2l5481 3004                     i2l5473 2F8A  
                   i2l4817 3282                     i2l4809 320E                     i2l3929 3432  
                   i2l3953 3500                     i2l3961 3566                     i2l3945 34B8  
                   i2l3937 3466                     i2l3793 44B2                     i2l3785 1DC8  
                   i2l3777 1DB0                     i2l3769 1D78                     i2l3697 1B58  
                   i2l3689 1B26                     i2l3873 2F66                     i2l3865 2EBA  
                   i2l3857 2E00                     i2l4761 134A                     i2l4753 1314  
                   i2l4745 12DC                     i2l4737 128C                     i2l4729 1262  
                   i2l4681 10C0                     i2l4673 1098                     i2l4665 105C  
                   i2l4657 0FB2                     i2l4649 0F4E                     i2l4593 0C52  
                   i2l4577 0BE2                     i2l4585 0C2E                     i2l4569 0B8A  
                   i2l4497 088A                     i2l4489 0840                     i2l4841 4124  
                   i2l4833 40D0                     i2l5529 4F92                     i2l5561 28EA  
                   i2l5553 28A6                     i2l5387 420A                     i2l5379 419E  
                   i2l5491 305E                     i2l5475 2F9A                     i2l3883 4F42  
                   i2l4819 3294                     i2l3891 32D0                     i2l3963 3576  
                   i2l3955 352E                     i2l3947 34D6                     i2l3939 3486  
                   i2l3795 44C0                     i2l3971 2210                     i2l3779 1DB2  
                   i2l3699 1B66                     i2l3875 2F76                     i2l3859 2E0E  
                   i2l3867 2EEE                     i2l4771 139C                     i2l4763 1350  
                   i2l4755 1326                     i2l4739 1292                     i2l4747 12E2  
                   i2l4683 10CC                     i2l4675 10A6                     i2l4691 10EC  
                   i2l4667 106E                     i2l4659 0FD6                     i2l4595 0C6E  
                   i2l4579 0BF4                     i2l4499 0894                     i2l4843 414C  
                   i2l4835 40DE                     i2l4827 409A                     i2l5571 2926  
                   i2l5563 28F0                     i2l5555 28B0                     i2l5741 41B2  
                   i2l5493 3060                     i2l5485 3018                     i2l5477 2FA8  
                   i2l3885 4F5E                     i2l3893 32DE                     i2l3965 3596  
                   i2l3957 354E                     i2l3949 34DE                     i2l3797 44CC  
                   i2l3789 4490                     i2l3981 2250                     i2l3973 221E  
                   i2l3869 2F2A                     i2l4773 13A8                     i2l4765 1356  
                   i2l4757 1332                     i2l4749 12F4                     i2l4693 10FE  
                   i2l4685 10DC                     i2l4677 10B6                     i2l4669 107C  
                   i2l4597 0CA4                     i2l4837 40F6                     i2l4829 40C4  
                   i2l5581 29B4                     i2l5573 292A                     i2l5565 2900  
                   i2l5557 28BC                     i2l5743 4844                     i2l5495 306C  
                   i2l5487 3020                     i2l5479 2FEE                     i2l3879 4E56  
                   i2l4791 3158                     i2l3895 32FE                     i2l3959 3560  
                   i2l3799 44E0                     i2l3991 2276                     i2l3983 2252  
                   i2l3975 2220                     i2l4775 13B0                     i2l4759 133A  
                   i2l4695 1110                     i2l4687 10E0                     i2l4679 10BA  
                   i2l4599 0CAC                     i2l4839 4112                     i2l5591 2A62  
                   i2l5583 29C8                     i2l5575 292E                     i2l5567 2916  
                   i2l5559 28CA                     i2l5497 30A8                     i2l5489 302C  
                   i2l4793 3174                     i2l4785 313C                     i2l3897 3302  
                   i2l3889 32CC                     i2l3993 2284                     i2l3977 2230  
                   i2l3985 225A                     i2l3969 2204                     i2l4777 13C0  
                   i2l4769 138A                     i2l4697 1114                     i2l4689 10E6  
                   i2l5593 2A80                     i2l5585 29DA                     i2l5577 2942  
                   i2l5569 291E                     i2l5499 30B4                     i2l5739 31F8  
                   i2l4795 31AA                     i2l4787 3150                     i2l3899 3310  
                   i2l3995 2286                     i2l3987 226A                     i2l3979 2240  
                   i2l4779 13C6                     i2l4699 111A                     i2l5595 2A92  
                   i2l5587 29EC                     i2l5579 298E                     i2l4797 31AE  
                   i2l4789 3154                     i2l3997 2296                     i2l3989 2270  
                   i2l5597 2AA4                     i2l5589 29FE                     i2l3999 22A6  
                   i2l5599 2ABA                     _OSCCON 000FD3                  ??_Lcd_Cmd 0151  
                ??_Lcd_Out 0007           __end_of___xxtofl 313C             __CFG_XINST$OFF 000000  
     __size_of_eeprom_leer 000E         __size_of_Dutty_Pwm 00E2               vfprintf@cfmt 005B  
                   ___flge 3DB6                     ___fleq 46B2                     ___lmul 49B8  
              ?_Lcd_Chr_CP 0001          __end_ofi2_Lcd_Cmd 3A6C                  ??___aodiv 0011  
                ??___fladd 0009                  ??___aomod 0011                     ___wmul 4F42  
                ??___fldiv 0009                  ??___awdiv 0005                  ??___flneg 0005  
           __CFG_STVREN$ON 000000                  ??___awmod 0005                     _declet 4C9A  
                ??___flmul 0022                  ??___flsub 003B                  ??___fltol 0037  
                ??___lldiv 0159                     _efgtoa 0836       PWM_generar@AuxCCPR2L 016E  
                ??___lwdiv 0155            ADC_Read@channel 0001                     _floorf 2D76  
          ADC_Read@digital 0007                     clear_0 4C76                     clear_1 4C82  
         ___awdiv@quotient 0007            ___awmod@divisor 0003                  ??_delay_s 0153  
          ___awmod@counter 0005                     pad@buf 0013                     _strcat 4F1C  
                   dtoa@fp 001C                     _strcpy 4B50                     _strlen 4E8E  
         __end_of_segment2 3CB0                     fputc@c 0001                     fputs@c 000E  
                   fputs@i 000F               ?_mostrar_dec 0172                     fputs@s 000A  
                ??_isdigit 0003               ?_mostrar_inc 0158            ___fpclassifyf@e 0009  
                ?_ADC_Init 0001            ___fpclassifyf@u 000B                  ?_ADC_Read 0001  
          ___fpclassifyf@x 0001     __size_ofi2_eeprom_leer 000E               __mediumconst 0000  
                ??_isspace 0003                  ??_segment 0153                     tblptrh 000FF7  
                ??_isupper 0003                     tblptrl 000FF6                     tblptru 000FF8  
                   putch@c 0001           __end_of_vfprintf 4AF0                  ??_sprintf 005D  
                ??_tolower 0009                  ??_strncmp 0007                 ___flge@ff1 0033  
               ___flge@ff2 0037            ??___fpclassifyf 0005       __CFG_LS48MHZ$SYS24X4 000000  
             ___xxtofl@arg 000B               ___xxtofl@exp 000A               ___xxtofl@val 0001  
               ___fleq@ff1 0001                 ___fleq@ff2 0005                 __accesstop 0060  
  __end_of__initialization 4C8C                 ___flneg@f1 0001              ___rparam_used 000001  
               ___fltol@f1 0033                  ?_INT_EX_0 0001             __pcstackCOMRAM 0001  
             __pidataBANK1 4F96              __end_of_fputc 4306              __end_of_fputs 4D6A  
            __end_of_putch 4F9C            __CFG_PCLKEN$OFF 000000                 ??_ADC_Init 0151  
               ??_ADC_Read 0003          __end_of_Dutty_Pwm 409A                  ?_Lcd_Init 0001  
                ?_Lcd_Out2 0004                    ??_fputc 0005                    ??_fputs 000E  
                INT_EX_0@i 00E0                  INT_EX_0@j 00E2        __size_of_Lcd_Chr_CP 0130  
                  ??_putch 0001                 __pbssBANK0 00E8                 __pbssBANK1 0100  
             ?_PWM_generar 015E              i2_eeprom_leer 4F88                 ??_INT_EX_0 00BE  
               _efgtoa$984 0064                 _efgtoa$993 006A                 _efgtoa$985 0066  
               _efgtoa$994 006C                 _efgtoa$995 006E                 _efgtoa$989 0068  
        __CFG_PLLSEL$PLL4X 000000                    ?___flge 0033                    ?___fleq 0001  
                  ?___lmul 0151                    ?___wmul 0001                    ?_declet 0001  
                  ?_efgtoa 003F                    _CCP2CON 000F97                    ?_floorf 001A  
           ___lmul@product 0159                    ?_strcat 000F                    ?_strcpy 0005  
                  ?_strlen 0001                  ?___xxtofl 0001         __size_of_vfpfcnvrt 0532  
               ??_Lcd_Init 0154                 ??_Lcd_Out2 0007                    _Lcd_Cmd 35B8  
                  _Lcd_Out 4802             ?i2_eeprom_leer 0001                  ?_segment2 0151  
                  __Hparam 0000                    __Lparam 0000            __size_of___flge 0104  
          __size_of___fleq 00AA                    ___aodiv 32CC                    ___fladd 191A  
                  ___aomod 3454                    ___fldiv 2204                    ___awdiv 43CC  
                  ___flneg 4E1E            __size_of___lmul 006C                    ___awmod 4602  
                  ___flmul 1DDA                    ___flsub 4CE0                    ___fltol 3CB0  
                  ___lldiv 475C            __size_of___wmul 0026            __size_of_declet 0046  
                  ___lwdiv 4942                  ?_vfprintf 0055               __psmallconst 0800  
          __size_of_efgtoa 0BB2            __size_of_floorf 0212                    __pcinit 4C50  
    PWM_generar@AuxCCP2CON 0168                    _delay_s 4DAA                    __ramtop 0800  
                  __ptext0 4552                    __ptext1 4F7A                    __ptext2 4EC4  
                  __ptext3 4C9A                    __ptext4 3818                    __ptext5 35B8  
                  __ptext6 3FB8                    __ptext7 4A24                    __ptext8 3A6C  
                  __ptext9 4306            __size_of_strcat 0026            __size_of_strcpy 005C  
          __size_of_strlen 0036                  _T2CONbits 000FBA               __size_of_abs 0040  
             __size_of_pad 00C2                    _isdigit 4E56                 ??___xxtofl 0005  
         ___awmod@dividend 0001                    _isspace 4BFE                    _segment 3A6C  
__size_ofi2_eeprom_guardar 002C                    _isupper 4DE6                    efgtoa@c 0045  
                  efgtoa@d 0078                    efgtoa@e 0090                    efgtoa@f 0041  
                  efgtoa@g 008C                    efgtoa@h 0082                    efgtoa@i 008A  
                  efgtoa@l 0086                    efgtoa@m 0074                    efgtoa@n 0092  
                  efgtoa@p 007C                    efgtoa@t 0070                    efgtoa@u 0094  
                  efgtoa@w 007F       __size_of_mostrar_dec 00C6       __size_of_mostrar_inc 006A  
                  atoi@neg 000E                    _sprintf 4BAC                    _tolower 4AF0  
                  _strncmp 409A             __pintcode_body 287E       end_of_initialization 4C8C  
     i2eeprom_guardar@DATE 0003                    floorf@e 0028                    floorf@m 0024  
                  floorf@u 002A                    floorf@x 001A                    fputc@fp 0003  
            __Lmediumconst 0000                    int_func 287E                    fputs@fp 000C  
            i2Lcd_Cmd@data 0003               INT_EX_0@data 00D4                  _INT_EXT_1 0018  
             INT_EX_0@temp 00CA            ___lldiv@divisor 0155                 ??_segment2 0153  
          ___lldiv@counter 015D          __end_of_vfpfcnvrt 191A                 efgtoa@mode 0081  
               efgtoa@sign 007A               ??_Lcd_Chr_CP 0001                  Lcd_Out2@x 0004  
                Lcd_Out2@y 0009                    postdec1 000FE5                    postdec2 000FDD  
                  postinc0 000FEE                    postinc1 000FE6                    postinc2 000FDE  
               ??_vfprintf 005B                    strcpy@d 000D                    strlen@a 0003  
                  strcpy@s 000B                    strlen@s 0001                  i2_Lcd_Cmd 3942  
                _PORTBbits 000F81                  _PORTDbits 000F83                ___fladd@grs 0010  
            ___xxtofl@sign 0009                  _TRISCbits 000F94                  _TRISDbits 000F95  
              ___fldiv@grs 0014                ___fldiv@rem 000D          __size_of_ADC_Init 0012  
        __size_of_ADC_Read 009C         __end_of_Lcd_Chr_CP 3818                ___flmul@grs 0027  
          ??i2_eeprom_leer 0003              ??_eeprom_leer 0153                 ?_INT_EXT_1 0001  
     __size_of_PWM_generar 0242          __size_of_INT_EX_0 2B2C             __end_of___flge 3EBA  
           __end_of___fleq 475C             __end_of___lmul 4A24                vfpfcnvrt@ap 004F  
              vfpfcnvrt@ct 00A8                vfpfcnvrt@fp 004B                vfpfcnvrt@ll 0098  
           __end_of___wmul 4F68             __end_of_declet 4CE0             __end_of_efgtoa 13E8  
               ?i2_Lcd_Cmd 0001             __end_of_floorf 2F88                 floorf@F524 00E8  
       mostrar_dec@por_pwm 0174             __end_of_strcat 4F42             __end_of_strcpy 4BAC  
           __end_of_strlen 4EC4        start_initialization 4C50                __end_of_abs 4DAA  
              __end_of_pad 4552              Lcd_Out@buffer 0005          __size_of_Lcd_Init 012A  
        __size_of_Lcd_Out2 00CC                  _Dutty_Pwm 3FB8            __CFG_nLPBOR$OFF 000000  
    __end_of___fpclassifyf 3FB8    __size_of_eeprom_guardar 002C                vfprintf@fmt 0057  
                 ??___flge 003B                   ??___fleq 0009                   ??___lmul 0159  
                 ??___wmul 0005        __end_of_eeprom_leer 4F88                   ??_declet 0151  
         segment2@centenas 0151                   ??_efgtoa 0046                __pdataBANK1 0181  
                 ??_floorf 001E                   ??_strcat 0013                   ??_strcpy 0009  
                 ??_strlen 0003                  ___fladd@a 0005                  ___fladd@b 0001  
                ___fldiv@a 0005                  ___fldiv@b 0001                  ___flmul@a 001E  
                ___flmul@b 001A                __pbssCOMRAM 005D                  ___flsub@a 0037  
                ___flsub@b 0033           i2_eeprom_guardar 4EF0              __pcstackBANK0 0060  
            __pcstackBANK1 0150           ___aodiv@dividend 0001            __CFG_nPWRTEN$ON 000000  
        __size_of___xxtofl 01B4                 ?_Dutty_Pwm 0178                   ?_Lcd_Cmd 0001  
                 ?_Lcd_Out 0004                  _atoi$1487 0010                  _atoi$1488 0014  
                _atoi$1489 0012                ??_INT_EXT_1 0150            INT_EX_0@digital 00DE  
         ___lwdiv@dividend 0151                  __pintcode 0008          __size_of_segment2 0122  
                 ?___aodiv 0001                   ?___fladd 0001                   ?___aomod 0001  
                 ?___fldiv 0001                   ?___awdiv 0001           ___aodiv@quotient 0013  
                 ?___flneg 0001                   ?___awmod 0001                   ?___flmul 001A  
                 ?___flsub 0033                   ?___fltol 0033                   ?___lldiv 0151  
                 ?___lwdiv 0151                __pintcodelo 0018                   ?_delay_s 0151  
              ??i2_Lcd_Cmd 0001            INT_EX_0@voltage 00E4     PWM_generar@prescalador 0166  
        __size_of_vfprintf 0062             Dutty_Pwm@delay 017A                __smallconst 0800  
                 ?_isdigit 0001                   _ADC_Init 4F68                   _ADC_Read 48A6  
                 ?_isspace 0001                   ?_segment 0151                   ?_isupper 0001  
         ___lwdiv@quotient 0155                   ?_sprintf 00AC                   ?_tolower 0007  
           __size_of_fputc 00CA             __size_of_fputs 0044                   ?_strncmp 0001  
           __size_of_putch 0002             ___wmul@product 0005         mostrar_inc@por_pwm 015A  
                 _LATEbits 000F8D        i2eeprom_guardar@DIR 0001                _eeprom_leer 4F7A  
                 _INT_EX_0 0008                   i2u400_40 3F40                   i2u400_41 3F3C  
                 i2u401_40 3F6A                   i2u401_41 3F66                   i2u410_40 2DBE  
                 i2u402_45 3F7C                   i2u410_45 2DB4                   i2u403_40 3FA4  
                 i2u411_40 2DEC                   i2u403_41 3F9E                   i2u411_41 2DE8  
                 i2u420_40 4E86                   i2u500_40 3D28                   i2u404_40 3FA6  
                 i2u412_40 2E0E                   i2u420_41 4E80                   i2u500_41 3D24  
                 i2u412_41 2E0A                   i2u421_40 4E88                   i2u501_40 3D3C  
                 i2u405_40 4B98                   i2u501_41 3D38                   i2u413_45 2E22  
                 i2u413_46 2E2C                   i2u413_47 2E3C                   i2u405_47 4B8E  
                 i2u422_40 32DE                   i2u430_40 3498                   i2u350_40 4D68  
                 i2u510_40 2616                   i2u502_40 3D64                   i2u414_40 2E7A  
                 i2u406_40 4BAA                   i2u422_41 32DA                   i2u430_41 3494  
                 i2u350_41 4D64                   i2u510_41 2612                   i2u502_41 3D60  
                 i2u414_41 2E76                   i2u406_41 4BA6                   i2u423_40 3310  
                 i2u431_40 34D6                   i2u351_40 4EB6                   i2u511_40 2632  
                 i2u503_40 3D84                   i2u415_40 2E9E                   i2u407_40 4B20  
                 i2u423_41 330C                   i2u431_41 34D2                   i2u351_41 4EB2  
                 i2u511_41 262E                   i2u503_41 3D80                   i2u407_41 4B1A  
                 i2u415_45 2E94                   i2u432_40 3500                   i2u520_40 2818  
                 i2u512_40 2660                   i2u440_40 22A6                   i2u360_40 19D0  
                 i2u504_40 3D94                   i2u416_40 2EBA                   i2u352_40 4E16  
                 i2u408_40 4B22                   i2u424_41 333A                   i2u432_41 34FC  
                 i2u520_41 2814                   i2u512_41 265C                   i2u440_41 22A2  
                 i2u360_41 19CC                   i2u504_41 3D90                   i2u416_41 2EB6  
                 i2u352_41 4E10                   i2u505_40 4C16                   i2u425_40 335E  
                 i2u433_40 352E                   i2u521_40 2830                   i2u513_40 266E  
                 i2u441_40 22E6                   i2u361_40 1A0C                   i2u417_40 2F0E  
                 i2u353_40 4E18                   i2u409_40 4B38                   i2u505_41 4C12  
                 i2u425_41 335A                   i2u433_41 352A                   i2u521_41 282C  
                 i2u513_41 266A                   i2u441_41 22E2                   i2u361_41 1A08  
                 i2u409_41 4B34                   i2u417_45 2F04                   i2u506_40 4C44  
                 i2u426_40 3388                   i2u434_40 3576                   i2u346_40 424E  
                 i2u514_40 2798                   i2u450_40 2472                   i2u442_40 2326  
                 i2u370_40 1B26                   i2u362_40 1A1A                   i2u354_40 1934  
                 i2u418_40 2F2A                   i2u530_40 09EA                   i2u522_40 085E  
                 i2u506_41 4C40                   i2u426_41 3384                   i2u434_41 3572  
                 i2u346_41 424A                   i2u514_41 2794                   i2u450_41 246E  
                 i2u442_41 2322                   i2u370_41 1B22                   i2u362_41 1A16  
                 i2u354_41 1930                   i2u418_41 2F26                   i2u530_41 09E6  
                 i2u522_41 085A                   i2u427_40 33C8                   i2u347_40 4260  
                 i2u515_40 27B6                   i2u507_40 25CE                   i2u451_40 24A0  
                 i2u443_40 239C                   i2u435_40 221E                   i2u371_40 1B58  
                 i2u363_40 1A88                   i2u355_40 1946                   i2u419_40 2F66  
                 i2u531_40 0A18                   i2u523_40 08AE                   i2u427_41 33C4  
                 i2u347_41 425C                   i2u515_41 27B2                   i2u507_41 25C8  
                 i2u451_41 249C                   i2u443_41 2398                   i2u435_41 221A  
                 i2u371_41 1B54                   i2u363_41 1A84                   i2u355_41 1942  
                 i2u419_41 2F62                   i2u531_41 0A12                   i2u523_41 08AA  
                 _PIR2bits 000FA1                   i1u684_20 002C                   i1u684_21 0028  
                 i2u428_40 3412                   i2u348_40 4288                   i2u516_40 27D0  
                 i2u508_40 25D0                   i2u452_40 24B6                   i2u444_40 23BE  
                 i2u436_40 2230                   i2u460_40 1E16                   i2u380_40 1CA0  
                 i2u372_40 1B66                   i2u364_40 1AA0                   i2u356_40 1956  
                 i2u540_40 0C3C                   i2u532_40 0A1A                   i2u524_40 08BC  
                 i2u620_40 1538                   i2u428_41 340E                   i2u348_41 4284  
                 i2u516_41 27CC                   i2u452_41 24B2                   i2u444_41 23BA  
                 i2u436_41 222C                   i2u460_41 1E12                   i2u380_41 1C9C  
                 i2u372_41 1B62                   i2u364_41 1A9A                   i2u356_41 1952  
                 i2u540_41 0C38                   i2u524_41 08B8                   i2u429_40 3466  
                 i2u349_40 42BE                   i2u517_40 27EA                   i2u509_40 25E6  
                 i2u453_40 24CA                   i2u445_40 23E8                   i2u437_40 2240  
                 i2u461_40 1E56                   i2u381_40 1CB0                   i2u373_40 1B84  
                 i2u365_40 1AA2                   i2u357_40 1998                   i2u541_40 0C52  
                 i2u533_40 0A32                   i2u525_40 08CE                   i2u621_40 1550  
                 i2u429_41 3462                   i2u349_41 42BA                   i2u517_41 27E6  
                 i2u509_41 25E2                   i2u453_41 24C6                   i2u445_41 23E4  
                 i2u437_41 223C                   i2u461_41 1E52                   i2u381_41 1CAC  
                 i2u373_41 1B80                   i2u357_41 1994                   i2u541_41 0C4E  
                 i2u533_41 0A2E                   i2u525_41 08CA                   i2u621_41 154C  
                 i2u518_40 27F8                   i2u454_40 24E4                   i2u446_40 240C  
                 i2u438_40 2284                   i2u470_40 20F2                   i2u462_40 1E68  
                 i2u390_40 1D98                   i2u382_40 1CC2                   i2u374_40 1BBC  
                 i2u366_40 1ACA                   i2u358_40 19AE                   i2u550_40 0E80  
                 i2u542_40 0C6E                   i2u534_40 0AB6                   i2u526_40 0916  
                 i2u630_40 17FE                   i2u622_40 1582                   i2u518_41 27F4  
                 i2u454_41 24E0                   i2u446_41 2408                   i2u438_41 2280  
                 i2u470_41 20EE                   i2u462_41 1E64                   i2u390_41 1D94  
                 i2u382_41 1CBE                   i2u374_41 1BB8                   i2u366_41 1AC6  
                 i2u358_41 19AA                   i2u550_41 0E7C                   i2u542_41 0C6A  
                 i2u534_41 0AB2                   i2u526_41 0912                   i2u630_41 17FA  
                 i2u622_41 157E                   i2u702_47 2A9A                   i2u519_40 280A  
                 i2u455_40 252C                   i2u447_40 2422                   i2u439_40 2296  
                 i2u471_40 2108                   i2u463_40 1E78                   i2u391_40 1DAA  
                 i2u383_40 1CD8                   i2u375_40 1C02                   i2u367_40 1AE8  
                 i2u359_40 19C0                   i2u551_40 0EE6                   i2u543_40 0CA4  
                 i2u535_40 0B4A                   i2u527_40 0944                   i2u631_40 189A  
                 i2u623_40 15C4                   i2u519_41 2806                   i2u455_41 2528  
                 i2u447_41 241E                   i2u439_41 2292                   i2u471_41 2104  
                 i2u463_41 1E74                   i2u391_41 1DA6                   i2u383_41 1CD4  
                 i2u375_41 1BFE                   i2u367_41 1AE4                   i2u359_41 19BC  
                 i2u551_41 0EE2                   i2u543_41 0CA0                   i2u535_41 0B46  
                 i2u527_41 093E                   i2u631_41 1896                   i2u623_41 15C0  
                 i2u703_47 2ADA                   i2u480_40 443C                   i2u456_40 255C  
                 i2u448_40 2440                   i2u472_40 211C                   i2u464_40 1EAE  
                 i2u392_40 1DC6                   i2u384_40 1CEE                   i2u376_40 1C38  
                 i2u368_40 1B08                   i2u560_40 10A6                   i2u552_40 0F2E  
                 i2u544_40 0CCA                   i2u536_40 0BBC                   i2u528_40 0946  
                 i2u624_40 161A                   i2u616_40 140C                   i2u480_41 4438  
                 i2u456_41 2558                   i2u448_41 243C                   i2u472_41 2118  
                 i2u464_41 1EAA                   i2u392_41 1DC2                   i2u384_41 1CEA  
                 i2u376_41 1C34                   i2u368_41 1B04                   i2u560_41 10A2  
                 i2u552_41 0F2A                   i2u544_41 0CC6                   i2u536_41 0BB8  
                 i2u624_41 1616                   i2u616_41 1408                   i2u640_45 3736  
                 i2u704_47 39C8                   i2u393_40 449E                   i2u481_40 4458  
                 i2u457_40 258A                   i2u449_40 2460                   i2u473_40 2136  
                 i2u465_40 1EBE                   i2u385_40 1D02                   i2u377_40 1C48  
                 i2u369_40 1B16                   i2u561_40 10FE                   i2u553_40 0F3E  
                 i2u545_40 0CDC                   i2u537_40 0BE2                   i2u529_40 095E  
                 i2u625_40 163E                   i2u617_40 1454                   i2u393_41 449A  
                 i2u481_41 4454                   i2u457_41 2586                   i2u449_41 245C  
                 i2u473_41 2132                   i2u465_41 1EBA                   i2u385_41 1CFE  
                 i2u377_41 1C44                   i2u369_41 1B12                   i2u561_41 10FA  
                 i2u553_41 0F3A                   i2u545_41 0CD8                   i2u537_41 0BDE  
                 i2u529_41 095A                   i2u625_41 163A                   i2u617_41 1450  
                 i2u705_47 3A4A                   i2u394_40 44C0                   i2u482_40 447E  
                 i2u490_40 471E                   i2u474_40 217E                   i2u466_40 2038  
                 i2u458_40 1DF4                   i2u386_40 1D1C                   i2u378_40 1C74  
                 i2u570_40 1326                   i2u562_40 11D0                   i2u554_40 0FA6  
                 i2u546_40 0CEA                   i2u538_40 0BF4                   i2u626_40 16D0  
                 i2u618_40 148E                   i2u394_41 44BC                   i2u482_41 447A  
                 i2u490_41 471A                   i2u474_41 217A                   i2u458_41 1DF0  
                 i2u386_41 1D18                   i2u378_41 1C70                   i2u570_41 1322  
                 i2u562_41 11CC                   i2u554_41 0FA2                   i2u546_41 0CE6  
                 i2u538_41 0BF0                   i2u626_41 16CC                   i2u618_41 148A  
                 i2u650_45 3950                   i2u466_45 202E                   i2u706_47 3A60  
                 i2u395_40 4516                   i2u483_40 4614                   i2u491_40 4752  
                 i2u475_40 21AC                   i2u467_40 2092                   i2u459_40 1E06  
                 i2u387_40 1D56                   i2u379_40 1C84                   i2u571_40 1384  
                 i2u563_40 11EC                   i2u555_40 1048                   i2u547_40 0D00  
                 i2u539_40 0C16                   i2u627_40 177E                   i2u619_40 1536  
                 i2u395_41 4512                   i2u483_41 4610                   i2u491_41 474E  
                 i2u475_41 21A8                   i2u467_41 208E                   i2u459_41 1E02  
                 i2u387_41 1D52                   i2u379_41 1C80                   i2u571_41 137E  
                 i2u563_41 11E8                   i2u555_41 1044                   i2u547_41 0CFC  
                 i2u539_41 0C12                   i2u627_41 177A                   i2u619_41 1530  
                 i2u651_45 396A                   i2u707_47 376E                   i2u580_40 32A6  
                 i2u396_40 4524                   i2u484_40 462E                   i2u492_40 3DE4  
                 i2u476_40 21E6                   i2u468_40 20B2                   i2u388_40 1D68  
                 i2u572_40 1386                   i2u564_40 11FE                   i2u556_40 105C  
                 i2u548_40 0D0E                   i2u628_40 17E4                   i2u580_41 32A2  
                 i2u396_41 4520                   i2u484_41 462A                   i2u492_41 3DE0  
                 i2u476_41 21E2                   i2u468_41 20AE                   i2u388_41 1D64  
                 i2u564_41 11FA                   i2u556_41 1058                   i2u548_41 0D0A  
                 i2u628_41 17DE                   i2u652_45 3990                   i2u708_47 37F0  
                 i2u660_48 48D2                   i2u397_40 4D84                   i2u477_40 43DE  
                 i2u485_40 4648                   i2u493_40 3E22                   i2u469_40 20C4  
                 i2u389_40 1D78                   i2u573_40 139C                   i2u565_40 120C  
                 i2u557_40 106E                   i2u549_40 0D38                   i2u581_40 40C4  
                 i2u629_40 17E6                   i2u397_41 4D80                   i2u477_41 43DA  
                 i2u485_41 4644                   i2u493_41 3E1E                   i2u469_41 20C0  
                 i2u389_41 1D74                   i2u573_41 1398                   i2u565_41 1208  
                 i2u557_41 106A                   i2u549_41 0D34                   i2u581_41 40C0  
                 i2u661_44 48E0                   i2u661_45 48DC                   i2u709_47 380C  
                 i2u662_40 48F8                   i2u654_40 48A4                   i2u670_40 3004  
                 i2u574_40 3174                   i2u478_40 43F8                   i2u486_40 4666  
                 i2u494_40 3E40                   i2u398_40 3EFA                   i2u566_40 1242  
                 i2u558_40 107C                   i2u582_40 40F6                   i2u662_41 48F0  
                 i2u654_41 48A0                   i2u670_41 3000                   i2u574_41 3170  
                 i2u478_41 43F4                   i2u486_41 4662                   i2u494_41 3E3C  
                 i2u566_41 123E                   i2u558_41 1078                   i2u582_41 40F2  
                 i2u638_45 36F6                   i2u398_45 3EF0                   i2u655_40 4202  
                 i2u671_40 305A                   i2u575_40 31AA                   i2u479_40 441E  
                 i2u487_40 467C                   i2u495_40 3E60                   i2u399_40 3F18  
                 i2u567_40 1270                   i2u559_40 1098                   i2u583_40 4112  
                 i2u671_41 3056                   i2u575_41 31A6                   i2u479_41 441A  
                 i2u487_41 4678                   i2u495_41 3E5C                   i2u399_41 3F14  
                 i2u567_41 126C                   i2u559_41 1094                   i2u583_41 410E  
                 i2u639_45 3710                   i2u655_47 41F8                   i2u663_48 48FA  
                 i2u656_40 422A                   i2u672_40 30A4                   i2u576_40 31C6  
                 i2u488_40 46A0                   i2u496_40 3EB0                   i2u568_40 12F4  
                 i2u584_40 4124                   i2u680_40 28EA                   i2u672_41 30A0  
                 i2u576_41 31C2                   i2u488_41 469C                   i2u496_41 3EAC  
                 i2u568_41 12F0                   i2u584_41 4120                   i2u680_41 28E6  
                 i2u664_44 4908                   i2u664_45 4904                   i2u656_47 4220  
                 i2u665_40 4922                   i2u657_40 423A                   i2u673_40 30C2  
                 i2u577_40 327C                   i2u489_40 46E0                   i2u497_40 4E34  
                 i2u569_40 130E                   i2u585_40 414C                   i2u649_40 4AE6  
                 i2u681_40 2ABA                   i2u665_41 491E                   i2u657_41 4236  
                 i2u673_41 30BE                   i2u577_41 3276                   i2u489_41 46DC  
                 i2u497_41 4E30                   i2u569_41 130A                   i2u585_41 4148  
                 i2u649_41 4AE2                   i2u681_41 2AB6                   i2u674_40 30D2  
                 i2u578_40 327E                   i2u498_40 3CC6                   i2u682_40 2ACE  
                 i2u674_41 30CE                   i2u498_41 3CC2                   i2u682_41 2ACA  
                 i2u659_40 48D0                   i2u675_40 30E0                   i2u579_40 3294  
                 i2u499_40 3CFA                   i2u683_40 2B08                   i2u659_41 48C8  
                 i2u675_41 30DC                   i2u579_41 3290                   i2u683_41 2B04  
                 i2u499_45 3CF0                   i2u676_40 311A                   i2u668_40 2F9A  
                 i2u676_41 3116                   i2u668_41 2F96                   i2u677_40 3128  
                 i2u669_40 2FA8                   i2u677_41 3124                   i2u669_41 2FA4  
                 i2u678_40 4F16                   i2u678_41 4F12                   i2u679_40 28CA  
                 i2u679_41 28C6                   _RCONbits 000FD0                   Lcd_Out@x 0004  
         __CFG_WDTPS$32768 000000                   Lcd_Out@y 0009                  _vfpfcnvrt 13E8  
             Lcd_Init@data 0155                 _ADCON0bits 000FC2          ___wmul@multiplier 0001  
            ??_mostrar_dec 0174              ??_mostrar_inc 015A            PWM_generar@fpwm 0160  
          PWM_generar@duty 015E          __CFG_CFGPLLEN$OFF 000000               _isspace$1518 0007  
             Lcd_Out2@data 000A                   _Lcd_Init 3818                   _Lcd_Out2 4170  
               vfpfcnvrt@c 00AB                 vfpfcnvrt@f 00A4          ___lmul@multiplier 0151  
              _INTCON2bits 000FF1                _INTCON3bits 000FF0                  copy_data0 4C64  
              ??_Dutty_Pwm 017C           __size_of_Lcd_Cmd 0130           __size_of_Lcd_Out 00A4  
               _EECON1bits 000FA6             _eeprom_guardar 4EC4                   __Hrparam 0000  
               vfprintf@ap 0059                   __Lrparam 0000                 vfprintf@fp 0055  
       __CFG_BOREN$SBORDIS 000000           __size_of___aodiv 0188           __size_of___fladd 04C0  
         __size_of___aomod 0164           __size_of___fldiv 039A           __size_of___awdiv 00C4  
         __size_of___flneg 0038           __size_of___awmod 00B0           __size_of___flmul 042A  
         __size_of___flsub 0046           __size_of___fltol 0106           __size_of___lldiv 00A6  
               ?_vfpfcnvrt 004B           __size_of___lwdiv 0076            ___aodiv@divisor 0009  
          mostrar_dec@duty 0172            ___aodiv@counter 0011           __size_of_delay_s 003C  
       ___fpclassifyf@F463 00EC                 sprintf@fmt 00AE                   ___xxtofl 2F88  
               strcat@dest 000F           __size_of_isdigit 0038             Lcd_Chr_CP@data 0003  
                 _dtoa$960 002E            ___lwdiv@divisor 0153           __size_of_isspace 0052  
          ___lwdiv@counter 0157           __size_of_segment 0122                   __ptext10 3B8E  
                 __ptext11 4942                   __ptext20 4EF0                   __ptext12 2B34  
                 __ptext21 4F1C                   __ptext13 49B8                   __ptext30 2D76  
                 __ptext22 4BAC                   __ptext14 475C                   __ptext31 3EBA  
                 __ptext23 4A8E                   __ptext15 4DAA                   __ptext40 4602  
                 __ptext32 3CB0                   __ptext24 13E8                   __ptext16 4F68  
                 __ptext41 43CC                   __ptext33 4CE0                   __ptext25 409A  
                 __ptext50 32CC                   __ptext42 259E                   __ptext34 191A  
                 __ptext26 0836                   __ptext51 313C                   __ptext43 4490  
                 __ptext35 4E1E                   __ptext27 4AF0                   __ptext19 4F88  
                 __ptext60 48A6                   __ptext52 4BFE                   __ptext44 4E8E  
                 __ptext36 1DDA                   __ptext28 4DE6                   __ptext53 4E56  
                 __ptext45 4D26                   __ptext37 3DB6                   __ptext29 4B50  
                 __ptext54 4F42                   __ptext46 423C                   __ptext38 46B2  
                 __ptext55 2F88                   __ptext47 4F9A                   __ptext39 2204  
                 __ptext56 4170                   __ptext48 4D6A                   __ptext57 4802  
                 __ptext49 3454                   __ptext58 3942                   __ptext59 36E8  
         __size_of_isupper 0038            mostrar_inc@duty 0158        __end_of_mostrar_dec 43CC  
      __end_of_mostrar_inc 4A8E           __size_of_sprintf 0052           __size_of_tolower 0060  
            Dutty_Pwm@fpwm 0178                 strcpy@dest 0005           __size_of_strncmp 00D6  
            ??_PWM_generar 0162                Lcd_Cmd@data 0153     __end_of_eeprom_guardar 4EF0  
            __size_of_atoi 0190              __size_of_main 00B0              __size_of_dtoa 02E0  
    __end_ofi2_eeprom_leer 4F96                   _segment2 3B8E   __end_ofi2_eeprom_guardar 4F1C  
                 efgtoa@fp 003F                   efgtoa@ne 0076                   efgtoa@pp 0072  
                 efgtoa@ou 0060                   int$flags 005F                   _vfprintf 4A8E  
         ___aomod@dividend 0001             _vfpfcnvrt$1014 00A2             _vfpfcnvrt$1009 00A0  
              Lcd_Out@data 000A                 _INTCONbits 000FF2                   isdigit@c 0001  
           mostrar_dec@par 0176                   intlevel1 0000                   intlevel2 0000  
                sprintf@ap 00B6                  strcat@src 0011                   isspace@c 0001  
           mostrar_inc@par 015C           ___lldiv@dividend 0151            ?_eeprom_guardar 0151  
                strcpy@src 0007                   isupper@c 0001                  strncmp@_l 0001  
                strncmp@_r 0003        __end_of_PWM_generar 2D76                efgtoa@nmode 007E  
     __CFG_CPUDIV$NOCLKDIV 000000            segment@centenas 0151            ___aomod@divisor 0009  
              ??_vfpfcnvrt 0051            ___aomod@counter 0011           i2eeprom_leer@DIR 0001  
                 sprintf@f 00B8                   tolower@c 0007                   sprintf@s 00AC  
   __size_of___fpclassifyf 00FE           ___lldiv@quotient 0159                _mostrar_dec 4306  
              _mostrar_inc 4A24                   strncmp@l 0008                   strncmp@n 0005  
                 strncmp@r 000A              ___fladd@signs 000D         __CFG_FOSC$INTOSCIO 000000  
             ___aodiv@sign 0012               ___fladd@aexp 000E               ___fladd@bexp 000F  
             ?_eeprom_leer 0151               ___aomod@sign 0012  
