

Microchip MPLAB XC8 Assembler V2.10 build 88905656 
                                                                                               Wed May 19 14:26:42 2021

Microchip MPLAB XC8 C Compiler v2.10 (Free license) build 20190730164152 Og1 
     1                           	processor	18F45K50
     2                           	fnconf	rparam,??,?,0
     3                           	opt	pw 120
     4                           	opt	flic
     5                           	psect	idataBANK0,global,class=CODE,delta=1,noexec
     6                           	psect	cinit,global,reloc=2,class=CODE,delta=1
     7                           	psect	bssCOMRAM,global,class=COMRAM,space=1,delta=1,noexec
     8                           	psect	bssBANK0,global,class=BANK0,space=1,delta=1,lowdata,noexec
     9                           	psect	dataBANK0,global,class=BANK0,space=1,delta=1,lowdata,noexec
    10                           	psect	cstackBANK0,global,class=BANK0,space=1,delta=1,noexec
    11                           	psect	cstackCOMRAM,global,class=COMRAM,space=1,delta=1,noexec
    12                           	psect	text0,global,reloc=2,class=CODE,delta=1
    13                           	psect	text1,global,reloc=2,class=CODE,delta=1
    14                           	psect	text2,global,reloc=2,class=CODE,delta=1
    15                           	psect	text3,global,reloc=2,class=CODE,delta=1
    16                           	psect	text4,global,reloc=2,class=CODE,delta=1
    17                           	psect	text5,global,reloc=2,class=CODE,delta=1
    18                           	psect	text6,global,reloc=2,class=CODE,delta=1
    19                           	psect	text7,global,reloc=2,class=CODE,delta=1
    20                           	psect	text8,global,reloc=2,class=CODE,delta=1
    21                           	psect	text9,global,reloc=2,class=CODE,delta=1,group=1
    22                           	psect	text10,global,reloc=2,class=CODE,delta=1
    23                           	psect	text11,global,reloc=2,class=CODE,delta=1,group=1
    24                           	psect	text12,global,reloc=2,class=CODE,delta=1,group=1
    25                           	psect	text13,global,reloc=2,class=CODE,delta=1
    26                           	psect	text14,global,reloc=2,class=CODE,delta=1
    27                           	psect	intcodelo,global,reloc=2,class=CODE,delta=1
    28                           	psect	intcode,global,reloc=2,class=CODE,delta=1
    29                           	psect	intcode_body,global,reloc=2,class=CODE,delta=1
    30                           	psect	text17,global,reloc=2,class=CODE,delta=1
    31                           	psect	text18,global,reloc=2,class=CODE,delta=1
    32                           	psect	text19,global,reloc=2,class=CODE,delta=1,group=1
    33                           	psect	text20,global,reloc=2,class=CODE,delta=1,group=1
    34                           	psect	text21,global,reloc=2,class=CODE,delta=1
    35                           	psect	intsave_regs,global,class=BIGRAM,space=1,delta=1,noexec
    36                           	psect	rparam,global,class=COMRAM,space=1,delta=1,noexec
    37                           	psect	temp,global,ovrld,common,class=COMRAM,space=1,delta=1
    38  0000                     
    39                           ; Version 2.10
    40                           ; Generated 31/07/2019 GMT
    41                           ; 
    42                           ; Copyright © 2019, Microchip Technology Inc. and its subsidiaries ("Microchip")
    43                           ; All rights reserved.
    44                           ; 
    45                           ; This software is developed by Microchip Technology Inc. and its subsidiaries ("Microch
      +                          ip").
    46                           ; 
    47                           ; Redistribution and use in source and binary forms, with or without modification, are
    48                           ; permitted provided that the following conditions are met:
    49                           ; 
    50                           ;     1. Redistributions of source code must retain the above copyright notice, this lis
      +                          t of
    51                           ;        conditions and the following disclaimer.
    52                           ; 
    53                           ;     2. Redistributions in binary form must reproduce the above copyright notice, this 
      +                          list
    54                           ;        of conditions and the following disclaimer in the documentation and/or other
    55                           ;        materials provided with the distribution.
    56                           ; 
    57                           ;     3. Microchip's name may not be used to endorse or promote products derived from th
      +                          is
    58                           ;        software without specific prior written permission.
    59                           ; 
    60                           ; THIS SOFTWARE IS PROVIDED BY MICROCHIP "AS IS" AND ANY EXPRESS OR IMPLIED WARRANTIES,
    61                           ; INCLUDING, BUT NOT LIMITED TO, THE IMPLIED WARRANTIES OF MERCHANTABILITY AND FITNESS F
      +                          OR
    62                           ; PURPOSE ARE DISCLAIMED.  IN NO EVENT SHALL MICROCHIP BE LIABLE FOR ANY DIRECT, INDIREC
      +                          T,
    63                           ; INCIDENTAL, SPECIAL, EXEMPLARY, OR CONSEQUENTIAL DAMAGES (INCLUDING BUT NOT LIMITED TO
    64                           ; PROCUREMENT OF SUBSTITUTE GOODS OR SERVICES; LOSS OF USE, DATA OR PROFITS; OR BUSINESS
    65                           ; INTERRUPTION) HOWSOEVER CAUSED AND ON ANY THEORY OF LIABILITY, WHETHER IN CONTRACT, ST
      +                          RICT
    66                           ; LIABILITY, OR TORT (INCLUDING NEGLIGENCE OR OTHERWISE) ARISING IN ANY WAY OUT OF THE U
      +                          SE OF
    67                           ; THIS SOFTWARE, EVEN IF ADVISED OF THE POSSIBILITY OF SUCH DAMAGE.
    68                           ; 
    69                           ; 
    70                           ; Code-generator required, PIC18F45K50 Definitions
    71                           ; 
    72                           ; SFR Addresses
    73  0000                     
    74                           	psect	idataBANK0
    75  001204                     __pidataBANK0:
    76                           	opt callstack 0
    77                           
    78                           ;initializer for _CEN2
    79  001204  000B               	dw	11
    80                           
    81                           ;initializer for _CEN
    82  001206  0001               	dw	1
    83  0000                     _ANSELD	set	3934
    84  0000                     _ANSELB	set	3932
    85  0000                     _ANSELE	set	3935
    86  0000                     _ANSELA	set	3931
    87  0000                     _ANSELC	set	3933
    88  0000                     _PORTDbits	set	3971
    89  0000                     _TRISDbits	set	3989
    90  0000                     _PIR2bits	set	4001
    91  0000                     _EECON2	set	4007
    92  0000                     _EECON1bits	set	4006
    93  0000                     _EEDATA	set	4008
    94  0000                     _EEADR	set	4009
    95  0000                     _ADCON0bits	set	4034
    96  0000                     _ADCON0	set	4034
    97  0000                     _ADRESL	set	4035
    98  0000                     _ADRESH	set	4036
    99  0000                     _ADCON2	set	4032
   100  0000                     _ADCON1	set	4033
   101  0000                     _LATEbits	set	3981
   102  0000                     _PORTD	set	3971
   103  0000                     _TRISB	set	3987
   104  0000                     _LATB	set	3978
   105  0000                     _TRISE	set	3990
   106  0000                     _LATE	set	3981
   107  0000                     _PORTE	set	3972
   108  0000                     _TRISA	set	3986
   109  0000                     _LATA	set	3977
   110  0000                     _TRISC	set	3988
   111  0000                     _PORTC	set	3970
   112  0000                     _OSCCON	set	4051
   113  0000                     _TMR2	set	4028
   114  0000                     _T2CONbits	set	4026
   115  0000                     _CCPR2L	set	3984
   116  0000                     _CCP2CON	set	3991
   117  0000                     _PR2	set	4027
   118  0000                     _T2CON	set	4026
   119  0000                     _TRISCbits	set	3988
   120  0000                     _RCONbits	set	4048
   121  0000                     _INTCON2bits	set	4081
   122  0000                     _INTCON3bits	set	4080
   123  0000                     _PORTBbits	set	3969
   124  0000                     _PORTB	set	3969
   125  0000                     _PORTA	set	3968
   126  0000                     _LATBbits	set	3978
   127  0000                     _INTCONbits	set	4082
   128  0000                     _GO	set	32273
   129  0000                     _ADON	set	32272
   130                           
   131                           ; #config settings
   132  0000                     
   133                           	psect	cinit
   134  001106                     __pcinit:
   135                           	opt callstack 0
   136  001106                     start_initialization:
   137                           	opt callstack 0
   138  001106                     __initialization:
   139                           	opt callstack 0
   140                           
   141                           ; Initialize objects allocated to BANK0 (4 bytes)
   142                           ; load TBLPTR registers with __pidataBANK0
   143  001106  0E04               	movlw	low __pidataBANK0
   144  001108  6EF6               	movwf	tblptrl,c
   145  00110A  0E12               	movlw	high __pidataBANK0
   146  00110C  6EF7               	movwf	tblptrh,c
   147  00110E  0E00               	movlw	low (__pidataBANK0 shr (0+16))
   148  001110  6EF8               	movwf	tblptru,c
   149  001112  EE00  F091         	lfsr	0,__pdataBANK0
   150  001116  EE10 F004          	lfsr	1,4
   151  00111A                     copy_data0:
   152  00111A  0009               	tblrd		*+
   153  00111C  CFF5 FFEE          	movff	tablat,postinc0
   154  001120  50E5               	movf	postdec1,w,c
   155  001122  50E1               	movf	fsr1l,w,c
   156  001124  E1FA               	bnz	copy_data0
   157                           
   158                           ; Clear objects allocated to BANK0 (2 bytes)
   159  001126  0100               	movlb	0
   160  001128  6B96               	clrf	(__pbssBANK0+1)& (0+255),b
   161  00112A  6B95               	clrf	__pbssBANK0& (0+255),b
   162                           
   163                           ; Clear objects allocated to COMRAM (4 bytes)
   164  00112C  6A39               	clrf	(__pbssCOMRAM+3)& (0+255),c
   165  00112E  6A38               	clrf	(__pbssCOMRAM+2)& (0+255),c
   166  001130  6A37               	clrf	(__pbssCOMRAM+1)& (0+255),c
   167  001132  6A36               	clrf	__pbssCOMRAM& (0+255),c
   168  001134                     end_of_initialization:
   169                           	opt callstack 0
   170  001134                     __end_of__initialization:
   171                           	opt callstack 0
   172  001134  903A               	bcf	int$flags,0,c	;clear compiler interrupt flag (level 1)
   173  001136  923A               	bcf	int$flags,1,c	;clear compiler interrupt flag (level 2)
   174  001138  0E00               	movlw	low (__Lmediumconst shr (0+16))
   175  00113A  6EF8               	movwf	tblptru,c
   176  00113C  0100               	movlb	0
   177  00113E  EF1E  F007         	goto	_main	;jump to C main() function
   178                           
   179                           	psect	bssCOMRAM
   180  000036                     __pbssCOMRAM:
   181                           	opt callstack 0
   182  000036                     _eprom:
   183                           	opt callstack 0
   184  000036                     	ds	2
   185  000038                     _flag:
   186                           	opt callstack 0
   187  000038                     	ds	2
   188                           
   189                           	psect	bssBANK0
   190  000095                     __pbssBANK0:
   191                           	opt callstack 0
   192  000095                     _delay:
   193                           	opt callstack 0
   194  000095                     	ds	2
   195                           
   196                           	psect	dataBANK0
   197  000091                     __pdataBANK0:
   198                           	opt callstack 0
   199  000091                     _CEN2:
   200                           	opt callstack 0
   201  000091                     	ds	2
   202  000093                     _CEN:
   203                           	opt callstack 0
   204  000093                     	ds	2
   205                           
   206                           	psect	cstackBANK0
   207  000060                     __pcstackBANK0:
   208                           	opt callstack 0
   209  000060                     ??_INT_EXT_1:
   210                           
   211                           ; 1 bytes @ 0x0
   212  000060                     	ds	1
   213  000061                     ?___lwdiv:
   214                           	opt callstack 0
   215  000061                     ?___lmul:
   216                           	opt callstack 0
   217  000061                     ?___lldiv:
   218                           	opt callstack 0
   219  000061                     segment@centenas:
   220                           	opt callstack 0
   221  000061                     segment2@centenas:
   222                           	opt callstack 0
   223  000061                     delay_s@seconds:
   224                           	opt callstack 0
   225  000061                     eeprom_guardar@DIR:
   226                           	opt callstack 0
   227  000061                     eeprom_leer@DIR:
   228                           	opt callstack 0
   229  000061                     ___lwdiv@dividend:
   230                           	opt callstack 0
   231  000061                     ___lmul@multiplier:
   232                           	opt callstack 0
   233  000061                     ___lldiv@dividend:
   234                           	opt callstack 0
   235                           
   236                           ; 4 bytes @ 0x1
   237  000061                     	ds	2
   238  000063                     ??_delay_s:
   239  000063                     eeprom_guardar@DATE:
   240                           	opt callstack 0
   241  000063                     ___lwdiv@divisor:
   242                           	opt callstack 0
   243                           
   244                           ; 2 bytes @ 0x3
   245  000063                     	ds	1
   246  000064                     
   247                           ; 1 bytes @ 0x4
   248  000064                     	ds	1
   249  000065                     ___lwdiv@quotient:
   250                           	opt callstack 0
   251  000065                     ___lmul@multiplicand:
   252                           	opt callstack 0
   253  000065                     ___lldiv@divisor:
   254                           	opt callstack 0
   255                           
   256                           ; 4 bytes @ 0x5
   257  000065                     	ds	2
   258  000067                     ___lwdiv@counter:
   259                           	opt callstack 0
   260                           
   261                           ; 1 bytes @ 0x7
   262  000067                     	ds	1
   263  000068                     mostrar_inc@duty:
   264                           	opt callstack 0
   265                           
   266                           ; 2 bytes @ 0x8
   267  000068                     	ds	1
   268  000069                     ___lmul@product:
   269                           	opt callstack 0
   270  000069                     ___lldiv@quotient:
   271                           	opt callstack 0
   272                           
   273                           ; 4 bytes @ 0x9
   274  000069                     	ds	1
   275  00006A                     mostrar_inc@por_pwm:
   276                           	opt callstack 0
   277                           
   278                           ; 2 bytes @ 0xA
   279  00006A                     	ds	2
   280  00006C                     mostrar_inc@par:
   281                           	opt callstack 0
   282                           
   283                           ; 2 bytes @ 0xC
   284  00006C                     	ds	1
   285  00006D                     ___lldiv@counter:
   286                           	opt callstack 0
   287                           
   288                           ; 1 bytes @ 0xD
   289  00006D                     	ds	1
   290  00006E                     PWM_generar@duty:
   291                           	opt callstack 0
   292                           
   293                           ; 2 bytes @ 0xE
   294  00006E                     	ds	2
   295  000070                     PWM_generar@fpwm:
   296                           	opt callstack 0
   297                           
   298                           ; 2 bytes @ 0x10
   299  000070                     	ds	2
   300  000072                     ??_PWM_generar:
   301                           
   302                           ; 1 bytes @ 0x12
   303  000072                     	ds	4
   304  000076                     PWM_generar@prescalador:
   305                           	opt callstack 0
   306                           
   307                           ; 2 bytes @ 0x16
   308  000076                     	ds	2
   309  000078                     PWM_generar@AuxCCP2CON:
   310                           	opt callstack 0
   311                           
   312                           ; 2 bytes @ 0x18
   313  000078                     	ds	2
   314  00007A                     PWM_generar@PR2cal:
   315                           	opt callstack 0
   316                           
   317                           ; 4 bytes @ 0x1A
   318  00007A                     	ds	4
   319  00007E                     PWM_generar@AuxCCPR2L:
   320                           	opt callstack 0
   321                           
   322                           ; 4 bytes @ 0x1E
   323  00007E                     	ds	4
   324  000082                     mostrar_dec@duty:
   325                           	opt callstack 0
   326                           
   327                           ; 2 bytes @ 0x22
   328  000082                     	ds	2
   329  000084                     mostrar_dec@por_pwm:
   330                           	opt callstack 0
   331                           
   332                           ; 2 bytes @ 0x24
   333  000084                     	ds	2
   334  000086                     mostrar_dec@par:
   335                           	opt callstack 0
   336                           
   337                           ; 2 bytes @ 0x26
   338  000086                     	ds	2
   339  000088                     Dutty_Pwm@fpwm:
   340                           	opt callstack 0
   341                           
   342                           ; 2 bytes @ 0x28
   343  000088                     	ds	2
   344  00008A                     Dutty_Pwm@delay:
   345                           	opt callstack 0
   346                           
   347                           ; 2 bytes @ 0x2A
   348  00008A                     	ds	2
   349  00008C                     Dutty_Pwm@i:
   350                           	opt callstack 0
   351                           
   352                           ; 2 bytes @ 0x2C
   353  00008C                     	ds	2
   354  00008E                     Dutty_Pwm@k:
   355                           	opt callstack 0
   356                           
   357                           ; 2 bytes @ 0x2E
   358  00008E                     	ds	2
   359  000090                     ??_main:
   360                           
   361                           ; 1 bytes @ 0x30
   362  000090                     	ds	1
   363                           
   364                           	psect	cstackCOMRAM
   365  000001                     __pcstackCOMRAM:
   366                           	opt callstack 0
   367  000001                     ?_ADC_Read:
   368                           	opt callstack 0
   369  000001                     ?___xxtofl:
   370                           	opt callstack 0
   371  000001                     ADC_Read@channel:
   372                           	opt callstack 0
   373  000001                     i2eeprom_guardar@DIR:
   374                           	opt callstack 0
   375  000001                     i2eeprom_leer@DIR:
   376                           	opt callstack 0
   377  000001                     ___xxtofl@val:
   378                           	opt callstack 0
   379                           
   380                           ; 4 bytes @ 0x0
   381  000001                     	ds	2
   382  000003                     ??_ADC_Read:
   383  000003                     i2eeprom_guardar@DATE:
   384                           	opt callstack 0
   385                           
   386                           ; 1 bytes @ 0x2
   387  000003                     	ds	1
   388  000004                     
   389                           ; 1 bytes @ 0x3
   390  000004                     	ds	1
   391  000005                     ??___xxtofl:
   392                           
   393                           ; 1 bytes @ 0x4
   394  000005                     	ds	2
   395  000007                     ADC_Read@digital:
   396                           	opt callstack 0
   397                           
   398                           ; 2 bytes @ 0x6
   399  000007                     	ds	2
   400  000009                     ___xxtofl@sign:
   401                           	opt callstack 0
   402                           
   403                           ; 1 bytes @ 0x8
   404  000009                     	ds	1
   405  00000A                     ___xxtofl@exp:
   406                           	opt callstack 0
   407                           
   408                           ; 1 bytes @ 0x9
   409  00000A                     	ds	1
   410  00000B                     ___xxtofl@arg:
   411                           	opt callstack 0
   412                           
   413                           ; 4 bytes @ 0xA
   414  00000B                     	ds	4
   415  00000F                     ?___flmul:
   416                           	opt callstack 0
   417  00000F                     ___flmul@b:
   418                           	opt callstack 0
   419                           
   420                           ; 4 bytes @ 0xE
   421  00000F                     	ds	4
   422  000013                     ___flmul@a:
   423                           	opt callstack 0
   424                           
   425                           ; 4 bytes @ 0x12
   426  000013                     	ds	4
   427  000017                     ??___flmul:
   428                           
   429                           ; 1 bytes @ 0x16
   430  000017                     	ds	4
   431  00001B                     ___flmul@sign:
   432                           	opt callstack 0
   433                           
   434                           ; 1 bytes @ 0x1A
   435  00001B                     	ds	1
   436  00001C                     ___flmul@grs:
   437                           	opt callstack 0
   438                           
   439                           ; 4 bytes @ 0x1B
   440  00001C                     	ds	4
   441  000020                     ___flmul@aexp:
   442                           	opt callstack 0
   443                           
   444                           ; 1 bytes @ 0x1F
   445  000020                     	ds	1
   446  000021                     ___flmul@bexp:
   447                           	opt callstack 0
   448                           
   449                           ; 1 bytes @ 0x20
   450  000021                     	ds	1
   451  000022                     ___flmul@prod:
   452                           	opt callstack 0
   453                           
   454                           ; 4 bytes @ 0x21
   455  000022                     	ds	4
   456  000026                     ___flmul@temp:
   457                           	opt callstack 0
   458                           
   459                           ; 2 bytes @ 0x25
   460  000026                     	ds	2
   461  000028                     ??_INT_EX_0:
   462                           
   463                           ; 1 bytes @ 0x27
   464  000028                     	ds	8
   465  000030                     INT_EX_0@digital:
   466                           	opt callstack 0
   467                           
   468                           ; 2 bytes @ 0x2F
   469  000030                     	ds	2
   470  000032                     INT_EX_0@i:
   471                           	opt callstack 0
   472                           
   473                           ; 2 bytes @ 0x31
   474  000032                     	ds	2
   475  000034                     INT_EX_0@j:
   476                           	opt callstack 0
   477                           
   478                           ; 2 bytes @ 0x33
   479  000034                     	ds	2
   480                           
   481 ;;
   482 ;;Main: autosize = 0, tempsize = 1, incstack = 0, save=0
   483 ;;
   484 ;; *************** function _main *****************
   485 ;; Defined at:
   486 ;;		line 74 in file "main.c"
   487 ;; Parameters:    Size  Location     Type
   488 ;;		None
   489 ;; Auto vars:     Size  Location     Type
   490 ;;  m               2    0        int 
   491 ;;  i               2    0        int 
   492 ;; Return value:  Size  Location     Type
   493 ;;                  1    wreg      void 
   494 ;; Registers used:
   495 ;;		wreg, status,2, status,0, cstack
   496 ;; Tracked objects:
   497 ;;		On entry : 0/0
   498 ;;		On exit  : 0/0
   499 ;;		Unchanged: 0/0
   500 ;; Data sizes:     COMRAM   BANK0   BANK1   BANK2   BANK3   BANK4   BANK5   BANK6   BANK7
   501 ;;      Params:         0       0       0       0       0       0       0       0       0
   502 ;;      Locals:         0       0       0       0       0       0       0       0       0
   503 ;;      Temps:          0       1       0       0       0       0       0       0       0
   504 ;;      Totals:         0       1       0       0       0       0       0       0       0
   505 ;;Total ram usage:        1 bytes
   506 ;; Hardware stack levels required when called:    7
   507 ;; This function calls:
   508 ;;		_ADC_Init
   509 ;;		_Dutty_Pwm
   510 ;;		_declet
   511 ;;		_eeprom_guardar
   512 ;;		_eeprom_leer
   513 ;; This function is called by:
   514 ;;		Startup code after reset
   515 ;; This function uses a non-reentrant model
   516 ;;
   517                           
   518                           	psect	text0
   519  000E3C                     __ptext0:
   520                           	opt callstack 0
   521  000E3C                     _main:
   522                           	opt callstack 24
   523  000E3C                     
   524                           ;main.c: 75:     int i,m;;main.c: 76:     INTCONbits.INT0IE=1;
   525  000E3C  88F2               	bsf	242,4,c	;volatile
   526                           
   527                           ;main.c: 77:     INTCON3bits.INT1IE=1;
   528  000E3E  86F0               	bsf	240,3,c	;volatile
   529                           
   530                           ;main.c: 78:     INTCON2bits.INTEDG0=0;
   531  000E40  9CF1               	bcf	241,6,c	;volatile
   532                           
   533                           ;main.c: 79:     INTCON2bits.INTEDG1=0;
   534  000E42  9AF1               	bcf	241,5,c	;volatile
   535                           
   536                           ;main.c: 80:     RCONbits.IPEN=1;
   537  000E44  8ED0               	bsf	208,7,c	;volatile
   538                           
   539                           ;main.c: 81:     INTCONbits.GIEH=1;
   540  000E46  8EF2               	bsf	242,7,c	;volatile
   541                           
   542                           ;main.c: 82:     INTCONbits.GIEL=1;
   543  000E48  8CF2               	bsf	242,6,c	;volatile
   544  000E4A                     
   545                           ;main.c: 85:     declet();
   546  000E4A  EC60  F008         	call	_declet	;wreg free
   547                           
   548                           ;main.c: 86:     ADC_Init();
   549  000E4E  ECEB  F008         	call	_ADC_Init	;wreg free
   550                           
   551                           ;main.c: 87:     eeprom_guardar(0,0);
   552  000E52  0E00               	movlw	0
   553  000E54  0100               	movlb	0	; () banked
   554  000E56  6F62               	movwf	(eeprom_guardar@DIR+1)& (0+255),b
   555  000E58  0E00               	movlw	0
   556  000E5A  6F61               	movwf	eeprom_guardar@DIR& (0+255),b
   557  000E5C  0E00               	movlw	0
   558  000E5E  6F63               	movwf	eeprom_guardar@DATE& (0+255),b
   559  000E60  ECBF  F008         	call	_eeprom_guardar	;wreg free
   560  000E64                     
   561                           ;main.c: 88:     eprom=eeprom_leer(0x00);
   562  000E64  0E00               	movlw	0
   563  000E66  0100               	movlb	0	; () banked
   564  000E68  6F62               	movwf	(eeprom_leer@DIR+1)& (0+255),b
   565  000E6A  0E00               	movlw	0
   566  000E6C  6F61               	movwf	eeprom_leer@DIR& (0+255),b
   567  000E6E  ECF4  F008         	call	_eeprom_leer	;wreg free
   568  000E72  0100               	movlb	0	; () banked
   569  000E74  6F90               	movwf	??_main& (0+255),b
   570  000E76  5190               	movf	??_main& (0+255),w,b
   571  000E78  6E36               	movwf	_eprom^0,c
   572  000E7A  6A37               	clrf	(_eprom+1)^0,c
   573  000E7C                     l2331:
   574                           
   575                           ;main.c: 91:         if(flag==1){Dutty_Pwm(1000,delay);}
   576  000E7C  0438               	decf	_flag^0,w,c
   577  000E7E  1039               	iorwf	(_flag+1)^0,w,c
   578  000E80  A4D8               	btfss	status,2,c
   579  000E82  EF45  F007         	goto	u1901
   580  000E86  EF47  F007         	goto	u1900
   581  000E8A                     u1901:
   582  000E8A  EF54  F007         	goto	l2335
   583  000E8E                     u1900:
   584  000E8E  0E03               	movlw	3
   585  000E90  0100               	movlb	0	; () banked
   586  000E92  6F89               	movwf	(Dutty_Pwm@fpwm+1)& (0+255),b
   587  000E94  0EE8               	movlw	232
   588  000E96  6F88               	movwf	Dutty_Pwm@fpwm& (0+255),b
   589  000E98  C095  F08A         	movff	_delay,Dutty_Pwm@delay
   590  000E9C  C096  F08B         	movff	_delay+1,Dutty_Pwm@delay+1
   591  000EA0  ECF7  F005         	call	_Dutty_Pwm	;wreg free
   592  000EA4  EF3E  F007         	goto	l2331
   593  000EA8                     l2335:
   594  000EA8  5038               	movf	_flag^0,w,c
   595  000EAA  1039               	iorwf	(_flag+1)^0,w,c
   596  000EAC  A4D8               	btfss	status,2,c
   597  000EAE  EF5B  F007         	goto	u1911
   598  000EB2  EF5D  F007         	goto	u1910
   599  000EB6                     u1911:
   600  000EB6  EF3E  F007         	goto	l2331
   601  000EBA                     u1910:
   602  000EBA  0E03               	movlw	3
   603  000EBC  0100               	movlb	0	; () banked
   604  000EBE  6F89               	movwf	(Dutty_Pwm@fpwm+1)& (0+255),b
   605  000EC0  0EE8               	movlw	232
   606  000EC2  6F88               	movwf	Dutty_Pwm@fpwm& (0+255),b
   607  000EC4  0E00               	movlw	0
   608  000EC6  6F8B               	movwf	(Dutty_Pwm@delay+1)& (0+255),b
   609  000EC8  0E00               	movlw	0
   610  000ECA  6F8A               	movwf	Dutty_Pwm@delay& (0+255),b
   611  000ECC  ECF7  F005         	call	_Dutty_Pwm	;wreg free
   612  000ED0  EF3E  F007         	goto	l2331
   613  000ED4  EF1B  F000         	goto	start
   614  000ED8                     __end_of_main:
   615                           	opt callstack 0
   616                           
   617 ;; *************** function _eeprom_leer *****************
   618 ;; Defined at:
   619 ;;		line 25 in file "eeprom.c"
   620 ;; Parameters:    Size  Location     Type
   621 ;;  DIR             2    1[BANK0 ] int 
   622 ;; Auto vars:     Size  Location     Type
   623 ;;		None
   624 ;; Return value:  Size  Location     Type
   625 ;;                  1    wreg      unsigned char 
   626 ;; Registers used:
   627 ;;		wreg, status,2
   628 ;; Tracked objects:
   629 ;;		On entry : 0/0
   630 ;;		On exit  : 0/0
   631 ;;		Unchanged: 0/0
   632 ;; Data sizes:     COMRAM   BANK0   BANK1   BANK2   BANK3   BANK4   BANK5   BANK6   BANK7
   633 ;;      Params:         0       2       0       0       0       0       0       0       0
   634 ;;      Locals:         0       0       0       0       0       0       0       0       0
   635 ;;      Temps:          0       0       0       0       0       0       0       0       0
   636 ;;      Totals:         0       2       0       0       0       0       0       0       0
   637 ;;Total ram usage:        2 bytes
   638 ;; Hardware stack levels used:    1
   639 ;; Hardware stack levels required when called:    3
   640 ;; This function calls:
   641 ;;		Nothing
   642 ;; This function is called by:
   643 ;;		_main
   644 ;; This function uses a non-reentrant model
   645 ;;
   646                           
   647                           	psect	text1
   648  0011E8                     __ptext1:
   649                           	opt callstack 0
   650  0011E8                     _eeprom_leer:
   651                           	opt callstack 27
   652  0011E8                     
   653                           ;eeprom.c: 26:     EEADR = DIR;
   654  0011E8  C061  FFA9         	movff	eeprom_leer@DIR,4009	;volatile
   655                           
   656                           ;eeprom.c: 27:     EECON1bits.EEPGD=0;
   657  0011EC  9EA6               	bcf	166,7,c	;volsfr
   658                           
   659                           ;eeprom.c: 28:     EECON1bits.CFGS=0;
   660  0011EE  9CA6               	bcf	166,6,c	;volsfr
   661  0011F0                     
   662                           ;eeprom.c: 29:     EECON1bits.RD;
   663  0011F0  50A6               	movf	166,w,c	;volsfr
   664  0011F2                     
   665                           ;eeprom.c: 30:     return EEDATA;
   666  0011F2  50A8               	movf	168,w,c	;volatile
   667  0011F4  0012               	return		;funcret
   668  0011F6                     __end_of_eeprom_leer:
   669                           	opt callstack 0
   670                           
   671 ;; *************** function _eeprom_guardar *****************
   672 ;; Defined at:
   673 ;;		line 9 in file "eeprom.c"
   674 ;; Parameters:    Size  Location     Type
   675 ;;  DIR             2    1[BANK0 ] int 
   676 ;;  DATE            1    3[BANK0 ] unsigned char 
   677 ;; Auto vars:     Size  Location     Type
   678 ;;		None
   679 ;; Return value:  Size  Location     Type
   680 ;;                  1    wreg      void 
   681 ;; Registers used:
   682 ;;		wreg, status,2
   683 ;; Tracked objects:
   684 ;;		On entry : 0/0
   685 ;;		On exit  : 0/0
   686 ;;		Unchanged: 0/0
   687 ;; Data sizes:     COMRAM   BANK0   BANK1   BANK2   BANK3   BANK4   BANK5   BANK6   BANK7
   688 ;;      Params:         0       3       0       0       0       0       0       0       0
   689 ;;      Locals:         0       0       0       0       0       0       0       0       0
   690 ;;      Temps:          0       0       0       0       0       0       0       0       0
   691 ;;      Totals:         0       3       0       0       0       0       0       0       0
   692 ;;Total ram usage:        3 bytes
   693 ;; Hardware stack levels used:    1
   694 ;; Hardware stack levels required when called:    3
   695 ;; This function calls:
   696 ;;		Nothing
   697 ;; This function is called by:
   698 ;;		_main
   699 ;;		_eeprom_guardar_cadena
   700 ;; This function uses a non-reentrant model
   701 ;;
   702                           
   703                           	psect	text2
   704  00117E                     __ptext2:
   705                           	opt callstack 0
   706  00117E                     _eeprom_guardar:
   707                           	opt callstack 27
   708  00117E                     
   709                           ;eeprom.c: 10:     EEADR = DIR;
   710  00117E  C061  FFA9         	movff	eeprom_guardar@DIR,4009	;volatile
   711                           
   712                           ;eeprom.c: 11:     EEDATA = DATE;
   713  001182  C063  FFA8         	movff	eeprom_guardar@DATE,4008	;volatile
   714                           
   715                           ;eeprom.c: 12:     EECON1bits.EEPGD=0;
   716  001186  9EA6               	bcf	166,7,c	;volsfr
   717                           
   718                           ;eeprom.c: 13:     EECON1bits.CFGS=0;
   719  001188  9CA6               	bcf	166,6,c	;volsfr
   720                           
   721                           ;eeprom.c: 14:     EECON1bits.WREN=1;
   722  00118A  84A6               	bsf	166,2,c	;volsfr
   723  00118C                     
   724                           ;eeprom.c: 16:     EECON2=0x55;
   725  00118C  0E55               	movlw	85
   726  00118E  6EA7               	movwf	167,c	;volsfr
   727                           
   728                           ;eeprom.c: 17:     EECON2=0x0AA;
   729  001190  0EAA               	movlw	170
   730  001192  6EA7               	movwf	167,c	;volsfr
   731  001194                     
   732                           ;eeprom.c: 18:     EECON1bits.WR=1;
   733  001194  82A6               	bsf	166,1,c	;volsfr
   734  001196                     l258:
   735  001196  A8A1               	btfss	161,4,c	;volatile
   736  001198  EFD0  F008         	goto	u1441
   737  00119C  EFD2  F008         	goto	u1440
   738  0011A0                     u1441:
   739  0011A0  EFCB  F008         	goto	l258
   740  0011A4                     u1440:
   741  0011A4                     
   742                           ;eeprom.c: 21:     PIR2bits.EEIF=0;
   743  0011A4  98A1               	bcf	161,4,c	;volatile
   744                           
   745                           ;eeprom.c: 22:     EECON1bits.WREN=0;
   746  0011A6  94A6               	bcf	166,2,c	;volsfr
   747  0011A8  0012               	return		;funcret
   748  0011AA                     __end_of_eeprom_guardar:
   749                           	opt callstack 0
   750                           
   751 ;; *************** function _declet *****************
   752 ;; Defined at:
   753 ;;		line 116 in file "process.c"
   754 ;; Parameters:    Size  Location     Type
   755 ;;		None
   756 ;; Auto vars:     Size  Location     Type
   757 ;;		None
   758 ;; Return value:  Size  Location     Type
   759 ;;                  1    wreg      void 
   760 ;; Registers used:
   761 ;;		wreg, status,2
   762 ;; Tracked objects:
   763 ;;		On entry : 0/0
   764 ;;		On exit  : 0/0
   765 ;;		Unchanged: 0/0
   766 ;; Data sizes:     COMRAM   BANK0   BANK1   BANK2   BANK3   BANK4   BANK5   BANK6   BANK7
   767 ;;      Params:         0       0       0       0       0       0       0       0       0
   768 ;;      Locals:         0       0       0       0       0       0       0       0       0
   769 ;;      Temps:          0       0       0       0       0       0       0       0       0
   770 ;;      Totals:         0       0       0       0       0       0       0       0       0
   771 ;;Total ram usage:        0 bytes
   772 ;; Hardware stack levels used:    1
   773 ;; Hardware stack levels required when called:    3
   774 ;; This function calls:
   775 ;;		Nothing
   776 ;; This function is called by:
   777 ;;		_main
   778 ;; This function uses a non-reentrant model
   779 ;;
   780                           
   781                           	psect	text3
   782  0010C0                     __ptext3:
   783                           	opt callstack 0
   784  0010C0                     _declet:
   785                           	opt callstack 27
   786  0010C0                     
   787                           ;process.c: 117:     OSCCON=0b01010111;
   788  0010C0  0E57               	movlw	87
   789  0010C2  6ED3               	movwf	211,c	;volatile
   790                           
   791                           ;process.c: 118:     PORTC=0;
   792  0010C4  0E00               	movlw	0
   793  0010C6  6E82               	movwf	130,c	;volatile
   794                           
   795                           ;process.c: 119:     TRISC=0;
   796  0010C8  0E00               	movlw	0
   797  0010CA  6E94               	movwf	148,c	;volatile
   798                           
   799                           ;process.c: 120:     PORTA=0;
   800  0010CC  0E00               	movlw	0
   801  0010CE  6E80               	movwf	128,c	;volatile
   802                           
   803                           ;process.c: 121:     LATA=0;
   804  0010D0  0E00               	movlw	0
   805  0010D2  6E89               	movwf	137,c	;volatile
   806                           
   807                           ;process.c: 122:     ANSELA=0;
   808  0010D4  0E00               	movlw	0
   809  0010D6  010F               	movlb	15	; () banked
   810  0010D8  6F5B               	movwf	91,b	;volatile
   811                           
   812                           ;process.c: 123:     TRISA=0;
   813  0010DA  0E00               	movlw	0
   814  0010DC  6E92               	movwf	146,c	;volatile
   815                           
   816                           ;process.c: 124:     PORTE=0;
   817  0010DE  0E00               	movlw	0
   818  0010E0  6E84               	movwf	132,c	;volatile
   819                           
   820                           ;process.c: 125:     LATE=0;
   821  0010E2  0E00               	movlw	0
   822  0010E4  6E8D               	movwf	141,c	;volatile
   823                           
   824                           ;process.c: 126:     ANSELE=0;
   825  0010E6  0E00               	movlw	0
   826  0010E8  6F5F               	movwf	95,b	;volatile
   827                           
   828                           ;process.c: 127:     TRISE=0;
   829  0010EA  0E00               	movlw	0
   830  0010EC  6E96               	movwf	150,c	;volatile
   831                           
   832                           ;process.c: 128:     PORTB=0;
   833  0010EE  0E00               	movlw	0
   834  0010F0  6E81               	movwf	129,c	;volatile
   835                           
   836                           ;process.c: 129:     LATB=0;
   837  0010F2  0E00               	movlw	0
   838  0010F4  6E8A               	movwf	138,c	;volatile
   839                           
   840                           ;process.c: 130:     ANSELB=0;
   841  0010F6  0E00               	movlw	0
   842  0010F8  6F5C               	movwf	92,b	;volatile
   843                           
   844                           ;process.c: 131:     TRISB=0;
   845  0010FA  0E00               	movlw	0
   846  0010FC  6E93               	movwf	147,c	;volatile
   847                           
   848                           ;process.c: 132:     PORTD=0;
   849  0010FE  0E00               	movlw	0
   850  001100  6E83               	movwf	131,c	;volatile
   851  001102                     
   852                           ; BSR set to: 15
   853                           ;process.c: 133:     LATEbits.LE0=0;
   854  001102  908D               	bcf	141,0,c	;volatile
   855  001104                     
   856                           ; BSR set to: 15
   857  001104  0012               	return		;funcret
   858  001106                     __end_of_declet:
   859                           	opt callstack 0
   860                           
   861 ;; *************** function _Dutty_Pwm *****************
   862 ;; Defined at:
   863 ;;		line 146 in file "process.c"
   864 ;; Parameters:    Size  Location     Type
   865 ;;  fpwm            2   40[BANK0 ] unsigned int 
   866 ;;  delay           2   42[BANK0 ] unsigned int 
   867 ;; Auto vars:     Size  Location     Type
   868 ;;  k               2   46[BANK0 ] int 
   869 ;;  i               2   44[BANK0 ] int 
   870 ;; Return value:  Size  Location     Type
   871 ;;                  1    wreg      void 
   872 ;; Registers used:
   873 ;;		wreg, status,2, status,0, cstack
   874 ;; Tracked objects:
   875 ;;		On entry : 0/0
   876 ;;		On exit  : 0/0
   877 ;;		Unchanged: 0/0
   878 ;; Data sizes:     COMRAM   BANK0   BANK1   BANK2   BANK3   BANK4   BANK5   BANK6   BANK7
   879 ;;      Params:         0       4       0       0       0       0       0       0       0
   880 ;;      Locals:         0       4       0       0       0       0       0       0       0
   881 ;;      Temps:          0       0       0       0       0       0       0       0       0
   882 ;;      Totals:         0       8       0       0       0       0       0       0       0
   883 ;;Total ram usage:        8 bytes
   884 ;; Hardware stack levels used:    1
   885 ;; Hardware stack levels required when called:    6
   886 ;; This function calls:
   887 ;;		_PWM_generar
   888 ;;		_delay_s
   889 ;;		_mostrar_dec
   890 ;;		_mostrar_inc
   891 ;; This function is called by:
   892 ;;		_main
   893 ;; This function uses a non-reentrant model
   894 ;;
   895                           
   896                           	psect	text4
   897  000BEE                     __ptext4:
   898                           	opt callstack 0
   899  000BEE                     _Dutty_Pwm:
   900                           	opt callstack 24
   901  000BEE                     
   902                           ;process.c: 146: void Dutty_Pwm(unsigned int fpwm, unsigned int delay);process.c: 147: {
      +                          ;process.c: 148:         int i, k=0;
   903  000BEE  0E00               	movlw	0
   904  000BF0  0100               	movlb	0	; () banked
   905  000BF2  6F8F               	movwf	(Dutty_Pwm@k+1)& (0+255),b
   906  000BF4  0E00               	movlw	0
   907  000BF6  6F8E               	movwf	Dutty_Pwm@k& (0+255),b
   908                           
   909                           ;process.c: 151:         for(i=0; i<20 ; i++){
   910  000BF8  0E00               	movlw	0
   911  000BFA  6F8D               	movwf	(Dutty_Pwm@i+1)& (0+255),b
   912  000BFC  0E00               	movlw	0
   913  000BFE  6F8C               	movwf	Dutty_Pwm@i& (0+255),b
   914  000C00                     l2059:
   915                           
   916                           ; BSR set to: 0
   917                           ;process.c: 153:             PWM_generar(k,fpwm);
   918  000C00  C08E  F06E         	movff	Dutty_Pwm@k,PWM_generar@duty
   919  000C04  C08F  F06F         	movff	Dutty_Pwm@k+1,PWM_generar@duty+1
   920  000C08  C088  F070         	movff	Dutty_Pwm@fpwm,PWM_generar@fpwm
   921  000C0C  C089  F071         	movff	Dutty_Pwm@fpwm+1,PWM_generar@fpwm+1
   922  000C10  EC32  F002         	call	_PWM_generar	;wreg free
   923                           
   924                           ;process.c: 154:             delay_s(delay);
   925  000C14  C08A  F061         	movff	Dutty_Pwm@delay,delay_s@seconds
   926  000C18  C08B  F062         	movff	Dutty_Pwm@delay+1,delay_s@seconds+1
   927  000C1C  ECA1  F008         	call	_delay_s	;wreg free
   928  000C20                     
   929                           ;process.c: 155:             k=k+5;
   930  000C20  0E05               	movlw	5
   931  000C22  0100               	movlb	0	; () banked
   932  000C24  258E               	addwf	Dutty_Pwm@k& (0+255),w,b
   933  000C26  6F8E               	movwf	Dutty_Pwm@k& (0+255),b
   934  000C28  0E00               	movlw	0
   935  000C2A  218F               	addwfc	(Dutty_Pwm@k+1)& (0+255),w,b
   936  000C2C  6F8F               	movwf	(Dutty_Pwm@k+1)& (0+255),b
   937  000C2E                     
   938                           ; BSR set to: 0
   939                           ;process.c: 156:             mostrar_inc(k);
   940  000C2E  C08E  F068         	movff	Dutty_Pwm@k,mostrar_inc@duty
   941  000C32  C08F  F069         	movff	Dutty_Pwm@k+1,mostrar_inc@duty+1
   942  000C36  EC2B  F008         	call	_mostrar_inc	;wreg free
   943  000C3A                     
   944                           ;process.c: 157:         }
   945  000C3A  0100               	movlb	0	; () banked
   946  000C3C  4B8C               	infsnz	Dutty_Pwm@i& (0+255),f,b
   947  000C3E  2B8D               	incf	(Dutty_Pwm@i+1)& (0+255),f,b
   948  000C40                     
   949                           ; BSR set to: 0
   950  000C40  BF8D               	btfsc	(Dutty_Pwm@i+1)& (0+255),7,b
   951  000C42  EF2C  F006         	goto	u1521
   952  000C46  518D               	movf	(Dutty_Pwm@i+1)& (0+255),w,b
   953  000C48  E109               	bnz	u1520
   954  000C4A  0E14               	movlw	20
   955  000C4C  5D8C               	subwf	Dutty_Pwm@i& (0+255),w,b
   956  000C4E  A0D8               	btfss	status,0,c
   957  000C50  EF2C  F006         	goto	u1521
   958  000C54  EF2E  F006         	goto	u1520
   959  000C58                     u1521:
   960  000C58  EF00  F006         	goto	l2059
   961  000C5C                     u1520:
   962  000C5C                     
   963                           ; BSR set to: 0
   964                           ;process.c: 158:         k=105;
   965  000C5C  0E00               	movlw	0
   966  000C5E  6F8F               	movwf	(Dutty_Pwm@k+1)& (0+255),b
   967  000C60  0E69               	movlw	105
   968  000C62  6F8E               	movwf	Dutty_Pwm@k& (0+255),b
   969                           
   970                           ;process.c: 159:         PORTA=0;
   971  000C64  0E00               	movlw	0
   972  000C66  6E80               	movwf	128,c	;volatile
   973                           
   974                           ;process.c: 160:         for(i=0; i<21 ; i++){
   975  000C68  0E00               	movlw	0
   976  000C6A  6F8D               	movwf	(Dutty_Pwm@i+1)& (0+255),b
   977  000C6C  0E00               	movlw	0
   978  000C6E  6F8C               	movwf	Dutty_Pwm@i& (0+255),b
   979  000C70                     l2075:
   980                           
   981                           ; BSR set to: 0
   982                           ;process.c: 162:             k=k-5;
   983  000C70  0EFB               	movlw	251
   984  000C72  258E               	addwf	Dutty_Pwm@k& (0+255),w,b
   985  000C74  6F8E               	movwf	Dutty_Pwm@k& (0+255),b
   986  000C76  0EFF               	movlw	255
   987  000C78  218F               	addwfc	(Dutty_Pwm@k+1)& (0+255),w,b
   988  000C7A  6F8F               	movwf	(Dutty_Pwm@k+1)& (0+255),b
   989  000C7C                     
   990                           ; BSR set to: 0
   991                           ;process.c: 163:             PWM_generar(k,fpwm);
   992  000C7C  C08E  F06E         	movff	Dutty_Pwm@k,PWM_generar@duty
   993  000C80  C08F  F06F         	movff	Dutty_Pwm@k+1,PWM_generar@duty+1
   994  000C84  C088  F070         	movff	Dutty_Pwm@fpwm,PWM_generar@fpwm
   995  000C88  C089  F071         	movff	Dutty_Pwm@fpwm+1,PWM_generar@fpwm+1
   996  000C8C  EC32  F002         	call	_PWM_generar	;wreg free
   997  000C90                     
   998                           ;process.c: 164:             delay_s(delay);
   999  000C90  C08A  F061         	movff	Dutty_Pwm@delay,delay_s@seconds
  1000  000C94  C08B  F062         	movff	Dutty_Pwm@delay+1,delay_s@seconds+1
  1001  000C98  ECA1  F008         	call	_delay_s	;wreg free
  1002  000C9C                     
  1003                           ;process.c: 165:             mostrar_dec(k);
  1004  000C9C  C08E  F082         	movff	Dutty_Pwm@k,mostrar_dec@duty
  1005  000CA0  C08F  F083         	movff	Dutty_Pwm@k+1,mostrar_dec@duty+1
  1006  000CA4  EC68  F006         	call	_mostrar_dec	;wreg free
  1007  000CA8                     
  1008                           ;process.c: 166:         }
  1009  000CA8  0100               	movlb	0	; () banked
  1010  000CAA  4B8C               	infsnz	Dutty_Pwm@i& (0+255),f,b
  1011  000CAC  2B8D               	incf	(Dutty_Pwm@i+1)& (0+255),f,b
  1012  000CAE                     
  1013                           ; BSR set to: 0
  1014  000CAE  BF8D               	btfsc	(Dutty_Pwm@i+1)& (0+255),7,b
  1015  000CB0  EF63  F006         	goto	u1531
  1016  000CB4  518D               	movf	(Dutty_Pwm@i+1)& (0+255),w,b
  1017  000CB6  E109               	bnz	u1530
  1018  000CB8  0E15               	movlw	21
  1019  000CBA  5D8C               	subwf	Dutty_Pwm@i& (0+255),w,b
  1020  000CBC  A0D8               	btfss	status,0,c
  1021  000CBE  EF63  F006         	goto	u1531
  1022  000CC2  EF65  F006         	goto	u1530
  1023  000CC6                     u1531:
  1024  000CC6  EF38  F006         	goto	l2075
  1025  000CCA                     u1530:
  1026  000CCA                     
  1027                           ; BSR set to: 0
  1028                           ;process.c: 168:         PORTA=0;
  1029  000CCA  0E00               	movlw	0
  1030  000CCC  6E80               	movwf	128,c	;volatile
  1031  000CCE                     
  1032                           ; BSR set to: 0
  1033  000CCE  0012               	return		;funcret
  1034  000CD0                     __end_of_Dutty_Pwm:
  1035                           	opt callstack 0
  1036                           
  1037 ;; *************** function _mostrar_inc *****************
  1038 ;; Defined at:
  1039 ;;		line 11 in file "process.c"
  1040 ;; Parameters:    Size  Location     Type
  1041 ;;  duty            2    8[BANK0 ] unsigned int 
  1042 ;; Auto vars:     Size  Location     Type
  1043 ;;  par             2   12[BANK0 ] int 
  1044 ;;  por_pwm         2   10[BANK0 ] int 
  1045 ;; Return value:  Size  Location     Type
  1046 ;;                  1    wreg      void 
  1047 ;; Registers used:
  1048 ;;		wreg, status,2, status,0, cstack
  1049 ;; Tracked objects:
  1050 ;;		On entry : 0/0
  1051 ;;		On exit  : 0/0
  1052 ;;		Unchanged: 0/0
  1053 ;; Data sizes:     COMRAM   BANK0   BANK1   BANK2   BANK3   BANK4   BANK5   BANK6   BANK7
  1054 ;;      Params:         0       2       0       0       0       0       0       0       0
  1055 ;;      Locals:         0       4       0       0       0       0       0       0       0
  1056 ;;      Temps:          0       0       0       0       0       0       0       0       0
  1057 ;;      Totals:         0       6       0       0       0       0       0       0       0
  1058 ;;Total ram usage:        6 bytes
  1059 ;; Hardware stack levels used:    1
  1060 ;; Hardware stack levels required when called:    4
  1061 ;; This function calls:
  1062 ;;		___lwdiv
  1063 ;;		_segment
  1064 ;; This function is called by:
  1065 ;;		_Dutty_Pwm
  1066 ;;		_demo_Dutty_Pwm
  1067 ;; This function uses a non-reentrant model
  1068 ;;
  1069                           
  1070                           	psect	text5
  1071  001056                     __ptext5:
  1072                           	opt callstack 0
  1073  001056                     _mostrar_inc:
  1074                           	opt callstack 25
  1075  001056                     
  1076                           ;process.c: 12:         int por_pwm, par;;process.c: 13:         por_pwm=duty/5;
  1077  001056  C068  F061         	movff	mostrar_inc@duty,___lwdiv@dividend
  1078  00105A  C069  F062         	movff	mostrar_inc@duty+1,___lwdiv@dividend+1
  1079  00105E  0E00               	movlw	0
  1080  001060  0100               	movlb	0	; () banked
  1081  001062  6F64               	movwf	(___lwdiv@divisor+1)& (0+255),b
  1082  001064  0E05               	movlw	5
  1083  001066  6F63               	movwf	___lwdiv@divisor& (0+255),b
  1084  001068  ECBA  F007         	call	___lwdiv	;wreg free
  1085  00106C  C061  F06A         	movff	?___lwdiv,mostrar_inc@por_pwm
  1086  001070  C062  F06B         	movff	?___lwdiv+1,mostrar_inc@por_pwm+1
  1087  001074                     
  1088                           ;process.c: 14:         par = por_pwm%2;
  1089  001074  0E01               	movlw	1
  1090  001076  0100               	movlb	0	; () banked
  1091  001078  156A               	andwf	mostrar_inc@por_pwm& (0+255),w,b
  1092  00107A  6F6C               	movwf	mostrar_inc@par& (0+255),b
  1093  00107C  6B6D               	clrf	(mostrar_inc@par+1)& (0+255),b
  1094  00107E                     
  1095                           ; BSR set to: 0
  1096                           ;process.c: 15:         if(par==1){
  1097  00107E  056C               	decf	mostrar_inc@par& (0+255),w,b
  1098  001080  116D               	iorwf	(mostrar_inc@par+1)& (0+255),w,b
  1099  001082  A4D8               	btfss	status,2,c
  1100  001084  EF46  F008         	goto	u1361
  1101  001088  EF48  F008         	goto	u1360
  1102  00108C                     u1361:
  1103  00108C  EF4C  F008         	goto	l1985
  1104  001090                     u1360:
  1105  001090                     
  1106                           ; BSR set to: 0
  1107                           ;process.c: 16:             PORTB=0xF0;
  1108  001090  0EF0               	movlw	240
  1109  001092  6E81               	movwf	129,c	;volatile
  1110                           
  1111                           ;process.c: 17:         }
  1112  001094  EF5F  F008         	goto	l139
  1113  001098                     l1985:
  1114                           
  1115                           ; BSR set to: 0
  1116  001098  516C               	movf	mostrar_inc@par& (0+255),w,b
  1117  00109A  116D               	iorwf	(mostrar_inc@par+1)& (0+255),w,b
  1118  00109C  A4D8               	btfss	status,2,c
  1119  00109E  EF53  F008         	goto	u1371
  1120  0010A2  EF55  F008         	goto	u1370
  1121  0010A6                     u1371:
  1122  0010A6  EF5F  F008         	goto	l139
  1123  0010AA                     u1370:
  1124  0010AA                     
  1125                           ; BSR set to: 0
  1126                           ;process.c: 19:             PORTB=0x00;
  1127  0010AA  0E00               	movlw	0
  1128  0010AC  6E81               	movwf	129,c	;volatile
  1129  0010AE                     
  1130                           ; BSR set to: 0
  1131                           ;process.c: 20:             CEN++;
  1132  0010AE  4B93               	infsnz	_CEN& (0+255),f,b
  1133  0010B0  2B94               	incf	(_CEN+1)& (0+255),f,b
  1134  0010B2                     
  1135                           ; BSR set to: 0
  1136                           ;process.c: 22:             segment(CEN);
  1137  0010B2  C093  F061         	movff	_CEN,segment@centenas
  1138  0010B6  C094  F062         	movff	_CEN+1,segment@centenas+1
  1139  0010BA  ECD5  F004         	call	_segment	;wreg free
  1140  0010BE                     l139:
  1141  0010BE  0012               	return		;funcret
  1142  0010C0                     __end_of_mostrar_inc:
  1143                           	opt callstack 0
  1144                           
  1145 ;; *************** function _segment *****************
  1146 ;; Defined at:
  1147 ;;		line 48 in file "process.c"
  1148 ;; Parameters:    Size  Location     Type
  1149 ;;  centenas        2    1[BANK0 ] unsigned int 
  1150 ;; Auto vars:     Size  Location     Type
  1151 ;;		None
  1152 ;; Return value:  Size  Location     Type
  1153 ;;                  1    wreg      void 
  1154 ;; Registers used:
  1155 ;;		wreg, status,2, status,0
  1156 ;; Tracked objects:
  1157 ;;		On entry : 0/0
  1158 ;;		On exit  : 0/0
  1159 ;;		Unchanged: 0/0
  1160 ;; Data sizes:     COMRAM   BANK0   BANK1   BANK2   BANK3   BANK4   BANK5   BANK6   BANK7
  1161 ;;      Params:         0       2       0       0       0       0       0       0       0
  1162 ;;      Locals:         0       0       0       0       0       0       0       0       0
  1163 ;;      Temps:          0       0       0       0       0       0       0       0       0
  1164 ;;      Totals:         0       2       0       0       0       0       0       0       0
  1165 ;;Total ram usage:        2 bytes
  1166 ;; Hardware stack levels used:    1
  1167 ;; Hardware stack levels required when called:    3
  1168 ;; This function calls:
  1169 ;;		Nothing
  1170 ;; This function is called by:
  1171 ;;		_mostrar_inc
  1172 ;; This function uses a non-reentrant model
  1173 ;;
  1174                           
  1175                           	psect	text6
  1176  0009AA                     __ptext6:
  1177                           	opt callstack 0
  1178  0009AA                     _segment:
  1179                           	opt callstack 25
  1180  0009AA                     
  1181                           ;process.c: 49:     if(centenas==1){
  1182  0009AA  0100               	movlb	0	; () banked
  1183  0009AC  0561               	decf	segment@centenas& (0+255),w,b
  1184  0009AE  1162               	iorwf	(segment@centenas+1)& (0+255),w,b
  1185  0009B0  A4D8               	btfss	status,2,c
  1186  0009B2  EFDD  F004         	goto	u1131
  1187  0009B6  EFDF  F004         	goto	u1130
  1188  0009BA                     u1131:
  1189  0009BA  EFE3  F004         	goto	l1879
  1190  0009BE                     u1130:
  1191  0009BE                     
  1192                           ; BSR set to: 0
  1193                           ;process.c: 50:         PORTA=0x7E;
  1194  0009BE  0E7E               	movlw	126
  1195  0009C0  6E80               	movwf	128,c	;volatile
  1196                           
  1197                           ;process.c: 51:     }
  1198  0009C2  EF65  F005         	goto	l169
  1199  0009C6                     l1879:
  1200                           
  1201                           ; BSR set to: 0
  1202  0009C6  0E02               	movlw	2
  1203  0009C8  1961               	xorwf	segment@centenas& (0+255),w,b
  1204  0009CA  1162               	iorwf	(segment@centenas+1)& (0+255),w,b
  1205  0009CC  A4D8               	btfss	status,2,c
  1206  0009CE  EFEB  F004         	goto	u1141
  1207  0009D2  EFED  F004         	goto	u1140
  1208  0009D6                     u1141:
  1209  0009D6  EFF1  F004         	goto	l1883
  1210  0009DA                     u1140:
  1211  0009DA                     
  1212                           ; BSR set to: 0
  1213                           ;process.c: 53:         PORTA=0x30;
  1214  0009DA  0E30               	movlw	48
  1215  0009DC  6E80               	movwf	128,c	;volatile
  1216                           
  1217                           ;process.c: 54:     }
  1218  0009DE  EF65  F005         	goto	l169
  1219  0009E2                     l1883:
  1220                           
  1221                           ; BSR set to: 0
  1222  0009E2  0E03               	movlw	3
  1223  0009E4  1961               	xorwf	segment@centenas& (0+255),w,b
  1224  0009E6  1162               	iorwf	(segment@centenas+1)& (0+255),w,b
  1225  0009E8  A4D8               	btfss	status,2,c
  1226  0009EA  EFF9  F004         	goto	u1151
  1227  0009EE  EFFB  F004         	goto	u1150
  1228  0009F2                     u1151:
  1229  0009F2  EFFF  F004         	goto	l1887
  1230  0009F6                     u1150:
  1231  0009F6                     
  1232                           ; BSR set to: 0
  1233                           ;process.c: 56:         PORTA=0x6D;
  1234  0009F6  0E6D               	movlw	109
  1235  0009F8  6E80               	movwf	128,c	;volatile
  1236                           
  1237                           ;process.c: 57:     }
  1238  0009FA  EF65  F005         	goto	l169
  1239  0009FE                     l1887:
  1240                           
  1241                           ; BSR set to: 0
  1242  0009FE  0E04               	movlw	4
  1243  000A00  1961               	xorwf	segment@centenas& (0+255),w,b
  1244  000A02  1162               	iorwf	(segment@centenas+1)& (0+255),w,b
  1245  000A04  A4D8               	btfss	status,2,c
  1246  000A06  EF07  F005         	goto	u1161
  1247  000A0A  EF09  F005         	goto	u1160
  1248  000A0E                     u1161:
  1249  000A0E  EF0D  F005         	goto	l1891
  1250  000A12                     u1160:
  1251  000A12                     
  1252                           ; BSR set to: 0
  1253                           ;process.c: 59:         PORTA=0x79;
  1254  000A12  0E79               	movlw	121
  1255  000A14  6E80               	movwf	128,c	;volatile
  1256                           
  1257                           ;process.c: 60:     }
  1258  000A16  EF65  F005         	goto	l169
  1259  000A1A                     l1891:
  1260                           
  1261                           ; BSR set to: 0
  1262  000A1A  0E05               	movlw	5
  1263  000A1C  1961               	xorwf	segment@centenas& (0+255),w,b
  1264  000A1E  1162               	iorwf	(segment@centenas+1)& (0+255),w,b
  1265  000A20  A4D8               	btfss	status,2,c
  1266  000A22  EF15  F005         	goto	u1171
  1267  000A26  EF17  F005         	goto	u1170
  1268  000A2A                     u1171:
  1269  000A2A  EF1B  F005         	goto	l1895
  1270  000A2E                     u1170:
  1271  000A2E                     
  1272                           ; BSR set to: 0
  1273                           ;process.c: 62:         PORTA=0x33;
  1274  000A2E  0E33               	movlw	51
  1275  000A30  6E80               	movwf	128,c	;volatile
  1276                           
  1277                           ;process.c: 63:     }
  1278  000A32  EF65  F005         	goto	l169
  1279  000A36                     l1895:
  1280                           
  1281                           ; BSR set to: 0
  1282  000A36  0E06               	movlw	6
  1283  000A38  1961               	xorwf	segment@centenas& (0+255),w,b
  1284  000A3A  1162               	iorwf	(segment@centenas+1)& (0+255),w,b
  1285  000A3C  A4D8               	btfss	status,2,c
  1286  000A3E  EF23  F005         	goto	u1181
  1287  000A42  EF25  F005         	goto	u1180
  1288  000A46                     u1181:
  1289  000A46  EF29  F005         	goto	l1899
  1290  000A4A                     u1180:
  1291  000A4A                     
  1292                           ; BSR set to: 0
  1293                           ;process.c: 65:         PORTA=0x5B;
  1294  000A4A  0E5B               	movlw	91
  1295  000A4C  6E80               	movwf	128,c	;volatile
  1296                           
  1297                           ;process.c: 66:     }
  1298  000A4E  EF65  F005         	goto	l169
  1299  000A52                     l1899:
  1300                           
  1301                           ; BSR set to: 0
  1302  000A52  0E07               	movlw	7
  1303  000A54  1961               	xorwf	segment@centenas& (0+255),w,b
  1304  000A56  1162               	iorwf	(segment@centenas+1)& (0+255),w,b
  1305  000A58  A4D8               	btfss	status,2,c
  1306  000A5A  EF31  F005         	goto	u1191
  1307  000A5E  EF33  F005         	goto	u1190
  1308  000A62                     u1191:
  1309  000A62  EF37  F005         	goto	l1903
  1310  000A66                     u1190:
  1311  000A66                     
  1312                           ; BSR set to: 0
  1313                           ;process.c: 68:         PORTA=0x5F;
  1314  000A66  0E5F               	movlw	95
  1315  000A68  6E80               	movwf	128,c	;volatile
  1316                           
  1317                           ;process.c: 69:     }
  1318  000A6A  EF65  F005         	goto	l169
  1319  000A6E                     l1903:
  1320                           
  1321                           ; BSR set to: 0
  1322  000A6E  0E08               	movlw	8
  1323  000A70  1961               	xorwf	segment@centenas& (0+255),w,b
  1324  000A72  1162               	iorwf	(segment@centenas+1)& (0+255),w,b
  1325  000A74  A4D8               	btfss	status,2,c
  1326  000A76  EF3F  F005         	goto	u1201
  1327  000A7A  EF41  F005         	goto	u1200
  1328  000A7E                     u1201:
  1329  000A7E  EF45  F005         	goto	l1907
  1330  000A82                     u1200:
  1331  000A82                     
  1332                           ; BSR set to: 0
  1333                           ;process.c: 71:         PORTA=0x70;
  1334  000A82  0E70               	movlw	112
  1335  000A84  6E80               	movwf	128,c	;volatile
  1336                           
  1337                           ;process.c: 72:     }
  1338  000A86  EF65  F005         	goto	l169
  1339  000A8A                     l1907:
  1340                           
  1341                           ; BSR set to: 0
  1342  000A8A  0E09               	movlw	9
  1343  000A8C  1961               	xorwf	segment@centenas& (0+255),w,b
  1344  000A8E  1162               	iorwf	(segment@centenas+1)& (0+255),w,b
  1345  000A90  A4D8               	btfss	status,2,c
  1346  000A92  EF4D  F005         	goto	u1211
  1347  000A96  EF4F  F005         	goto	u1210
  1348  000A9A                     u1211:
  1349  000A9A  EF53  F005         	goto	l1911
  1350  000A9E                     u1210:
  1351  000A9E                     
  1352                           ; BSR set to: 0
  1353                           ;process.c: 74:         PORTA=0x7F;
  1354  000A9E  0E7F               	movlw	127
  1355  000AA0  6E80               	movwf	128,c	;volatile
  1356                           
  1357                           ;process.c: 75:     }
  1358  000AA2  EF65  F005         	goto	l169
  1359  000AA6                     l1911:
  1360                           
  1361                           ; BSR set to: 0
  1362  000AA6  0E0A               	movlw	10
  1363  000AA8  1961               	xorwf	segment@centenas& (0+255),w,b
  1364  000AAA  1162               	iorwf	(segment@centenas+1)& (0+255),w,b
  1365  000AAC  A4D8               	btfss	status,2,c
  1366  000AAE  EF5B  F005         	goto	u1221
  1367  000AB2  EF5D  F005         	goto	u1220
  1368  000AB6                     u1221:
  1369  000AB6  EF65  F005         	goto	l163
  1370  000ABA                     u1220:
  1371  000ABA                     
  1372                           ; BSR set to: 0
  1373                           ;process.c: 77:         PORTA=0x73;
  1374  000ABA  0E73               	movlw	115
  1375  000ABC  6E80               	movwf	128,c	;volatile
  1376                           
  1377                           ;process.c: 78:         CEN2=10;
  1378  000ABE  0E00               	movlw	0
  1379  000AC0  6F92               	movwf	(_CEN2+1)& (0+255),b
  1380  000AC2  0E0A               	movlw	10
  1381  000AC4  6F91               	movwf	_CEN2& (0+255),b
  1382  000AC6  EF65  F005         	goto	l169
  1383  000ACA                     l163:
  1384  000ACA                     l169:
  1385                           
  1386                           ; BSR set to: 0
  1387  000ACA  0012               	return		;funcret
  1388  000ACC                     __end_of_segment:
  1389                           	opt callstack 0
  1390                           
  1391 ;; *************** function _mostrar_dec *****************
  1392 ;; Defined at:
  1393 ;;		line 26 in file "process.c"
  1394 ;; Parameters:    Size  Location     Type
  1395 ;;  duty            2   34[BANK0 ] unsigned int 
  1396 ;; Auto vars:     Size  Location     Type
  1397 ;;  par             2   38[BANK0 ] int 
  1398 ;;  por_pwm         2   36[BANK0 ] int 
  1399 ;; Return value:  Size  Location     Type
  1400 ;;                  1    wreg      void 
  1401 ;; Registers used:
  1402 ;;		wreg, status,2, status,0, cstack
  1403 ;; Tracked objects:
  1404 ;;		On entry : 0/0
  1405 ;;		On exit  : 0/0
  1406 ;;		Unchanged: 0/0
  1407 ;; Data sizes:     COMRAM   BANK0   BANK1   BANK2   BANK3   BANK4   BANK5   BANK6   BANK7
  1408 ;;      Params:         0       2       0       0       0       0       0       0       0
  1409 ;;      Locals:         0       4       0       0       0       0       0       0       0
  1410 ;;      Temps:          0       0       0       0       0       0       0       0       0
  1411 ;;      Totals:         0       6       0       0       0       0       0       0       0
  1412 ;;Total ram usage:        6 bytes
  1413 ;; Hardware stack levels used:    1
  1414 ;; Hardware stack levels required when called:    5
  1415 ;; This function calls:
  1416 ;;		_PWM_generar
  1417 ;;		___lwdiv
  1418 ;;		_segment2
  1419 ;; This function is called by:
  1420 ;;		_Dutty_Pwm
  1421 ;;		_demo_Dutty_Pwm
  1422 ;; This function uses a non-reentrant model
  1423 ;;
  1424                           
  1425                           	psect	text7
  1426  000CD0                     __ptext7:
  1427                           	opt callstack 0
  1428  000CD0                     _mostrar_dec:
  1429                           	opt callstack 24
  1430  000CD0                     
  1431                           ;process.c: 27:         int por_pwm, par;;process.c: 28:         por_pwm=duty/5;
  1432  000CD0  C082  F061         	movff	mostrar_dec@duty,___lwdiv@dividend
  1433  000CD4  C083  F062         	movff	mostrar_dec@duty+1,___lwdiv@dividend+1
  1434  000CD8  0E00               	movlw	0
  1435  000CDA  0100               	movlb	0	; () banked
  1436  000CDC  6F64               	movwf	(___lwdiv@divisor+1)& (0+255),b
  1437  000CDE  0E05               	movlw	5
  1438  000CE0  6F63               	movwf	___lwdiv@divisor& (0+255),b
  1439  000CE2  ECBA  F007         	call	___lwdiv	;wreg free
  1440  000CE6  C061  F084         	movff	?___lwdiv,mostrar_dec@por_pwm
  1441  000CEA  C062  F085         	movff	?___lwdiv+1,mostrar_dec@por_pwm+1
  1442  000CEE                     
  1443                           ;process.c: 29:         par = por_pwm%2;
  1444  000CEE  0E01               	movlw	1
  1445  000CF0  0100               	movlb	0	; () banked
  1446  000CF2  1584               	andwf	mostrar_dec@por_pwm& (0+255),w,b
  1447  000CF4  6F86               	movwf	mostrar_dec@par& (0+255),b
  1448  000CF6  6B87               	clrf	(mostrar_dec@par+1)& (0+255),b
  1449  000CF8                     
  1450                           ; BSR set to: 0
  1451                           ;process.c: 31:         if(por_pwm==20 && par==0){
  1452  000CF8  0E14               	movlw	20
  1453  000CFA  1984               	xorwf	mostrar_dec@por_pwm& (0+255),w,b
  1454  000CFC  1185               	iorwf	(mostrar_dec@por_pwm+1)& (0+255),w,b
  1455  000CFE  A4D8               	btfss	status,2,c
  1456  000D00  EF84  F006         	goto	u1381
  1457  000D04  EF86  F006         	goto	u1380
  1458  000D08                     u1381:
  1459  000D08  EF9F  F006         	goto	l2005
  1460  000D0C                     u1380:
  1461  000D0C                     
  1462                           ; BSR set to: 0
  1463  000D0C  5186               	movf	mostrar_dec@par& (0+255),w,b
  1464  000D0E  1187               	iorwf	(mostrar_dec@par+1)& (0+255),w,b
  1465  000D10  A4D8               	btfss	status,2,c
  1466  000D12  EF8D  F006         	goto	u1391
  1467  000D16  EF8F  F006         	goto	u1390
  1468  000D1A                     u1391:
  1469  000D1A  EF9F  F006         	goto	l2005
  1470  000D1E                     u1390:
  1471  000D1E                     
  1472                           ; BSR set to: 0
  1473                           ;process.c: 32:             PORTA=0x7E;
  1474  000D1E  0E7E               	movlw	126
  1475  000D20  6E80               	movwf	128,c	;volatile
  1476                           
  1477                           ;process.c: 33:             PORTB=0xF8;
  1478  000D22  0EF8               	movlw	248
  1479  000D24  6E81               	movwf	129,c	;volatile
  1480  000D26                     
  1481                           ; BSR set to: 0
  1482                           ;process.c: 34:             PWM_generar(100,1000);
  1483  000D26  0E00               	movlw	0
  1484  000D28  6F6F               	movwf	(PWM_generar@duty+1)& (0+255),b
  1485  000D2A  0E64               	movlw	100
  1486  000D2C  6F6E               	movwf	PWM_generar@duty& (0+255),b
  1487  000D2E  0E03               	movlw	3
  1488  000D30  6F71               	movwf	(PWM_generar@fpwm+1)& (0+255),b
  1489  000D32  0EE8               	movlw	232
  1490  000D34  6F70               	movwf	PWM_generar@fpwm& (0+255),b
  1491  000D36  EC32  F002         	call	_PWM_generar	;wreg free
  1492                           
  1493                           ;process.c: 36:         }
  1494  000D3A  EFCA  F006         	goto	l147
  1495  000D3E                     l2005:
  1496                           
  1497                           ; BSR set to: 0
  1498  000D3E  0E14               	movlw	20
  1499  000D40  1984               	xorwf	mostrar_dec@por_pwm& (0+255),w,b
  1500  000D42  1185               	iorwf	(mostrar_dec@por_pwm+1)& (0+255),w,b
  1501  000D44  B4D8               	btfsc	status,2,c
  1502  000D46  EFA7  F006         	goto	u1401
  1503  000D4A  EFA9  F006         	goto	u1400
  1504  000D4E                     u1401:
  1505  000D4E  EFBF  F006         	goto	l2015
  1506  000D52                     u1400:
  1507  000D52                     
  1508                           ; BSR set to: 0
  1509  000D52  0586               	decf	mostrar_dec@par& (0+255),w,b
  1510  000D54  1187               	iorwf	(mostrar_dec@par+1)& (0+255),w,b
  1511  000D56  A4D8               	btfss	status,2,c
  1512  000D58  EFB0  F006         	goto	u1411
  1513  000D5C  EFB2  F006         	goto	u1410
  1514  000D60                     u1411:
  1515  000D60  EFBF  F006         	goto	l2015
  1516  000D64                     u1410:
  1517  000D64                     
  1518                           ; BSR set to: 0
  1519                           ;process.c: 38:             PORTB=0xF0;
  1520  000D64  0EF0               	movlw	240
  1521  000D66  6E81               	movwf	129,c	;volatile
  1522  000D68                     
  1523                           ; BSR set to: 0
  1524                           ;process.c: 39:             CEN2--;
  1525  000D68  0791               	decf	_CEN2& (0+255),f,b
  1526  000D6A  A0D8               	btfss	status,0,c
  1527  000D6C  0792               	decf	(_CEN2+1)& (0+255),f,b
  1528  000D6E                     
  1529                           ; BSR set to: 0
  1530                           ;process.c: 41:             segment2(CEN2);
  1531  000D6E  C091  F061         	movff	_CEN2,segment2@centenas
  1532  000D72  C092  F062         	movff	_CEN2+1,segment2@centenas+1
  1533  000D76  EC66  F005         	call	_segment2	;wreg free
  1534                           
  1535                           ;process.c: 42:         }
  1536  000D7A  EFCA  F006         	goto	l147
  1537  000D7E                     l2015:
  1538                           
  1539                           ; BSR set to: 0
  1540  000D7E  5186               	movf	mostrar_dec@par& (0+255),w,b
  1541  000D80  1187               	iorwf	(mostrar_dec@par+1)& (0+255),w,b
  1542  000D82  A4D8               	btfss	status,2,c
  1543  000D84  EFC6  F006         	goto	u1421
  1544  000D88  EFC8  F006         	goto	u1420
  1545  000D8C                     u1421:
  1546  000D8C  EFCA  F006         	goto	l147
  1547  000D90                     u1420:
  1548  000D90                     
  1549                           ; BSR set to: 0
  1550                           ;process.c: 44:             PORTB=0x00;
  1551  000D90  0E00               	movlw	0
  1552  000D92  6E81               	movwf	129,c	;volatile
  1553  000D94                     l147:
  1554  000D94  0012               	return		;funcret
  1555  000D96                     __end_of_mostrar_dec:
  1556                           	opt callstack 0
  1557                           
  1558 ;; *************** function _segment2 *****************
  1559 ;; Defined at:
  1560 ;;		line 82 in file "process.c"
  1561 ;; Parameters:    Size  Location     Type
  1562 ;;  centenas        2    1[BANK0 ] unsigned int 
  1563 ;; Auto vars:     Size  Location     Type
  1564 ;;		None
  1565 ;; Return value:  Size  Location     Type
  1566 ;;                  1    wreg      void 
  1567 ;; Registers used:
  1568 ;;		wreg, status,2, status,0
  1569 ;; Tracked objects:
  1570 ;;		On entry : 0/0
  1571 ;;		On exit  : 0/0
  1572 ;;		Unchanged: 0/0
  1573 ;; Data sizes:     COMRAM   BANK0   BANK1   BANK2   BANK3   BANK4   BANK5   BANK6   BANK7
  1574 ;;      Params:         0       2       0       0       0       0       0       0       0
  1575 ;;      Locals:         0       0       0       0       0       0       0       0       0
  1576 ;;      Temps:          0       0       0       0       0       0       0       0       0
  1577 ;;      Totals:         0       2       0       0       0       0       0       0       0
  1578 ;;Total ram usage:        2 bytes
  1579 ;; Hardware stack levels used:    1
  1580 ;; Hardware stack levels required when called:    3
  1581 ;; This function calls:
  1582 ;;		Nothing
  1583 ;; This function is called by:
  1584 ;;		_mostrar_dec
  1585 ;; This function uses a non-reentrant model
  1586 ;;
  1587                           
  1588                           	psect	text8
  1589  000ACC                     __ptext8:
  1590                           	opt callstack 0
  1591  000ACC                     _segment2:
  1592                           	opt callstack 25
  1593  000ACC                     
  1594                           ;process.c: 83:     if(centenas==1){
  1595  000ACC  0100               	movlb	0	; () banked
  1596  000ACE  0561               	decf	segment2@centenas& (0+255),w,b
  1597  000AD0  1162               	iorwf	(segment2@centenas+1)& (0+255),w,b
  1598  000AD2  A4D8               	btfss	status,2,c
  1599  000AD4  EF6E  F005         	goto	u1231
  1600  000AD8  EF70  F005         	goto	u1230
  1601  000ADC                     u1231:
  1602  000ADC  EF78  F005         	goto	l1919
  1603  000AE0                     u1230:
  1604  000AE0                     
  1605                           ; BSR set to: 0
  1606                           ;process.c: 84:         PORTA=0x30;
  1607  000AE0  0E30               	movlw	48
  1608  000AE2  6E80               	movwf	128,c	;volatile
  1609                           
  1610                           ;process.c: 85:         CEN=1;
  1611  000AE4  0E00               	movlw	0
  1612  000AE6  6F94               	movwf	(_CEN+1)& (0+255),b
  1613  000AE8  0E01               	movlw	1
  1614  000AEA  6F93               	movwf	_CEN& (0+255),b
  1615                           
  1616                           ;process.c: 86:     }
  1617  000AEC  EFF6  F005         	goto	l191
  1618  000AF0                     l1919:
  1619                           
  1620                           ; BSR set to: 0
  1621  000AF0  0E02               	movlw	2
  1622  000AF2  1961               	xorwf	segment2@centenas& (0+255),w,b
  1623  000AF4  1162               	iorwf	(segment2@centenas+1)& (0+255),w,b
  1624  000AF6  A4D8               	btfss	status,2,c
  1625  000AF8  EF80  F005         	goto	u1241
  1626  000AFC  EF82  F005         	goto	u1240
  1627  000B00                     u1241:
  1628  000B00  EF86  F005         	goto	l1923
  1629  000B04                     u1240:
  1630  000B04                     
  1631                           ; BSR set to: 0
  1632                           ;process.c: 88:         PORTA=0x6D;
  1633  000B04  0E6D               	movlw	109
  1634  000B06  6E80               	movwf	128,c	;volatile
  1635                           
  1636                           ;process.c: 89:     }
  1637  000B08  EFF6  F005         	goto	l191
  1638  000B0C                     l1923:
  1639                           
  1640                           ; BSR set to: 0
  1641  000B0C  0E03               	movlw	3
  1642  000B0E  1961               	xorwf	segment2@centenas& (0+255),w,b
  1643  000B10  1162               	iorwf	(segment2@centenas+1)& (0+255),w,b
  1644  000B12  A4D8               	btfss	status,2,c
  1645  000B14  EF8E  F005         	goto	u1251
  1646  000B18  EF90  F005         	goto	u1250
  1647  000B1C                     u1251:
  1648  000B1C  EF94  F005         	goto	l1927
  1649  000B20                     u1250:
  1650  000B20                     
  1651                           ; BSR set to: 0
  1652                           ;process.c: 91:         PORTA=0x79;
  1653  000B20  0E79               	movlw	121
  1654  000B22  6E80               	movwf	128,c	;volatile
  1655                           
  1656                           ;process.c: 92:     }
  1657  000B24  EFF6  F005         	goto	l191
  1658  000B28                     l1927:
  1659                           
  1660                           ; BSR set to: 0
  1661  000B28  0E04               	movlw	4
  1662  000B2A  1961               	xorwf	segment2@centenas& (0+255),w,b
  1663  000B2C  1162               	iorwf	(segment2@centenas+1)& (0+255),w,b
  1664  000B2E  A4D8               	btfss	status,2,c
  1665  000B30  EF9C  F005         	goto	u1261
  1666  000B34  EF9E  F005         	goto	u1260
  1667  000B38                     u1261:
  1668  000B38  EFA2  F005         	goto	l1931
  1669  000B3C                     u1260:
  1670  000B3C                     
  1671                           ; BSR set to: 0
  1672                           ;process.c: 94:         PORTA=0x33;
  1673  000B3C  0E33               	movlw	51
  1674  000B3E  6E80               	movwf	128,c	;volatile
  1675                           
  1676                           ;process.c: 95:     }
  1677  000B40  EFF6  F005         	goto	l191
  1678  000B44                     l1931:
  1679                           
  1680                           ; BSR set to: 0
  1681  000B44  0E05               	movlw	5
  1682  000B46  1961               	xorwf	segment2@centenas& (0+255),w,b
  1683  000B48  1162               	iorwf	(segment2@centenas+1)& (0+255),w,b
  1684  000B4A  A4D8               	btfss	status,2,c
  1685  000B4C  EFAA  F005         	goto	u1271
  1686  000B50  EFAC  F005         	goto	u1270
  1687  000B54                     u1271:
  1688  000B54  EFB0  F005         	goto	l1935
  1689  000B58                     u1270:
  1690  000B58                     
  1691                           ; BSR set to: 0
  1692                           ;process.c: 97:         PORTA=0x5B;
  1693  000B58  0E5B               	movlw	91
  1694  000B5A  6E80               	movwf	128,c	;volatile
  1695                           
  1696                           ;process.c: 98:     }
  1697  000B5C  EFF6  F005         	goto	l191
  1698  000B60                     l1935:
  1699                           
  1700                           ; BSR set to: 0
  1701  000B60  0E06               	movlw	6
  1702  000B62  1961               	xorwf	segment2@centenas& (0+255),w,b
  1703  000B64  1162               	iorwf	(segment2@centenas+1)& (0+255),w,b
  1704  000B66  A4D8               	btfss	status,2,c
  1705  000B68  EFB8  F005         	goto	u1281
  1706  000B6C  EFBA  F005         	goto	u1280
  1707  000B70                     u1281:
  1708  000B70  EFBE  F005         	goto	l1939
  1709  000B74                     u1280:
  1710  000B74                     
  1711                           ; BSR set to: 0
  1712                           ;process.c: 100:         PORTA=0x5F;
  1713  000B74  0E5F               	movlw	95
  1714  000B76  6E80               	movwf	128,c	;volatile
  1715                           
  1716                           ;process.c: 101:     }
  1717  000B78  EFF6  F005         	goto	l191
  1718  000B7C                     l1939:
  1719                           
  1720                           ; BSR set to: 0
  1721  000B7C  0E07               	movlw	7
  1722  000B7E  1961               	xorwf	segment2@centenas& (0+255),w,b
  1723  000B80  1162               	iorwf	(segment2@centenas+1)& (0+255),w,b
  1724  000B82  A4D8               	btfss	status,2,c
  1725  000B84  EFC6  F005         	goto	u1291
  1726  000B88  EFC8  F005         	goto	u1290
  1727  000B8C                     u1291:
  1728  000B8C  EFCC  F005         	goto	l1943
  1729  000B90                     u1290:
  1730  000B90                     
  1731                           ; BSR set to: 0
  1732                           ;process.c: 103:         PORTA=0x70;
  1733  000B90  0E70               	movlw	112
  1734  000B92  6E80               	movwf	128,c	;volatile
  1735                           
  1736                           ;process.c: 104:     }
  1737  000B94  EFF6  F005         	goto	l191
  1738  000B98                     l1943:
  1739                           
  1740                           ; BSR set to: 0
  1741  000B98  0E08               	movlw	8
  1742  000B9A  1961               	xorwf	segment2@centenas& (0+255),w,b
  1743  000B9C  1162               	iorwf	(segment2@centenas+1)& (0+255),w,b
  1744  000B9E  A4D8               	btfss	status,2,c
  1745  000BA0  EFD4  F005         	goto	u1301
  1746  000BA4  EFD6  F005         	goto	u1300
  1747  000BA8                     u1301:
  1748  000BA8  EFDA  F005         	goto	l1947
  1749  000BAC                     u1300:
  1750  000BAC                     
  1751                           ; BSR set to: 0
  1752                           ;process.c: 106:         PORTA=0x7F;
  1753  000BAC  0E7F               	movlw	127
  1754  000BAE  6E80               	movwf	128,c	;volatile
  1755                           
  1756                           ;process.c: 107:     }
  1757  000BB0  EFF6  F005         	goto	l191
  1758  000BB4                     l1947:
  1759                           
  1760                           ; BSR set to: 0
  1761  000BB4  0E09               	movlw	9
  1762  000BB6  1961               	xorwf	segment2@centenas& (0+255),w,b
  1763  000BB8  1162               	iorwf	(segment2@centenas+1)& (0+255),w,b
  1764  000BBA  A4D8               	btfss	status,2,c
  1765  000BBC  EFE2  F005         	goto	u1311
  1766  000BC0  EFE4  F005         	goto	u1310
  1767  000BC4                     u1311:
  1768  000BC4  EFE8  F005         	goto	l1951
  1769  000BC8                     u1310:
  1770  000BC8                     
  1771                           ; BSR set to: 0
  1772                           ;process.c: 109:         PORTA=0x73;
  1773  000BC8  0E73               	movlw	115
  1774  000BCA  6E80               	movwf	128,c	;volatile
  1775                           
  1776                           ;process.c: 110:     }
  1777  000BCC  EFF6  F005         	goto	l191
  1778  000BD0                     l1951:
  1779                           
  1780                           ; BSR set to: 0
  1781  000BD0  0E0A               	movlw	10
  1782  000BD2  1961               	xorwf	segment2@centenas& (0+255),w,b
  1783  000BD4  1162               	iorwf	(segment2@centenas+1)& (0+255),w,b
  1784  000BD6  A4D8               	btfss	status,2,c
  1785  000BD8  EFF0  F005         	goto	u1321
  1786  000BDC  EFF2  F005         	goto	u1320
  1787  000BE0                     u1321:
  1788  000BE0  EFF6  F005         	goto	l185
  1789  000BE4                     u1320:
  1790  000BE4                     
  1791                           ; BSR set to: 0
  1792                           ;process.c: 112:         PORTA=0x7E;
  1793  000BE4  0E7E               	movlw	126
  1794  000BE6  6E80               	movwf	128,c	;volatile
  1795  000BE8  EFF6  F005         	goto	l191
  1796  000BEC                     l185:
  1797  000BEC                     l191:
  1798                           
  1799                           ; BSR set to: 0
  1800  000BEC  0012               	return		;funcret
  1801  000BEE                     __end_of_segment2:
  1802                           	opt callstack 0
  1803                           
  1804 ;; *************** function ___lwdiv *****************
  1805 ;; Defined at:
  1806 ;;		line 7 in file "/opt/microchip/xc8/v2.10/pic/sources/c99/common/lwdiv.c"
  1807 ;; Parameters:    Size  Location     Type
  1808 ;;  dividend        2    1[BANK0 ] unsigned int 
  1809 ;;  divisor         2    3[BANK0 ] unsigned int 
  1810 ;; Auto vars:     Size  Location     Type
  1811 ;;  quotient        2    5[BANK0 ] unsigned int 
  1812 ;;  counter         1    7[BANK0 ] unsigned char 
  1813 ;; Return value:  Size  Location     Type
  1814 ;;                  2    1[BANK0 ] unsigned int 
  1815 ;; Registers used:
  1816 ;;		wreg, status,2, status,0
  1817 ;; Tracked objects:
  1818 ;;		On entry : 0/0
  1819 ;;		On exit  : 0/0
  1820 ;;		Unchanged: 0/0
  1821 ;; Data sizes:     COMRAM   BANK0   BANK1   BANK2   BANK3   BANK4   BANK5   BANK6   BANK7
  1822 ;;      Params:         0       4       0       0       0       0       0       0       0
  1823 ;;      Locals:         0       3       0       0       0       0       0       0       0
  1824 ;;      Temps:          0       0       0       0       0       0       0       0       0
  1825 ;;      Totals:         0       7       0       0       0       0       0       0       0
  1826 ;;Total ram usage:        7 bytes
  1827 ;; Hardware stack levels used:    1
  1828 ;; Hardware stack levels required when called:    3
  1829 ;; This function calls:
  1830 ;;		Nothing
  1831 ;; This function is called by:
  1832 ;;		_mostrar_inc
  1833 ;;		_mostrar_dec
  1834 ;; This function uses a non-reentrant model
  1835 ;;
  1836                           
  1837                           	psect	text9
  1838  000F74                     __ptext9:
  1839                           	opt callstack 0
  1840  000F74                     ___lwdiv:
  1841                           	opt callstack 25
  1842  000F74  0E00               	movlw	0
  1843  000F76  0100               	movlb	0	; () banked
  1844  000F78  6F66               	movwf	(___lwdiv@quotient+1)& (0+255),b
  1845  000F7A  0E00               	movlw	0
  1846  000F7C  6F65               	movwf	___lwdiv@quotient& (0+255),b
  1847  000F7E                     
  1848                           ; BSR set to: 0
  1849  000F7E  5163               	movf	___lwdiv@divisor& (0+255),w,b
  1850  000F80  1164               	iorwf	(___lwdiv@divisor+1)& (0+255),w,b
  1851  000F82  B4D8               	btfsc	status,2,c
  1852  000F84  EFC6  F007         	goto	u1331
  1853  000F88  EFC8  F007         	goto	u1330
  1854  000F8C                     u1331:
  1855  000F8C  EFF0  F007         	goto	l823
  1856  000F90                     u1330:
  1857  000F90                     
  1858                           ; BSR set to: 0
  1859  000F90  0E01               	movlw	1
  1860  000F92  6F67               	movwf	___lwdiv@counter& (0+255),b
  1861  000F94  EFD0  F007         	goto	l1963
  1862  000F98                     l1961:
  1863                           
  1864                           ; BSR set to: 0
  1865  000F98  90D8               	bcf	status,0,c
  1866  000F9A  3763               	rlcf	___lwdiv@divisor& (0+255),f,b
  1867  000F9C  3764               	rlcf	(___lwdiv@divisor+1)& (0+255),f,b
  1868  000F9E  2B67               	incf	___lwdiv@counter& (0+255),f,b
  1869  000FA0                     l1963:
  1870                           
  1871                           ; BSR set to: 0
  1872  000FA0  AF64               	btfss	(___lwdiv@divisor+1)& (0+255),7,b
  1873  000FA2  EFD5  F007         	goto	u1341
  1874  000FA6  EFD7  F007         	goto	u1340
  1875  000FAA                     u1341:
  1876  000FAA  EFCC  F007         	goto	l1961
  1877  000FAE                     u1340:
  1878  000FAE                     l1965:
  1879                           
  1880                           ; BSR set to: 0
  1881  000FAE  90D8               	bcf	status,0,c
  1882  000FB0  3765               	rlcf	___lwdiv@quotient& (0+255),f,b
  1883  000FB2  3766               	rlcf	(___lwdiv@quotient+1)& (0+255),f,b
  1884  000FB4                     
  1885                           ; BSR set to: 0
  1886  000FB4  5163               	movf	___lwdiv@divisor& (0+255),w,b
  1887  000FB6  5D61               	subwf	___lwdiv@dividend& (0+255),w,b
  1888  000FB8  5164               	movf	(___lwdiv@divisor+1)& (0+255),w,b
  1889  000FBA  5962               	subwfb	(___lwdiv@dividend+1)& (0+255),w,b
  1890  000FBC  A0D8               	btfss	status,0,c
  1891  000FBE  EFE3  F007         	goto	u1351
  1892  000FC2  EFE5  F007         	goto	u1350
  1893  000FC6                     u1351:
  1894  000FC6  EFEA  F007         	goto	l1973
  1895  000FCA                     u1350:
  1896  000FCA                     
  1897                           ; BSR set to: 0
  1898  000FCA  5163               	movf	___lwdiv@divisor& (0+255),w,b
  1899  000FCC  5F61               	subwf	___lwdiv@dividend& (0+255),f,b
  1900  000FCE  5164               	movf	(___lwdiv@divisor+1)& (0+255),w,b
  1901  000FD0  5B62               	subwfb	(___lwdiv@dividend+1)& (0+255),f,b
  1902  000FD2                     
  1903                           ; BSR set to: 0
  1904  000FD2  8165               	bsf	___lwdiv@quotient& (0+255),0,b
  1905  000FD4                     l1973:
  1906                           
  1907                           ; BSR set to: 0
  1908  000FD4  90D8               	bcf	status,0,c
  1909  000FD6  3364               	rrcf	(___lwdiv@divisor+1)& (0+255),f,b
  1910  000FD8  3363               	rrcf	___lwdiv@divisor& (0+255),f,b
  1911  000FDA                     
  1912                           ; BSR set to: 0
  1913  000FDA  2F67               	decfsz	___lwdiv@counter& (0+255),f,b
  1914  000FDC  EFD7  F007         	goto	l1965
  1915  000FE0                     l823:
  1916                           
  1917                           ; BSR set to: 0
  1918  000FE0  C065  F061         	movff	___lwdiv@quotient,?___lwdiv
  1919  000FE4  C066  F062         	movff	___lwdiv@quotient+1,?___lwdiv+1
  1920  000FE8                     
  1921                           ; BSR set to: 0
  1922  000FE8  0012               	return		;funcret
  1923  000FEA                     __end_of___lwdiv:
  1924                           	opt callstack 0
  1925                           
  1926 ;; *************** function _PWM_generar *****************
  1927 ;; Defined at:
  1928 ;;		line 10 in file "PWM.c"
  1929 ;; Parameters:    Size  Location     Type
  1930 ;;  duty            2   14[BANK0 ] unsigned int 
  1931 ;;  fpwm            2   16[BANK0 ] unsigned int 
  1932 ;; Auto vars:     Size  Location     Type
  1933 ;;  AuxCCPR2L       4   30[BANK0 ] unsigned long 
  1934 ;;  PR2cal          4   26[BANK0 ] unsigned long 
  1935 ;;  AuxCCP2CON      2   24[BANK0 ] unsigned int 
  1936 ;;  prescalador     2   22[BANK0 ] unsigned int 
  1937 ;; Return value:  Size  Location     Type
  1938 ;;                  1    wreg      void 
  1939 ;; Registers used:
  1940 ;;		wreg, status,2, status,0, cstack
  1941 ;; Tracked objects:
  1942 ;;		On entry : 0/0
  1943 ;;		On exit  : 0/0
  1944 ;;		Unchanged: 0/0
  1945 ;; Data sizes:     COMRAM   BANK0   BANK1   BANK2   BANK3   BANK4   BANK5   BANK6   BANK7
  1946 ;;      Params:         0       4       0       0       0       0       0       0       0
  1947 ;;      Locals:         0      12       0       0       0       0       0       0       0
  1948 ;;      Temps:          0       4       0       0       0       0       0       0       0
  1949 ;;      Totals:         0      20       0       0       0       0       0       0       0
  1950 ;;Total ram usage:       20 bytes
  1951 ;; Hardware stack levels used:    1
  1952 ;; Hardware stack levels required when called:    4
  1953 ;; This function calls:
  1954 ;;		___lldiv
  1955 ;;		___lmul
  1956 ;; This function is called by:
  1957 ;;		_mostrar_dec
  1958 ;;		_Dutty_Pwm
  1959 ;;		_demo_Dutty_Pwm
  1960 ;; This function uses a non-reentrant model
  1961 ;;
  1962                           
  1963                           	psect	text10
  1964  000464                     __ptext10:
  1965                           	opt callstack 0
  1966  000464                     _PWM_generar:
  1967                           	opt callstack 24
  1968  000464                     
  1969                           ;PWM.c: 17:     TRISCbits.RC1=0;
  1970  000464  9294               	bcf	148,1,c	;volatile
  1971  000466                     
  1972                           ;PWM.c: 18:     ANSELC=0;
  1973  000466  0E00               	movlw	0
  1974  000468  010F               	movlb	15	; () banked
  1975  00046A  6F5D               	movwf	93,b	;volatile
  1976                           
  1977                           ;PWM.c: 19:     unsigned int prescalador=1;
  1978  00046C  0E00               	movlw	0
  1979  00046E  0100               	movlb	0	; () banked
  1980  000470  6F77               	movwf	(PWM_generar@prescalador+1)& (0+255),b
  1981  000472  0E01               	movlw	1
  1982  000474  6F76               	movwf	PWM_generar@prescalador& (0+255),b
  1983                           
  1984                           ;PWM.c: 20:     unsigned long PR2cal=4000000;
  1985  000476  0E00               	movlw	0
  1986  000478  6F7A               	movwf	PWM_generar@PR2cal& (0+255),b
  1987  00047A  0E09               	movlw	9
  1988  00047C  6F7B               	movwf	(PWM_generar@PR2cal+1)& (0+255),b
  1989  00047E  0E3D               	movlw	61
  1990  000480  6F7C               	movwf	(PWM_generar@PR2cal+2)& (0+255),b
  1991  000482  0E00               	movlw	0
  1992  000484  6F7D               	movwf	(PWM_generar@PR2cal+3)& (0+255),b
  1993  000486                     
  1994                           ; BSR set to: 0
  1995                           ;PWM.c: 21:     PR2cal=PR2cal/fpwm;
  1996  000486  C07A  F061         	movff	PWM_generar@PR2cal,___lldiv@dividend
  1997  00048A  C07B  F062         	movff	PWM_generar@PR2cal+1,___lldiv@dividend+1
  1998  00048E  C07C  F063         	movff	PWM_generar@PR2cal+2,___lldiv@dividend+2
  1999  000492  C07D  F064         	movff	PWM_generar@PR2cal+3,___lldiv@dividend+3
  2000  000496  C070  F065         	movff	PWM_generar@fpwm,___lldiv@divisor
  2001  00049A  C071  F066         	movff	PWM_generar@fpwm+1,___lldiv@divisor+1
  2002  00049E  6B67               	clrf	(___lldiv@divisor+2)& (0+255),b
  2003  0004A0  6B68               	clrf	(___lldiv@divisor+3)& (0+255),b
  2004  0004A2  ECCB  F006         	call	___lldiv	;wreg free
  2005  0004A6  C061  F07A         	movff	?___lldiv,PWM_generar@PR2cal
  2006  0004AA  C062  F07B         	movff	?___lldiv+1,PWM_generar@PR2cal+1
  2007  0004AE  C063  F07C         	movff	?___lldiv+2,PWM_generar@PR2cal+2
  2008  0004B2  C064  F07D         	movff	?___lldiv+3,PWM_generar@PR2cal+3
  2009  0004B6                     
  2010                           ;PWM.c: 22:     PR2cal=PR2cal/4;
  2011  0004B6  C07A  F072         	movff	PWM_generar@PR2cal,??_PWM_generar
  2012  0004BA  C07B  F073         	movff	PWM_generar@PR2cal+1,??_PWM_generar+1
  2013  0004BE  C07C  F074         	movff	PWM_generar@PR2cal+2,??_PWM_generar+2
  2014  0004C2  C07D  F075         	movff	PWM_generar@PR2cal+3,??_PWM_generar+3
  2015  0004C6  0E03               	movlw	3
  2016  0004C8  EF6C  F002         	goto	u1080
  2017  0004CC                     u1085:
  2018  0004CC  0100               	movlb	0	; () banked
  2019  0004CE  90D8               	bcf	status,0,c
  2020  0004D0  3375               	rrcf	(??_PWM_generar+3)& (0+255),f,b
  2021  0004D2  3374               	rrcf	(??_PWM_generar+2)& (0+255),f,b
  2022  0004D4  3373               	rrcf	(??_PWM_generar+1)& (0+255),f,b
  2023  0004D6  3372               	rrcf	??_PWM_generar& (0+255),f,b
  2024  0004D8                     u1080:
  2025  0004D8  2EE8               	decfsz	wreg,f,c
  2026  0004DA  EF66  F002         	goto	u1085
  2027  0004DE  C072  F07A         	movff	??_PWM_generar,PWM_generar@PR2cal
  2028  0004E2  C073  F07B         	movff	??_PWM_generar+1,PWM_generar@PR2cal+1
  2029  0004E6  C074  F07C         	movff	??_PWM_generar+2,PWM_generar@PR2cal+2
  2030  0004EA  C075  F07D         	movff	??_PWM_generar+3,PWM_generar@PR2cal+3
  2031  0004EE                     
  2032                           ; BSR set to: 0
  2033                           ;PWM.c: 23:     T2CON=0b00000000;
  2034  0004EE  0E00               	movlw	0
  2035  0004F0  6EBA               	movwf	186,c	;volatile
  2036                           
  2037                           ;PWM.c: 24:     while(PR2cal>256){
  2038  0004F2  EFA5  F002         	goto	l1845
  2039  0004F6                     l1841:
  2040                           
  2041                           ; BSR set to: 0
  2042                           ;PWM.c: 25:        prescalador=prescalador*4;
  2043  0004F6  C076  F072         	movff	PWM_generar@prescalador,??_PWM_generar
  2044  0004FA  C077  F073         	movff	PWM_generar@prescalador+1,??_PWM_generar+1
  2045  0004FE  90D8               	bcf	status,0,c
  2046  000500  3772               	rlcf	??_PWM_generar& (0+255),f,b
  2047  000502  3773               	rlcf	(??_PWM_generar+1)& (0+255),f,b
  2048  000504  90D8               	bcf	status,0,c
  2049  000506  3772               	rlcf	??_PWM_generar& (0+255),f,b
  2050  000508  3773               	rlcf	(??_PWM_generar+1)& (0+255),f,b
  2051  00050A  C072  F076         	movff	??_PWM_generar,PWM_generar@prescalador
  2052  00050E  C073  F077         	movff	??_PWM_generar+1,PWM_generar@prescalador+1
  2053                           
  2054                           ;PWM.c: 26:        T2CON++;
  2055  000512  2ABA               	incf	186,f,c	;volatile
  2056  000514                     
  2057                           ; BSR set to: 0
  2058                           ;PWM.c: 27:        PR2cal=PR2cal/4;
  2059  000514  C07A  F072         	movff	PWM_generar@PR2cal,??_PWM_generar
  2060  000518  C07B  F073         	movff	PWM_generar@PR2cal+1,??_PWM_generar+1
  2061  00051C  C07C  F074         	movff	PWM_generar@PR2cal+2,??_PWM_generar+2
  2062  000520  C07D  F075         	movff	PWM_generar@PR2cal+3,??_PWM_generar+3
  2063  000524  0E03               	movlw	3
  2064  000526  EF9A  F002         	goto	u1090
  2065  00052A                     u1095:
  2066  00052A  90D8               	bcf	status,0,c
  2067  00052C  3375               	rrcf	(??_PWM_generar+3)& (0+255),f,b
  2068  00052E  3374               	rrcf	(??_PWM_generar+2)& (0+255),f,b
  2069  000530  3373               	rrcf	(??_PWM_generar+1)& (0+255),f,b
  2070  000532  3372               	rrcf	??_PWM_generar& (0+255),f,b
  2071  000534                     u1090:
  2072  000534  2EE8               	decfsz	wreg,f,c
  2073  000536  EF95  F002         	goto	u1095
  2074  00053A  C072  F07A         	movff	??_PWM_generar,PWM_generar@PR2cal
  2075  00053E  C073  F07B         	movff	??_PWM_generar+1,PWM_generar@PR2cal+1
  2076  000542  C074  F07C         	movff	??_PWM_generar+2,PWM_generar@PR2cal+2
  2077  000546  C075  F07D         	movff	??_PWM_generar+3,PWM_generar@PR2cal+3
  2078  00054A                     l1845:
  2079                           
  2080                           ; BSR set to: 0
  2081                           ;PWM.c: 24:     while(PR2cal>256){
  2082  00054A  517D               	movf	(PWM_generar@PR2cal+3)& (0+255),w,b
  2083  00054C  117C               	iorwf	(PWM_generar@PR2cal+2)& (0+255),w,b
  2084  00054E  E108               	bnz	u1101
  2085  000550  057A               	decf	PWM_generar@PR2cal& (0+255),w,b
  2086  000552  0E01               	movlw	1
  2087  000554  597B               	subwfb	(PWM_generar@PR2cal+1)& (0+255),w,b
  2088  000556  B0D8               	btfsc	status,0,c
  2089  000558  EFB0  F002         	goto	u1101
  2090  00055C  EFB2  F002         	goto	u1100
  2091  000560                     u1101:
  2092  000560  EF7B  F002         	goto	l1841
  2093  000564                     u1100:
  2094  000564                     
  2095                           ; BSR set to: 0
  2096                           ;PWM.c: 29:     PR2cal--;
  2097  000564  077A               	decf	PWM_generar@PR2cal& (0+255),f,b
  2098  000566  0E00               	movlw	0
  2099  000568  5B7B               	subwfb	(PWM_generar@PR2cal+1)& (0+255),f,b
  2100  00056A  5B7C               	subwfb	(PWM_generar@PR2cal+2)& (0+255),f,b
  2101  00056C  5B7D               	subwfb	(PWM_generar@PR2cal+3)& (0+255),f,b
  2102  00056E                     
  2103                           ; BSR set to: 0
  2104                           ;PWM.c: 30:     PR2=PR2cal;
  2105  00056E  C07A  FFBB         	movff	PWM_generar@PR2cal,4027	;volatile
  2106  000572                     
  2107                           ; BSR set to: 0
  2108                           ;PWM.c: 37:     unsigned long AuxCCPR2L=PR2cal;
  2109  000572  C07A  F07E         	movff	PWM_generar@PR2cal,PWM_generar@AuxCCPR2L
  2110  000576  C07B  F07F         	movff	PWM_generar@PR2cal+1,PWM_generar@AuxCCPR2L+1
  2111  00057A  C07C  F080         	movff	PWM_generar@PR2cal+2,PWM_generar@AuxCCPR2L+2
  2112  00057E  C07D  F081         	movff	PWM_generar@PR2cal+3,PWM_generar@AuxCCPR2L+3
  2113                           
  2114                           ;PWM.c: 38:     AuxCCPR2L++;
  2115  000582  0E01               	movlw	1
  2116  000584  277E               	addwf	PWM_generar@AuxCCPR2L& (0+255),f,b
  2117  000586  0E00               	movlw	0
  2118  000588  237F               	addwfc	(PWM_generar@AuxCCPR2L+1)& (0+255),f,b
  2119  00058A  2380               	addwfc	(PWM_generar@AuxCCPR2L+2)& (0+255),f,b
  2120  00058C  2381               	addwfc	(PWM_generar@AuxCCPR2L+3)& (0+255),f,b
  2121  00058E                     
  2122                           ; BSR set to: 0
  2123                           ;PWM.c: 39:     AuxCCPR2L=AuxCCPR2L*duty;
  2124  00058E  C06E  F061         	movff	PWM_generar@duty,___lmul@multiplier
  2125  000592  C06F  F062         	movff	PWM_generar@duty+1,___lmul@multiplier+1
  2126  000596  6B63               	clrf	(___lmul@multiplier+2)& (0+255),b
  2127  000598  6B64               	clrf	(___lmul@multiplier+3)& (0+255),b
  2128  00059A  C07E  F065         	movff	PWM_generar@AuxCCPR2L,___lmul@multiplicand
  2129  00059E  C07F  F066         	movff	PWM_generar@AuxCCPR2L+1,___lmul@multiplicand+1
  2130  0005A2  C080  F067         	movff	PWM_generar@AuxCCPR2L+2,___lmul@multiplicand+2
  2131  0005A6  C081  F068         	movff	PWM_generar@AuxCCPR2L+3,___lmul@multiplicand+3
  2132  0005AA  ECF5  F007         	call	___lmul	;wreg free
  2133  0005AE  C061  F07E         	movff	?___lmul,PWM_generar@AuxCCPR2L
  2134  0005B2  C062  F07F         	movff	?___lmul+1,PWM_generar@AuxCCPR2L+1
  2135  0005B6  C063  F080         	movff	?___lmul+2,PWM_generar@AuxCCPR2L+2
  2136  0005BA  C064  F081         	movff	?___lmul+3,PWM_generar@AuxCCPR2L+3
  2137  0005BE                     
  2138                           ;PWM.c: 40:     AuxCCPR2L=AuxCCPR2L*4;
  2139  0005BE  C07E  F072         	movff	PWM_generar@AuxCCPR2L,??_PWM_generar
  2140  0005C2  C07F  F073         	movff	PWM_generar@AuxCCPR2L+1,??_PWM_generar+1
  2141  0005C6  C080  F074         	movff	PWM_generar@AuxCCPR2L+2,??_PWM_generar+2
  2142  0005CA  C081  F075         	movff	PWM_generar@AuxCCPR2L+3,??_PWM_generar+3
  2143  0005CE  0E02               	movlw	2
  2144  0005D0                     u1115:
  2145  0005D0  90D8               	bcf	status,0,c
  2146  0005D2  0100               	movlb	0	; () banked
  2147  0005D4  3772               	rlcf	??_PWM_generar& (0+255),f,b
  2148  0005D6  3773               	rlcf	(??_PWM_generar+1)& (0+255),f,b
  2149  0005D8  3774               	rlcf	(??_PWM_generar+2)& (0+255),f,b
  2150  0005DA  3775               	rlcf	(??_PWM_generar+3)& (0+255),f,b
  2151  0005DC  2EE8               	decfsz	wreg,f,c
  2152  0005DE  EFE8  F002         	goto	u1115
  2153  0005E2  C072  F07E         	movff	??_PWM_generar,PWM_generar@AuxCCPR2L
  2154  0005E6  C073  F07F         	movff	??_PWM_generar+1,PWM_generar@AuxCCPR2L+1
  2155  0005EA  C074  F080         	movff	??_PWM_generar+2,PWM_generar@AuxCCPR2L+2
  2156  0005EE  C075  F081         	movff	??_PWM_generar+3,PWM_generar@AuxCCPR2L+3
  2157                           
  2158                           ;PWM.c: 41:     AuxCCPR2L=AuxCCPR2L/100;
  2159  0005F2  C07E  F061         	movff	PWM_generar@AuxCCPR2L,___lldiv@dividend
  2160  0005F6  C07F  F062         	movff	PWM_generar@AuxCCPR2L+1,___lldiv@dividend+1
  2161  0005FA  C080  F063         	movff	PWM_generar@AuxCCPR2L+2,___lldiv@dividend+2
  2162  0005FE  C081  F064         	movff	PWM_generar@AuxCCPR2L+3,___lldiv@dividend+3
  2163  000602  0E64               	movlw	100
  2164  000604  6F65               	movwf	___lldiv@divisor& (0+255),b
  2165  000606  0E00               	movlw	0
  2166  000608  6F66               	movwf	(___lldiv@divisor+1)& (0+255),b
  2167  00060A  0E00               	movlw	0
  2168  00060C  6F67               	movwf	(___lldiv@divisor+2)& (0+255),b
  2169  00060E  0E00               	movlw	0
  2170  000610  6F68               	movwf	(___lldiv@divisor+3)& (0+255),b
  2171  000612  ECCB  F006         	call	___lldiv	;wreg free
  2172  000616  C061  F07E         	movff	?___lldiv,PWM_generar@AuxCCPR2L
  2173  00061A  C062  F07F         	movff	?___lldiv+1,PWM_generar@AuxCCPR2L+1
  2174  00061E  C063  F080         	movff	?___lldiv+2,PWM_generar@AuxCCPR2L+2
  2175  000622  C064  F081         	movff	?___lldiv+3,PWM_generar@AuxCCPR2L+3
  2176  000626                     
  2177                           ;PWM.c: 42:     unsigned int AuxCCP2CON= AuxCCPR2L;
  2178  000626  C07E  F078         	movff	PWM_generar@AuxCCPR2L,PWM_generar@AuxCCP2CON
  2179  00062A  C07F  F079         	movff	PWM_generar@AuxCCPR2L+1,PWM_generar@AuxCCP2CON+1
  2180  00062E                     
  2181                           ;PWM.c: 43:     AuxCCP2CON= AuxCCP2CON & 0b00000011 ;
  2182  00062E  0E03               	movlw	3
  2183  000630  0100               	movlb	0	; () banked
  2184  000632  1578               	andwf	PWM_generar@AuxCCP2CON& (0+255),w,b
  2185  000634  6F78               	movwf	PWM_generar@AuxCCP2CON& (0+255),b
  2186  000636  6B79               	clrf	(PWM_generar@AuxCCP2CON+1)& (0+255),b
  2187  000638                     
  2188                           ; BSR set to: 0
  2189                           ;PWM.c: 44:     AuxCCP2CON= AuxCCP2CON*16;
  2190  000638  C078  F072         	movff	PWM_generar@AuxCCP2CON,??_PWM_generar
  2191  00063C  C079  F073         	movff	PWM_generar@AuxCCP2CON+1,??_PWM_generar+1
  2192  000640  3B72               	swapf	??_PWM_generar& (0+255),f,b
  2193  000642  3B73               	swapf	(??_PWM_generar+1)& (0+255),f,b
  2194  000644  0EF0               	movlw	240
  2195  000646  1773               	andwf	(??_PWM_generar+1)& (0+255),f,b
  2196  000648  5172               	movf	??_PWM_generar& (0+255),w,b
  2197  00064A  0B0F               	andlw	15
  2198  00064C  1373               	iorwf	(??_PWM_generar+1)& (0+255),f,b
  2199  00064E  0EF0               	movlw	240
  2200  000650  1772               	andwf	??_PWM_generar& (0+255),f,b
  2201  000652  C072  F078         	movff	??_PWM_generar,PWM_generar@AuxCCP2CON
  2202  000656  C073  F079         	movff	??_PWM_generar+1,PWM_generar@AuxCCP2CON+1
  2203  00065A                     
  2204                           ; BSR set to: 0
  2205                           ;PWM.c: 45:     CCP2CON= 0b00001100;
  2206  00065A  0E0C               	movlw	12
  2207  00065C  6E97               	movwf	151,c	;volatile
  2208  00065E                     
  2209                           ; BSR set to: 0
  2210                           ;PWM.c: 46:     CCP2CON= CCP2CON|AuxCCP2CON;
  2211  00065E  5097               	movf	151,w,c
  2212  000660  1178               	iorwf	PWM_generar@AuxCCP2CON& (0+255),w,b
  2213  000662  6E97               	movwf	151,c	;volatile
  2214  000664                     
  2215                           ; BSR set to: 0
  2216                           ;PWM.c: 47:     AuxCCPR2L=AuxCCPR2L/4;
  2217  000664  C07E  F072         	movff	PWM_generar@AuxCCPR2L,??_PWM_generar
  2218  000668  C07F  F073         	movff	PWM_generar@AuxCCPR2L+1,??_PWM_generar+1
  2219  00066C  C080  F074         	movff	PWM_generar@AuxCCPR2L+2,??_PWM_generar+2
  2220  000670  C081  F075         	movff	PWM_generar@AuxCCPR2L+3,??_PWM_generar+3
  2221  000674  0E03               	movlw	3
  2222  000676  EF42  F003         	goto	u1120
  2223  00067A                     u1125:
  2224  00067A  90D8               	bcf	status,0,c
  2225  00067C  3375               	rrcf	(??_PWM_generar+3)& (0+255),f,b
  2226  00067E  3374               	rrcf	(??_PWM_generar+2)& (0+255),f,b
  2227  000680  3373               	rrcf	(??_PWM_generar+1)& (0+255),f,b
  2228  000682  3372               	rrcf	??_PWM_generar& (0+255),f,b
  2229  000684                     u1120:
  2230  000684  2EE8               	decfsz	wreg,f,c
  2231  000686  EF3D  F003         	goto	u1125
  2232  00068A  C072  F07E         	movff	??_PWM_generar,PWM_generar@AuxCCPR2L
  2233  00068E  C073  F07F         	movff	??_PWM_generar+1,PWM_generar@AuxCCPR2L+1
  2234  000692  C074  F080         	movff	??_PWM_generar+2,PWM_generar@AuxCCPR2L+2
  2235  000696  C075  F081         	movff	??_PWM_generar+3,PWM_generar@AuxCCPR2L+3
  2236  00069A                     
  2237                           ; BSR set to: 0
  2238                           ;PWM.c: 48:     CCPR2L=AuxCCPR2L;
  2239  00069A  C07E  FF90         	movff	PWM_generar@AuxCCPR2L,3984	;volatile
  2240  00069E                     
  2241                           ; BSR set to: 0
  2242                           ;PWM.c: 49:     T2CONbits.TMR2ON=1;
  2243  00069E  84BA               	bsf	186,2,c	;volatile
  2244  0006A0                     
  2245                           ; BSR set to: 0
  2246                           ;PWM.c: 50:     TMR2=0;
  2247  0006A0  0E00               	movlw	0
  2248  0006A2  6EBC               	movwf	188,c	;volatile
  2249  0006A4                     
  2250                           ; BSR set to: 0
  2251  0006A4  0012               	return		;funcret
  2252  0006A6                     __end_of_PWM_generar:
  2253                           	opt callstack 0
  2254                           
  2255 ;; *************** function ___lmul *****************
  2256 ;; Defined at:
  2257 ;;		line 15 in file "/opt/microchip/xc8/v2.10/pic/sources/c99/common/Umul32.c"
  2258 ;; Parameters:    Size  Location     Type
  2259 ;;  multiplier      4    1[BANK0 ] unsigned long 
  2260 ;;  multiplicand    4    5[BANK0 ] unsigned long 
  2261 ;; Auto vars:     Size  Location     Type
  2262 ;;  product         4    9[BANK0 ] unsigned long 
  2263 ;; Return value:  Size  Location     Type
  2264 ;;                  4    1[BANK0 ] unsigned long 
  2265 ;; Registers used:
  2266 ;;		wreg, status,2, status,0
  2267 ;; Tracked objects:
  2268 ;;		On entry : 0/0
  2269 ;;		On exit  : 0/0
  2270 ;;		Unchanged: 0/0
  2271 ;; Data sizes:     COMRAM   BANK0   BANK1   BANK2   BANK3   BANK4   BANK5   BANK6   BANK7
  2272 ;;      Params:         0       8       0       0       0       0       0       0       0
  2273 ;;      Locals:         0       4       0       0       0       0       0       0       0
  2274 ;;      Temps:          0       0       0       0       0       0       0       0       0
  2275 ;;      Totals:         0      12       0       0       0       0       0       0       0
  2276 ;;Total ram usage:       12 bytes
  2277 ;; Hardware stack levels used:    1
  2278 ;; Hardware stack levels required when called:    3
  2279 ;; This function calls:
  2280 ;;		Nothing
  2281 ;; This function is called by:
  2282 ;;		_PWM_generar
  2283 ;; This function uses a non-reentrant model
  2284 ;;
  2285                           
  2286                           	psect	text11
  2287  000FEA                     __ptext11:
  2288                           	opt callstack 0
  2289  000FEA                     ___lmul:
  2290                           	opt callstack 24
  2291  000FEA  0E00               	movlw	0
  2292  000FEC  0100               	movlb	0	; () banked
  2293  000FEE  6F69               	movwf	___lmul@product& (0+255),b
  2294  000FF0  0E00               	movlw	0
  2295  000FF2  6F6A               	movwf	(___lmul@product+1)& (0+255),b
  2296  000FF4  0E00               	movlw	0
  2297  000FF6  6F6B               	movwf	(___lmul@product+2)& (0+255),b
  2298  000FF8  0E00               	movlw	0
  2299  000FFA  6F6C               	movwf	(___lmul@product+3)& (0+255),b
  2300  000FFC                     l1801:
  2301                           
  2302                           ; BSR set to: 0
  2303  000FFC  A161               	btfss	___lmul@multiplier& (0+255),0,b
  2304  000FFE  EF03  F008         	goto	u1031
  2305  001002  EF05  F008         	goto	u1030
  2306  001006                     u1031:
  2307  001006  EF0D  F008         	goto	l1805
  2308  00100A                     u1030:
  2309  00100A                     
  2310                           ; BSR set to: 0
  2311  00100A  5165               	movf	___lmul@multiplicand& (0+255),w,b
  2312  00100C  2769               	addwf	___lmul@product& (0+255),f,b
  2313  00100E  5166               	movf	(___lmul@multiplicand+1)& (0+255),w,b
  2314  001010  236A               	addwfc	(___lmul@product+1)& (0+255),f,b
  2315  001012  5167               	movf	(___lmul@multiplicand+2)& (0+255),w,b
  2316  001014  236B               	addwfc	(___lmul@product+2)& (0+255),f,b
  2317  001016  5168               	movf	(___lmul@multiplicand+3)& (0+255),w,b
  2318  001018  236C               	addwfc	(___lmul@product+3)& (0+255),f,b
  2319  00101A                     l1805:
  2320                           
  2321                           ; BSR set to: 0
  2322  00101A  90D8               	bcf	status,0,c
  2323  00101C  3765               	rlcf	___lmul@multiplicand& (0+255),f,b
  2324  00101E  3766               	rlcf	(___lmul@multiplicand+1)& (0+255),f,b
  2325  001020  3767               	rlcf	(___lmul@multiplicand+2)& (0+255),f,b
  2326  001022  3768               	rlcf	(___lmul@multiplicand+3)& (0+255),f,b
  2327  001024                     
  2328                           ; BSR set to: 0
  2329  001024  90D8               	bcf	status,0,c
  2330  001026  3364               	rrcf	(___lmul@multiplier+3)& (0+255),f,b
  2331  001028  3363               	rrcf	(___lmul@multiplier+2)& (0+255),f,b
  2332  00102A  3362               	rrcf	(___lmul@multiplier+1)& (0+255),f,b
  2333  00102C  3361               	rrcf	___lmul@multiplier& (0+255),f,b
  2334  00102E  5161               	movf	___lmul@multiplier& (0+255),w,b
  2335  001030  1162               	iorwf	(___lmul@multiplier+1)& (0+255),w,b
  2336  001032  1163               	iorwf	(___lmul@multiplier+2)& (0+255),w,b
  2337  001034  1164               	iorwf	(___lmul@multiplier+3)& (0+255),w,b
  2338  001036  A4D8               	btfss	status,2,c
  2339  001038  EF20  F008         	goto	u1041
  2340  00103C  EF22  F008         	goto	u1040
  2341  001040                     u1041:
  2342  001040  EFFE  F007         	goto	l1801
  2343  001044                     u1040:
  2344  001044                     
  2345                           ; BSR set to: 0
  2346  001044  C069  F061         	movff	___lmul@product,?___lmul
  2347  001048  C06A  F062         	movff	___lmul@product+1,?___lmul+1
  2348  00104C  C06B  F063         	movff	___lmul@product+2,?___lmul+2
  2349  001050  C06C  F064         	movff	___lmul@product+3,?___lmul+3
  2350  001054                     
  2351                           ; BSR set to: 0
  2352  001054  0012               	return		;funcret
  2353  001056                     __end_of___lmul:
  2354                           	opt callstack 0
  2355                           
  2356 ;; *************** function ___lldiv *****************
  2357 ;; Defined at:
  2358 ;;		line 7 in file "/opt/microchip/xc8/v2.10/pic/sources/c99/common/__lldiv.c"
  2359 ;; Parameters:    Size  Location     Type
  2360 ;;  dividend        4    1[BANK0 ] unsigned long 
  2361 ;;  divisor         4    5[BANK0 ] unsigned long 
  2362 ;; Auto vars:     Size  Location     Type
  2363 ;;  quotient        4    9[BANK0 ] unsigned long 
  2364 ;;  counter         1   13[BANK0 ] unsigned char 
  2365 ;; Return value:  Size  Location     Type
  2366 ;;                  4    1[BANK0 ] unsigned long 
  2367 ;; Registers used:
  2368 ;;		wreg, status,2, status,0
  2369 ;; Tracked objects:
  2370 ;;		On entry : 0/0
  2371 ;;		On exit  : 0/0
  2372 ;;		Unchanged: 0/0
  2373 ;; Data sizes:     COMRAM   BANK0   BANK1   BANK2   BANK3   BANK4   BANK5   BANK6   BANK7
  2374 ;;      Params:         0       8       0       0       0       0       0       0       0
  2375 ;;      Locals:         0       5       0       0       0       0       0       0       0
  2376 ;;      Temps:          0       0       0       0       0       0       0       0       0
  2377 ;;      Totals:         0      13       0       0       0       0       0       0       0
  2378 ;;Total ram usage:       13 bytes
  2379 ;; Hardware stack levels used:    1
  2380 ;; Hardware stack levels required when called:    3
  2381 ;; This function calls:
  2382 ;;		Nothing
  2383 ;; This function is called by:
  2384 ;;		_PWM_generar
  2385 ;; This function uses a non-reentrant model
  2386 ;;
  2387                           
  2388                           	psect	text12
  2389  000D96                     __ptext12:
  2390                           	opt callstack 0
  2391  000D96                     ___lldiv:
  2392                           	opt callstack 24
  2393  000D96  0E00               	movlw	0
  2394  000D98  0100               	movlb	0	; () banked
  2395  000D9A  6F69               	movwf	___lldiv@quotient& (0+255),b
  2396  000D9C  0E00               	movlw	0
  2397  000D9E  6F6A               	movwf	(___lldiv@quotient+1)& (0+255),b
  2398  000DA0  0E00               	movlw	0
  2399  000DA2  6F6B               	movwf	(___lldiv@quotient+2)& (0+255),b
  2400  000DA4  0E00               	movlw	0
  2401  000DA6  6F6C               	movwf	(___lldiv@quotient+3)& (0+255),b
  2402  000DA8                     
  2403                           ; BSR set to: 0
  2404  000DA8  5165               	movf	___lldiv@divisor& (0+255),w,b
  2405  000DAA  1166               	iorwf	(___lldiv@divisor+1)& (0+255),w,b
  2406  000DAC  1167               	iorwf	(___lldiv@divisor+2)& (0+255),w,b
  2407  000DAE  1168               	iorwf	(___lldiv@divisor+3)& (0+255),w,b
  2408  000DB0  B4D8               	btfsc	status,2,c
  2409  000DB2  EFDD  F006         	goto	u1051
  2410  000DB6  EFDF  F006         	goto	u1050
  2411  000DBA                     u1051:
  2412  000DBA  EF15  F007         	goto	l359
  2413  000DBE                     u1050:
  2414  000DBE                     
  2415                           ; BSR set to: 0
  2416  000DBE  0E01               	movlw	1
  2417  000DC0  6F6D               	movwf	___lldiv@counter& (0+255),b
  2418  000DC2  EFE9  F006         	goto	l1817
  2419  000DC6                     l1815:
  2420                           
  2421                           ; BSR set to: 0
  2422  000DC6  90D8               	bcf	status,0,c
  2423  000DC8  3765               	rlcf	___lldiv@divisor& (0+255),f,b
  2424  000DCA  3766               	rlcf	(___lldiv@divisor+1)& (0+255),f,b
  2425  000DCC  3767               	rlcf	(___lldiv@divisor+2)& (0+255),f,b
  2426  000DCE  3768               	rlcf	(___lldiv@divisor+3)& (0+255),f,b
  2427  000DD0  2B6D               	incf	___lldiv@counter& (0+255),f,b
  2428  000DD2                     l1817:
  2429                           
  2430                           ; BSR set to: 0
  2431  000DD2  AF68               	btfss	(___lldiv@divisor+3)& (0+255),7,b
  2432  000DD4  EFEE  F006         	goto	u1061
  2433  000DD8  EFF0  F006         	goto	u1060
  2434  000DDC                     u1061:
  2435  000DDC  EFE3  F006         	goto	l1815
  2436  000DE0                     u1060:
  2437  000DE0                     l1819:
  2438                           
  2439                           ; BSR set to: 0
  2440  000DE0  90D8               	bcf	status,0,c
  2441  000DE2  3769               	rlcf	___lldiv@quotient& (0+255),f,b
  2442  000DE4  376A               	rlcf	(___lldiv@quotient+1)& (0+255),f,b
  2443  000DE6  376B               	rlcf	(___lldiv@quotient+2)& (0+255),f,b
  2444  000DE8  376C               	rlcf	(___lldiv@quotient+3)& (0+255),f,b
  2445  000DEA                     
  2446                           ; BSR set to: 0
  2447  000DEA  5165               	movf	___lldiv@divisor& (0+255),w,b
  2448  000DEC  5D61               	subwf	___lldiv@dividend& (0+255),w,b
  2449  000DEE  5166               	movf	(___lldiv@divisor+1)& (0+255),w,b
  2450  000DF0  5962               	subwfb	(___lldiv@dividend+1)& (0+255),w,b
  2451  000DF2  5167               	movf	(___lldiv@divisor+2)& (0+255),w,b
  2452  000DF4  5963               	subwfb	(___lldiv@dividend+2)& (0+255),w,b
  2453  000DF6  5168               	movf	(___lldiv@divisor+3)& (0+255),w,b
  2454  000DF8  5964               	subwfb	(___lldiv@dividend+3)& (0+255),w,b
  2455  000DFA  A0D8               	btfss	status,0,c
  2456  000DFC  EF02  F007         	goto	u1071
  2457  000E00  EF04  F007         	goto	u1070
  2458  000E04                     u1071:
  2459  000E04  EF0D  F007         	goto	l1827
  2460  000E08                     u1070:
  2461  000E08                     
  2462                           ; BSR set to: 0
  2463  000E08  5165               	movf	___lldiv@divisor& (0+255),w,b
  2464  000E0A  5F61               	subwf	___lldiv@dividend& (0+255),f,b
  2465  000E0C  5166               	movf	(___lldiv@divisor+1)& (0+255),w,b
  2466  000E0E  5B62               	subwfb	(___lldiv@dividend+1)& (0+255),f,b
  2467  000E10  5167               	movf	(___lldiv@divisor+2)& (0+255),w,b
  2468  000E12  5B63               	subwfb	(___lldiv@dividend+2)& (0+255),f,b
  2469  000E14  5168               	movf	(___lldiv@divisor+3)& (0+255),w,b
  2470  000E16  5B64               	subwfb	(___lldiv@dividend+3)& (0+255),f,b
  2471  000E18                     
  2472                           ; BSR set to: 0
  2473  000E18  8169               	bsf	___lldiv@quotient& (0+255),0,b
  2474  000E1A                     l1827:
  2475                           
  2476                           ; BSR set to: 0
  2477  000E1A  90D8               	bcf	status,0,c
  2478  000E1C  3368               	rrcf	(___lldiv@divisor+3)& (0+255),f,b
  2479  000E1E  3367               	rrcf	(___lldiv@divisor+2)& (0+255),f,b
  2480  000E20  3366               	rrcf	(___lldiv@divisor+1)& (0+255),f,b
  2481  000E22  3365               	rrcf	___lldiv@divisor& (0+255),f,b
  2482  000E24                     
  2483                           ; BSR set to: 0
  2484  000E24  2F6D               	decfsz	___lldiv@counter& (0+255),f,b
  2485  000E26  EFF0  F006         	goto	l1819
  2486  000E2A                     l359:
  2487                           
  2488                           ; BSR set to: 0
  2489  000E2A  C069  F061         	movff	___lldiv@quotient,?___lldiv
  2490  000E2E  C06A  F062         	movff	___lldiv@quotient+1,?___lldiv+1
  2491  000E32  C06B  F063         	movff	___lldiv@quotient+2,?___lldiv+2
  2492  000E36  C06C  F064         	movff	___lldiv@quotient+3,?___lldiv+3
  2493  000E3A                     
  2494                           ; BSR set to: 0
  2495  000E3A  0012               	return		;funcret
  2496  000E3C                     __end_of___lldiv:
  2497                           	opt callstack 0
  2498                           
  2499 ;; *************** function _delay_s *****************
  2500 ;; Defined at:
  2501 ;;		line 136 in file "process.c"
  2502 ;; Parameters:    Size  Location     Type
  2503 ;;  seconds         2    1[BANK0 ] unsigned int 
  2504 ;; Auto vars:     Size  Location     Type
  2505 ;;		None
  2506 ;; Return value:  Size  Location     Type
  2507 ;;                  1    wreg      void 
  2508 ;; Registers used:
  2509 ;;		wreg, status,2, status,0
  2510 ;; Tracked objects:
  2511 ;;		On entry : 0/0
  2512 ;;		On exit  : 0/0
  2513 ;;		Unchanged: 0/0
  2514 ;; Data sizes:     COMRAM   BANK0   BANK1   BANK2   BANK3   BANK4   BANK5   BANK6   BANK7
  2515 ;;      Params:         0       2       0       0       0       0       0       0       0
  2516 ;;      Locals:         0       0       0       0       0       0       0       0       0
  2517 ;;      Temps:          0       2       0       0       0       0       0       0       0
  2518 ;;      Totals:         0       4       0       0       0       0       0       0       0
  2519 ;;Total ram usage:        4 bytes
  2520 ;; Hardware stack levels used:    1
  2521 ;; Hardware stack levels required when called:    3
  2522 ;; This function calls:
  2523 ;;		Nothing
  2524 ;; This function is called by:
  2525 ;;		_Dutty_Pwm
  2526 ;; This function uses a non-reentrant model
  2527 ;;
  2528                           
  2529                           	psect	text13
  2530  001142                     __ptext13:
  2531                           	opt callstack 0
  2532  001142                     _delay_s:
  2533                           	opt callstack 26
  2534  001142                     
  2535                           ;process.c: 136: void delay_s(unsigned int seconds);process.c: 137:  {;process.c: 138:  
      +                            while(seconds > 0)
  2536  001142  EFB4  F008         	goto	l197
  2537  001146                     l2021:
  2538                           
  2539                           ; BSR set to: 0
  2540                           ;process.c: 139:    {;process.c: 140:        _delay((unsigned long)((1000)*(4000000/4000
      +                          .0)));
  2541  001146  0E06               	movlw	6
  2542  001148  0100               	movlb	0	; () banked
  2543  00114A  6F64               	movwf	(??_delay_s+1)& (0+255),b
  2544  00114C  0E13               	movlw	19
  2545  00114E  6F63               	movwf	??_delay_s& (0+255),b
  2546  001150  0EAD               	movlw	173
  2547  001152                     u1957:
  2548  001152  2EE8               	decfsz	wreg,f,c
  2549  001154  D7FE               	bra	u1957
  2550  001156  2F63               	decfsz	??_delay_s& (0+255),f,b
  2551  001158  D7FC               	bra	u1957
  2552  00115A  2F64               	decfsz	(??_delay_s+1)& (0+255),f,b
  2553  00115C  D7FA               	bra	u1957
  2554  00115E  D000               	nop2	
  2555  001160                     
  2556                           ;process.c: 141:       seconds--;
  2557  001160  0100               	movlb	0	; () banked
  2558  001162  0761               	decf	delay_s@seconds& (0+255),f,b
  2559  001164  A0D8               	btfss	status,0,c
  2560  001166  0762               	decf	(delay_s@seconds+1)& (0+255),f,b
  2561  001168                     l197:
  2562                           
  2563                           ;process.c: 138:    while(seconds > 0)
  2564  001168  0100               	movlb	0	; () banked
  2565  00116A  5161               	movf	delay_s@seconds& (0+255),w,b
  2566  00116C  1162               	iorwf	(delay_s@seconds+1)& (0+255),w,b
  2567  00116E  A4D8               	btfss	status,2,c
  2568  001170  EFBC  F008         	goto	u1431
  2569  001174  EFBE  F008         	goto	u1430
  2570  001178                     u1431:
  2571  001178  EFA3  F008         	goto	l2021
  2572  00117C                     u1430:
  2573  00117C                     
  2574                           ; BSR set to: 0
  2575  00117C  0012               	return		;funcret
  2576  00117E                     __end_of_delay_s:
  2577                           	opt callstack 0
  2578                           
  2579 ;; *************** function _ADC_Init *****************
  2580 ;; Defined at:
  2581 ;;		line 11 in file "adc.c"
  2582 ;; Parameters:    Size  Location     Type
  2583 ;;		None
  2584 ;; Auto vars:     Size  Location     Type
  2585 ;;		None
  2586 ;; Return value:  Size  Location     Type
  2587 ;;                  1    wreg      void 
  2588 ;; Registers used:
  2589 ;;		wreg, status,2
  2590 ;; Tracked objects:
  2591 ;;		On entry : 0/0
  2592 ;;		On exit  : 0/0
  2593 ;;		Unchanged: 0/0
  2594 ;; Data sizes:     COMRAM   BANK0   BANK1   BANK2   BANK3   BANK4   BANK5   BANK6   BANK7
  2595 ;;      Params:         0       0       0       0       0       0       0       0       0
  2596 ;;      Locals:         0       0       0       0       0       0       0       0       0
  2597 ;;      Temps:          0       0       0       0       0       0       0       0       0
  2598 ;;      Totals:         0       0       0       0       0       0       0       0       0
  2599 ;;Total ram usage:        0 bytes
  2600 ;; Hardware stack levels used:    1
  2601 ;; Hardware stack levels required when called:    3
  2602 ;; This function calls:
  2603 ;;		Nothing
  2604 ;; This function is called by:
  2605 ;;		_main
  2606 ;; This function uses a non-reentrant model
  2607 ;;
  2608                           
  2609                           	psect	text14
  2610  0011D6                     __ptext14:
  2611                           	opt callstack 0
  2612  0011D6                     _ADC_Init:
  2613                           	opt callstack 27
  2614  0011D6                     
  2615                           ;adc.c: 13:     ADCON1 = 0x0e;
  2616  0011D6  0E0E               	movlw	14
  2617  0011D8  6EC1               	movwf	193,c	;volatile
  2618                           
  2619                           ;adc.c: 14:     ADCON2 = 0x92;
  2620  0011DA  0E92               	movlw	146
  2621  0011DC  6EC0               	movwf	192,c	;volatile
  2622                           
  2623                           ;adc.c: 15:     ADRESH=0;
  2624  0011DE  0E00               	movlw	0
  2625  0011E0  6EC4               	movwf	196,c	;volatile
  2626                           
  2627                           ;adc.c: 16:     ADRESL=0;
  2628  0011E2  0E00               	movlw	0
  2629  0011E4  6EC3               	movwf	195,c	;volatile
  2630  0011E6  0012               	return		;funcret
  2631  0011E8                     __end_of_ADC_Init:
  2632                           	opt callstack 0
  2633                           
  2634 ;; *************** function _INT_EXT_1 *****************
  2635 ;; Defined at:
  2636 ;;		line 66 in file "main.c"
  2637 ;; Parameters:    Size  Location     Type
  2638 ;;		None
  2639 ;; Auto vars:     Size  Location     Type
  2640 ;;		None
  2641 ;; Return value:  Size  Location     Type
  2642 ;;                  1    wreg      void 
  2643 ;; Registers used:
  2644 ;;		None
  2645 ;; Tracked objects:
  2646 ;;		On entry : 0/0
  2647 ;;		On exit  : 0/0
  2648 ;;		Unchanged: 0/0
  2649 ;; Data sizes:     COMRAM   BANK0   BANK1   BANK2   BANK3   BANK4   BANK5   BANK6   BANK7
  2650 ;;      Params:         0       0       0       0       0       0       0       0       0
  2651 ;;      Locals:         0       0       0       0       0       0       0       0       0
  2652 ;;      Temps:          0       1       0       0       0       0       0       0       0
  2653 ;;      Totals:         0       1       0       0       0       0       0       0       0
  2654 ;;Total ram usage:        1 bytes
  2655 ;; Hardware stack levels used:    1
  2656 ;; Hardware stack levels required when called:    2
  2657 ;; This function calls:
  2658 ;;		Nothing
  2659 ;; This function is called by:
  2660 ;;		Interrupt level 1
  2661 ;; This function uses a non-reentrant model
  2662 ;;
  2663                           
  2664                           	psect	intcodelo
  2665  000018                     __pintcodelo:
  2666                           	opt callstack 0
  2667  000018                     _INT_EXT_1:
  2668                           	opt callstack 24
  2669                           
  2670                           ;incstack = 0
  2671  000018  803A               	bsf	int$flags,0,c	;set compiler interrupt flag (level 1)
  2672  00001A  CFE0 F060          	movff	bsr,??_INT_EXT_1
  2673  00001E                     
  2674                           ;main.c: 68:     if(INTCON3bits.INT1IF==1){
  2675  00001E  A0F0               	btfss	240,0,c	;volatile
  2676  000020  EF14  F000         	goto	i1u189_21
  2677  000024  EF16  F000         	goto	i1u189_20
  2678  000028                     i1u189_21:
  2679  000028  EF17  F000         	goto	i1l54
  2680  00002C                     i1u189_20:
  2681  00002C                     
  2682                           ;main.c: 70:         INTCON3bits.INT1IF=0;
  2683  00002C  90F0               	bcf	240,0,c	;volatile
  2684  00002E                     i1l54:
  2685  00002E  C060  FFE0         	movff	??_INT_EXT_1,bsr
  2686  000032  903A               	bcf	int$flags,0,c	;clear compiler interrupt flag (level 1)
  2687  000034  0010               	retfie	
  2688  000036                     __end_of_INT_EXT_1:
  2689                           	opt callstack 0
  2690                           
  2691 ;; *************** function _INT_EX_0 *****************
  2692 ;; Defined at:
  2693 ;;		line 36 in file "main.c"
  2694 ;; Parameters:    Size  Location     Type
  2695 ;;		None
  2696 ;; Auto vars:     Size  Location     Type
  2697 ;;  voltage         4    0        float 
  2698 ;;  j               2   51[COMRAM] int 
  2699 ;;  i               2   49[COMRAM] int 
  2700 ;;  digital         2   47[COMRAM] int 
  2701 ;;  k               2    0        int 
  2702 ;; Return value:  Size  Location     Type
  2703 ;;                  1    wreg      void 
  2704 ;; Registers used:
  2705 ;;		wreg, status,2, status,0, prodl, prodh, cstack
  2706 ;; Tracked objects:
  2707 ;;		On entry : 0/0
  2708 ;;		On exit  : 0/0
  2709 ;;		Unchanged: 0/0
  2710 ;; Data sizes:     COMRAM   BANK0   BANK1   BANK2   BANK3   BANK4   BANK5   BANK6   BANK7
  2711 ;;      Params:         0       0       0       0       0       0       0       0       0
  2712 ;;      Locals:        10       0       0       0       0       0       0       0       0
  2713 ;;      Temps:          4       0       0       0       0       0       0       0       0
  2714 ;;      Totals:        14       0       0       0       0       0       0       0       0
  2715 ;;Total ram usage:       14 bytes
  2716 ;; Hardware stack levels used:    1
  2717 ;; Hardware stack levels required when called:    1
  2718 ;; This function calls:
  2719 ;;		_ADC_Read
  2720 ;;		___flmul
  2721 ;;		___xxtofl
  2722 ;;		i2_eeprom_guardar
  2723 ;;		i2_eeprom_leer
  2724 ;; This function is called by:
  2725 ;;		Interrupt level 2
  2726 ;; This function uses a non-reentrant model
  2727 ;;
  2728                           
  2729                           	psect	intcode
  2730  000008                     __pintcode:
  2731                           	opt callstack 0
  2732  000008                     _INT_EX_0:
  2733                           	opt callstack 24
  2734                           
  2735                           ;incstack = 0
  2736  000008  823A               	bsf	int$flags,1,c	;set compiler interrupt flag (level 2)
  2737  00000A  EF2D  F004         	goto	int_func
  2738                           
  2739                           	psect	intcode_body
  2740  00085A                     __pintcode_body:
  2741                           	opt callstack 24
  2742  00085A                     int_func:
  2743                           	opt callstack 24
  2744  00085A  CFF3 F02A          	movff	prodl,??_INT_EX_0+2
  2745  00085E  CFF4 F02B          	movff	prodh,??_INT_EX_0+3
  2746  000862                     
  2747                           ;main.c: 37:     int digital,i,k,j=0;
  2748  000862  0E00               	movlw	0
  2749  000864  6E35               	movwf	(INT_EX_0@j+1)^0,c
  2750  000866  0E00               	movlw	0
  2751  000868  6E34               	movwf	INT_EX_0@j^0,c
  2752  00086A                     
  2753                           ;main.c: 38:     float voltage;;main.c: 39:     j=j+1;
  2754  00086A  0E01               	movlw	1
  2755  00086C  2434               	addwf	INT_EX_0@j^0,w,c
  2756  00086E  6E34               	movwf	INT_EX_0@j^0,c
  2757  000870  0E00               	movlw	0
  2758  000872  2035               	addwfc	(INT_EX_0@j+1)^0,w,c
  2759  000874  6E35               	movwf	(INT_EX_0@j+1)^0,c
  2760  000876                     
  2761                           ;main.c: 40:     if(INTCONbits.INT0IF==1){
  2762  000876  A2F2               	btfss	242,1,c	;volatile
  2763  000878  EF40  F004         	goto	i2u184_41
  2764  00087C  EF42  F004         	goto	i2u184_40
  2765  000880                     i2u184_41:
  2766  000880  EFCF  F004         	goto	i2l48
  2767  000884                     i2u184_40:
  2768  000884                     
  2769                           ;main.c: 42:         flag=flag+1;
  2770  000884  0E01               	movlw	1
  2771  000886  2438               	addwf	_flag^0,w,c
  2772  000888  6E38               	movwf	_flag^0,c
  2773  00088A  0E00               	movlw	0
  2774  00088C  2039               	addwfc	(_flag+1)^0,w,c
  2775  00088E  6E39               	movwf	(_flag+1)^0,c
  2776  000890                     i2l42:
  2777                           
  2778                           ;main.c: 44:         if(flag==2){eeprom_guardar(0,2);eprom=eeprom_leer(0x00);}
  2779  000890  0E02               	movlw	2
  2780  000892  1838               	xorwf	_flag^0,w,c
  2781  000894  1039               	iorwf	(_flag+1)^0,w,c
  2782  000896  A4D8               	btfss	status,2,c
  2783  000898  EF50  F004         	goto	i2u185_41
  2784  00089C  EF52  F004         	goto	i2u185_40
  2785  0008A0                     i2u185_41:
  2786  0008A0  EF64  F004         	goto	i2l2291
  2787  0008A4                     i2u185_40:
  2788  0008A4  0E00               	movlw	0
  2789  0008A6  6E02               	movwf	(i2eeprom_guardar@DIR+1)^0,c
  2790  0008A8  0E00               	movlw	0
  2791  0008AA  6E01               	movwf	i2eeprom_guardar@DIR^0,c
  2792  0008AC  0E02               	movlw	2
  2793  0008AE  6E03               	movwf	i2eeprom_guardar@DATE^0,c
  2794  0008B0  ECD5  F008         	call	i2_eeprom_guardar	;wreg free
  2795  0008B4  0E00               	movlw	0
  2796  0008B6  6E02               	movwf	(i2eeprom_leer@DIR+1)^0,c
  2797  0008B8  0E00               	movlw	0
  2798  0008BA  6E01               	movwf	i2eeprom_leer@DIR^0,c
  2799  0008BC  ECFB  F008         	call	i2_eeprom_leer	;wreg free
  2800  0008C0  6E28               	movwf	??_INT_EX_0^0,c
  2801  0008C2  5028               	movf	??_INT_EX_0^0,w,c
  2802  0008C4  6E36               	movwf	_eprom^0,c
  2803  0008C6  6A37               	clrf	(_eprom+1)^0,c
  2804  0008C8                     i2l2291:
  2805                           
  2806                           ;main.c: 45:         i=0;
  2807  0008C8  0E00               	movlw	0
  2808  0008CA  6E33               	movwf	(INT_EX_0@i+1)^0,c
  2809  0008CC  0E00               	movlw	0
  2810  0008CE  6E32               	movwf	INT_EX_0@i^0,c
  2811  0008D0                     
  2812                           ;main.c: 46:         LATBbits.LATB2=1;
  2813  0008D0  848A               	bsf	138,2,c	;volatile
  2814  0008D2                     
  2815                           ;main.c: 47:         delay=0;
  2816  0008D2  0E00               	movlw	0
  2817  0008D4  0100               	movlb	0	; () banked
  2818  0008D6  6F96               	movwf	(_delay+1)& (0+255),b
  2819  0008D8  0E00               	movlw	0
  2820  0008DA  6F95               	movwf	_delay& (0+255),b
  2821  0008DC                     
  2822                           ; BSR set to: 0
  2823                           ;main.c: 48:         PORTA=0;
  2824  0008DC  0E00               	movlw	0
  2825  0008DE  6E80               	movwf	128,c	;volatile
  2826  0008E0                     
  2827                           ; BSR set to: 0
  2828                           ;main.c: 49:         PORTB=0;
  2829  0008E0  0E00               	movlw	0
  2830  0008E2  6E81               	movwf	129,c	;volatile
  2831  0008E4                     
  2832                           ; BSR set to: 0
  2833                           ;main.c: 50:         digital=ADC_Read(5);
  2834  0008E4  0E00               	movlw	0
  2835  0008E6  6E02               	movwf	(ADC_Read@channel+1)^0,c
  2836  0008E8  0E05               	movlw	5
  2837  0008EA  6E01               	movwf	ADC_Read@channel^0,c
  2838  0008EC  EC6C  F007         	call	_ADC_Read	;wreg free
  2839  0008F0  C001  F030         	movff	?_ADC_Read,INT_EX_0@digital
  2840  0008F4  C002  F031         	movff	?_ADC_Read+1,INT_EX_0@digital+1
  2841  0008F8  C030  F001         	movff	INT_EX_0@digital,___xxtofl@val
  2842  0008FC  C031  F002         	movff	INT_EX_0@digital+1,___xxtofl@val+1
  2843  000900  0E00               	movlw	0
  2844  000902  BE02               	btfsc	(___xxtofl@val+1)^0,7,c
  2845  000904  0EFF               	movlw	-1
  2846  000906  6E03               	movwf	(___xxtofl@val+2)^0,c
  2847  000908  6E04               	movwf	(___xxtofl@val+3)^0,c
  2848  00090A  0E01               	movlw	1
  2849  00090C  EC53  F003         	call	___xxtofl
  2850  000910  C001  F00F         	movff	?___xxtofl,___flmul@b
  2851  000914  C002  F010         	movff	?___xxtofl+1,___flmul@b+1
  2852  000918  C003  F011         	movff	?___xxtofl+2,___flmul@b+2
  2853  00091C  C004  F012         	movff	?___xxtofl+3,___flmul@b+3
  2854  000920  0E0A               	movlw	10
  2855  000922  6E13               	movwf	___flmul@a^0,c
  2856  000924  0E28               	movlw	40
  2857  000926  6E14               	movwf	(___flmul@a+1)^0,c
  2858  000928  0EA0               	movlw	160
  2859  00092A  6E15               	movwf	(___flmul@a+2)^0,c
  2860  00092C  0E3B               	movlw	59
  2861  00092E  6E16               	movwf	(___flmul@a+3)^0,c
  2862  000930  EC1D  F000         	call	___flmul	;wreg free
  2863  000934                     
  2864                           ;main.c: 52:         _delay((unsigned long)((100)*(4000000/4000.0)));
  2865  000934  0E82               	movlw	130
  2866  000936  6E28               	movwf	??_INT_EX_0^0,c
  2867  000938  0EDE               	movlw	222
  2868  00093A                     i2u196_47:
  2869  00093A  2EE8               	decfsz	wreg,f,c
  2870  00093C  D7FE               	bra	i2u196_47
  2871  00093E  2E28               	decfsz	??_INT_EX_0^0,f,c
  2872  000940  D7FC               	bra	i2u196_47
  2873  000942                     
  2874                           ;main.c: 53:         if(eprom==2){__asm("reset");}
  2875  000942  0E02               	movlw	2
  2876  000944  1836               	xorwf	_eprom^0,w,c
  2877  000946  1037               	iorwf	(_eprom+1)^0,w,c
  2878  000948  A4D8               	btfss	status,2,c
  2879  00094A  EFA9  F004         	goto	i2u186_41
  2880  00094E  EFAB  F004         	goto	i2u186_40
  2881  000952                     i2u186_41:
  2882  000952  EFAE  F004         	goto	i2l44
  2883  000956                     i2u186_40:
  2884  000956  00FF               	reset		;# 
  2885  000958  EFC6  F004         	goto	i2l2319
  2886  00095C                     i2l44:
  2887  00095C  A081               	btfss	129,0,c	;volatile
  2888  00095E  EFB3  F004         	goto	i2u187_41
  2889  000962  EFB5  F004         	goto	i2u187_40
  2890  000966                     i2u187_41:
  2891  000966  EFC6  F004         	goto	i2l2319
  2892  00096A                     i2u187_40:
  2893  00096A                     
  2894                           ;main.c: 55:         _delay((unsigned long)((500)*(4000000/4000.0)));
  2895  00096A  0E03               	movlw	3
  2896  00096C  6E29               	movwf	(??_INT_EX_0+1)^0,c
  2897  00096E  0E8A               	movlw	138
  2898  000970  6E28               	movwf	??_INT_EX_0^0,c
  2899  000972  0E56               	movlw	86
  2900  000974                     i2u197_47:
  2901  000974  2EE8               	decfsz	wreg,f,c
  2902  000976  D7FE               	bra	i2u197_47
  2903  000978  2E28               	decfsz	??_INT_EX_0^0,f,c
  2904  00097A  D7FC               	bra	i2u197_47
  2905  00097C  2E29               	decfsz	(??_INT_EX_0+1)^0,f,c
  2906  00097E  D7FA               	bra	i2u197_47
  2907  000980                     
  2908                           ;main.c: 56:         i=1;
  2909  000980  0E00               	movlw	0
  2910  000982  6E33               	movwf	(INT_EX_0@i+1)^0,c
  2911  000984  0E01               	movlw	1
  2912  000986  6E32               	movwf	INT_EX_0@i^0,c
  2913  000988                     
  2914                           ;main.c: 57:         LATBbits.LATB2=0;
  2915  000988  948A               	bcf	138,2,c	;volatile
  2916  00098A                     
  2917                           ;main.c: 58:         INTCONbits.INT0IF=0;
  2918  00098A  92F2               	bcf	242,1,c	;volatile
  2919  00098C                     i2l2319:
  2920                           
  2921                           ;main.c: 60:      }while(i==0);
  2922  00098C  5032               	movf	INT_EX_0@i^0,w,c
  2923  00098E  1033               	iorwf	(INT_EX_0@i+1)^0,w,c
  2924  000990  B4D8               	btfsc	status,2,c
  2925  000992  EFCD  F004         	goto	i2u188_41
  2926  000996  EFCF  F004         	goto	i2u188_40
  2927  00099A                     i2u188_41:
  2928  00099A  EF48  F004         	goto	i2l42
  2929  00099E                     i2u188_40:
  2930  00099E                     i2l48:
  2931  00099E  C02B  FFF4         	movff	??_INT_EX_0+3,prodh
  2932  0009A2  C02A  FFF3         	movff	??_INT_EX_0+2,prodl
  2933  0009A6  923A               	bcf	int$flags,1,c	;clear compiler interrupt flag (level 2)
  2934  0009A8  0011               	retfie		f
  2935  0009AA                     __end_of_INT_EX_0:
  2936                           	opt callstack 0
  2937                           
  2938 ;; *************** function i2_eeprom_leer *****************
  2939 ;; Defined at:
  2940 ;;		line 25 in file "eeprom.c"
  2941 ;; Parameters:    Size  Location     Type
  2942 ;;  DIR             2    0[COMRAM] int 
  2943 ;; Auto vars:     Size  Location     Type
  2944 ;;		None
  2945 ;; Return value:  Size  Location     Type
  2946 ;;                  1    wreg      unsigned char 
  2947 ;; Registers used:
  2948 ;;		wreg, status,2
  2949 ;; Tracked objects:
  2950 ;;		On entry : 0/0
  2951 ;;		On exit  : 0/0
  2952 ;;		Unchanged: 0/0
  2953 ;; Data sizes:     COMRAM   BANK0   BANK1   BANK2   BANK3   BANK4   BANK5   BANK6   BANK7
  2954 ;;      Params:         2       0       0       0       0       0       0       0       0
  2955 ;;      Locals:         0       0       0       0       0       0       0       0       0
  2956 ;;      Temps:          0       0       0       0       0       0       0       0       0
  2957 ;;      Totals:         2       0       0       0       0       0       0       0       0
  2958 ;;Total ram usage:        2 bytes
  2959 ;; Hardware stack levels used:    1
  2960 ;; This function calls:
  2961 ;;		Nothing
  2962 ;; This function is called by:
  2963 ;;		_INT_EX_0
  2964 ;; This function uses a non-reentrant model
  2965 ;;
  2966                           
  2967                           	psect	text17
  2968  0011F6                     __ptext17:
  2969                           	opt callstack 0
  2970  0011F6                     i2_eeprom_leer:
  2971                           	opt callstack 24
  2972  0011F6                     
  2973                           ;eeprom.c: 26:     EEADR = DIR;
  2974  0011F6  C001  FFA9         	movff	i2eeprom_leer@DIR,4009	;volatile
  2975                           
  2976                           ;eeprom.c: 27:     EECON1bits.EEPGD=0;
  2977  0011FA  9EA6               	bcf	166,7,c	;volsfr
  2978                           
  2979                           ;eeprom.c: 28:     EECON1bits.CFGS=0;
  2980  0011FC  9CA6               	bcf	166,6,c	;volsfr
  2981  0011FE                     
  2982                           ;eeprom.c: 29:     EECON1bits.RD;
  2983  0011FE  50A6               	movf	166,w,c	;volsfr
  2984  001200                     
  2985                           ;eeprom.c: 30:     return EEDATA;
  2986  001200  50A8               	movf	168,w,c	;volatile
  2987  001202  0012               	return		;funcret
  2988  001204                     __end_ofi2_eeprom_leer:
  2989                           	opt callstack 0
  2990                           
  2991 ;; *************** function i2_eeprom_guardar *****************
  2992 ;; Defined at:
  2993 ;;		line 9 in file "eeprom.c"
  2994 ;; Parameters:    Size  Location     Type
  2995 ;;  DIR             2    0[COMRAM] int 
  2996 ;;  DATE            1    2[COMRAM] unsigned char 
  2997 ;; Auto vars:     Size  Location     Type
  2998 ;;		None
  2999 ;; Return value:  Size  Location     Type
  3000 ;;                  1    wreg      void 
  3001 ;; Registers used:
  3002 ;;		wreg, status,2
  3003 ;; Tracked objects:
  3004 ;;		On entry : 0/0
  3005 ;;		On exit  : 0/0
  3006 ;;		Unchanged: 0/0
  3007 ;; Data sizes:     COMRAM   BANK0   BANK1   BANK2   BANK3   BANK4   BANK5   BANK6   BANK7
  3008 ;;      Params:         3       0       0       0       0       0       0       0       0
  3009 ;;      Locals:         0       0       0       0       0       0       0       0       0
  3010 ;;      Temps:          0       0       0       0       0       0       0       0       0
  3011 ;;      Totals:         3       0       0       0       0       0       0       0       0
  3012 ;;Total ram usage:        3 bytes
  3013 ;; Hardware stack levels used:    1
  3014 ;; This function calls:
  3015 ;;		Nothing
  3016 ;; This function is called by:
  3017 ;;		_INT_EX_0
  3018 ;; This function uses a non-reentrant model
  3019 ;;
  3020                           
  3021                           	psect	text18
  3022  0011AA                     __ptext18:
  3023                           	opt callstack 0
  3024  0011AA                     i2_eeprom_guardar:
  3025                           	opt callstack 24
  3026  0011AA                     
  3027                           ;eeprom.c: 10:     EEADR = DIR;
  3028  0011AA  C001  FFA9         	movff	i2eeprom_guardar@DIR,4009	;volatile
  3029                           
  3030                           ;eeprom.c: 11:     EEDATA = DATE;
  3031  0011AE  C003  FFA8         	movff	i2eeprom_guardar@DATE,4008	;volatile
  3032                           
  3033                           ;eeprom.c: 12:     EECON1bits.EEPGD=0;
  3034  0011B2  9EA6               	bcf	166,7,c	;volsfr
  3035                           
  3036                           ;eeprom.c: 13:     EECON1bits.CFGS=0;
  3037  0011B4  9CA6               	bcf	166,6,c	;volsfr
  3038                           
  3039                           ;eeprom.c: 14:     EECON1bits.WREN=1;
  3040  0011B6  84A6               	bsf	166,2,c	;volsfr
  3041  0011B8                     
  3042                           ;eeprom.c: 16:     EECON2=0x55;
  3043  0011B8  0E55               	movlw	85
  3044  0011BA  6EA7               	movwf	167,c	;volsfr
  3045                           
  3046                           ;eeprom.c: 17:     EECON2=0x0AA;
  3047  0011BC  0EAA               	movlw	170
  3048  0011BE  6EA7               	movwf	167,c	;volsfr
  3049  0011C0                     
  3050                           ;eeprom.c: 18:     EECON1bits.WR=1;
  3051  0011C0  82A6               	bsf	166,1,c	;volsfr
  3052  0011C2                     i2l258:
  3053  0011C2  A8A1               	btfss	161,4,c	;volatile
  3054  0011C4  EFE6  F008         	goto	i2u183_41
  3055  0011C8  EFE8  F008         	goto	i2u183_40
  3056  0011CC                     i2u183_41:
  3057  0011CC  EFE1  F008         	goto	i2l258
  3058  0011D0                     i2u183_40:
  3059  0011D0                     
  3060                           ;eeprom.c: 21:     PIR2bits.EEIF=0;
  3061  0011D0  98A1               	bcf	161,4,c	;volatile
  3062                           
  3063                           ;eeprom.c: 22:     EECON1bits.WREN=0;
  3064  0011D2  94A6               	bcf	166,2,c	;volsfr
  3065  0011D4  0012               	return		;funcret
  3066  0011D6                     __end_ofi2_eeprom_guardar:
  3067                           	opt callstack 0
  3068                           
  3069 ;; *************** function ___xxtofl *****************
  3070 ;; Defined at:
  3071 ;;		line 10 in file "/opt/microchip/xc8/v2.10/pic/sources/c99/common/xxtofl.c"
  3072 ;; Parameters:    Size  Location     Type
  3073 ;;  sign            1    wreg     unsigned char 
  3074 ;;  val             4    0[COMRAM] long 
  3075 ;; Auto vars:     Size  Location     Type
  3076 ;;  sign            1    8[COMRAM] unsigned char 
  3077 ;;  arg             4   10[COMRAM] unsigned long 
  3078 ;;  exp             1    9[COMRAM] unsigned char 
  3079 ;; Return value:  Size  Location     Type
  3080 ;;                  4    0[COMRAM] unsigned char 
  3081 ;; Registers used:
  3082 ;;		wreg, status,2, status,0
  3083 ;; Tracked objects:
  3084 ;;		On entry : 0/0
  3085 ;;		On exit  : 0/0
  3086 ;;		Unchanged: 0/0
  3087 ;; Data sizes:     COMRAM   BANK0   BANK1   BANK2   BANK3   BANK4   BANK5   BANK6   BANK7
  3088 ;;      Params:         4       0       0       0       0       0       0       0       0
  3089 ;;      Locals:         6       0       0       0       0       0       0       0       0
  3090 ;;      Temps:          4       0       0       0       0       0       0       0       0
  3091 ;;      Totals:        14       0       0       0       0       0       0       0       0
  3092 ;;Total ram usage:       14 bytes
  3093 ;; Hardware stack levels used:    1
  3094 ;; This function calls:
  3095 ;;		Nothing
  3096 ;; This function is called by:
  3097 ;;		_INT_EX_0
  3098 ;; This function uses a non-reentrant model
  3099 ;;
  3100                           
  3101                           	psect	text19
  3102  0006A6                     __ptext19:
  3103                           	opt callstack 0
  3104  0006A6                     ___xxtofl:
  3105                           	opt callstack 24
  3106                           
  3107                           ;incstack = 0
  3108                           ;___xxtofl@sign stored from wreg
  3109  0006A6  6E09               	movwf	___xxtofl@sign^0,c
  3110  0006A8  5009               	movf	___xxtofl@sign^0,w,c
  3111  0006AA  B4D8               	btfsc	status,2,c
  3112  0006AC  EF5A  F003         	goto	i2u173_41
  3113  0006B0  EF5C  F003         	goto	i2u173_40
  3114  0006B4                     i2u173_41:
  3115  0006B4  EF7E  F003         	goto	i2l987
  3116  0006B8                     i2u173_40:
  3117  0006B8  BE04               	btfsc	(___xxtofl@val+3)^0,7,c
  3118  0006BA  EF63  F003         	goto	i2u174_40
  3119  0006BE  EF61  F003         	goto	i2u174_41
  3120  0006C2                     i2u174_41:
  3121  0006C2  EF7E  F003         	goto	i2l987
  3122  0006C6                     i2u174_40:
  3123  0006C6  C001  F005         	movff	___xxtofl@val,??___xxtofl
  3124  0006CA  C002  F006         	movff	___xxtofl@val+1,??___xxtofl+1
  3125  0006CE  C003  F007         	movff	___xxtofl@val+2,??___xxtofl+2
  3126  0006D2  C004  F008         	movff	___xxtofl@val+3,??___xxtofl+3
  3127  0006D6  1E05               	comf	??___xxtofl^0,f,c
  3128  0006D8  1E06               	comf	(??___xxtofl+1)^0,f,c
  3129  0006DA  1E07               	comf	(??___xxtofl+2)^0,f,c
  3130  0006DC  1E08               	comf	(??___xxtofl+3)^0,f,c
  3131  0006DE  2A05               	incf	??___xxtofl^0,f,c
  3132  0006E0  0E00               	movlw	0
  3133  0006E2  2206               	addwfc	(??___xxtofl+1)^0,f,c
  3134  0006E4  2207               	addwfc	(??___xxtofl+2)^0,f,c
  3135  0006E6  2208               	addwfc	(??___xxtofl+3)^0,f,c
  3136  0006E8  C005  F00B         	movff	??___xxtofl,___xxtofl@arg
  3137  0006EC  C006  F00C         	movff	??___xxtofl+1,___xxtofl@arg+1
  3138  0006F0  C007  F00D         	movff	??___xxtofl+2,___xxtofl@arg+2
  3139  0006F4  C008  F00E         	movff	??___xxtofl+3,___xxtofl@arg+3
  3140  0006F8  EF86  F003         	goto	i2l2225
  3141  0006FC                     i2l987:
  3142  0006FC  C001  F00B         	movff	___xxtofl@val,___xxtofl@arg
  3143  000700  C002  F00C         	movff	___xxtofl@val+1,___xxtofl@arg+1
  3144  000704  C003  F00D         	movff	___xxtofl@val+2,___xxtofl@arg+2
  3145  000708  C004  F00E         	movff	___xxtofl@val+3,___xxtofl@arg+3
  3146  00070C                     i2l2225:
  3147  00070C  5001               	movf	___xxtofl@val^0,w,c
  3148  00070E  1002               	iorwf	(___xxtofl@val+1)^0,w,c
  3149  000710  1003               	iorwf	(___xxtofl@val+2)^0,w,c
  3150  000712  1004               	iorwf	(___xxtofl@val+3)^0,w,c
  3151  000714  A4D8               	btfss	status,2,c
  3152  000716  EF8F  F003         	goto	i2u175_41
  3153  00071A  EF91  F003         	goto	i2u175_40
  3154  00071E                     i2u175_41:
  3155  00071E  EF9B  F003         	goto	i2l2231
  3156  000722                     i2u175_40:
  3157  000722  0E00               	movlw	0
  3158  000724  6E01               	movwf	?___xxtofl^0,c
  3159  000726  0E00               	movlw	0
  3160  000728  6E02               	movwf	(?___xxtofl+1)^0,c
  3161  00072A  0E00               	movlw	0
  3162  00072C  6E03               	movwf	(?___xxtofl+2)^0,c
  3163  00072E  0E00               	movlw	0
  3164  000730  6E04               	movwf	(?___xxtofl+3)^0,c
  3165  000732  EF2C  F004         	goto	i2l990
  3166  000736                     i2l2231:
  3167  000736  0E96               	movlw	150
  3168  000738  6E0A               	movwf	___xxtofl@exp^0,c
  3169  00073A  EFA5  F003         	goto	i2l2235
  3170  00073E                     i2l2233:
  3171  00073E  2A0A               	incf	___xxtofl@exp^0,f,c
  3172  000740  90D8               	bcf	status,0,c
  3173  000742  320E               	rrcf	(___xxtofl@arg+3)^0,f,c
  3174  000744  320D               	rrcf	(___xxtofl@arg+2)^0,f,c
  3175  000746  320C               	rrcf	(___xxtofl@arg+1)^0,f,c
  3176  000748  320B               	rrcf	___xxtofl@arg^0,f,c
  3177  00074A                     i2l2235:
  3178  00074A  0E00               	movlw	0
  3179  00074C  140B               	andwf	___xxtofl@arg^0,w,c
  3180  00074E  6E05               	movwf	??___xxtofl^0,c
  3181  000750  0E00               	movlw	0
  3182  000752  140C               	andwf	(___xxtofl@arg+1)^0,w,c
  3183  000754  6E06               	movwf	(??___xxtofl+1)^0,c
  3184  000756  0E00               	movlw	0
  3185  000758  140D               	andwf	(___xxtofl@arg+2)^0,w,c
  3186  00075A  6E07               	movwf	(??___xxtofl+2)^0,c
  3187  00075C  0EFE               	movlw	254
  3188  00075E  140E               	andwf	(___xxtofl@arg+3)^0,w,c
  3189  000760  6E08               	movwf	(??___xxtofl+3)^0,c
  3190  000762  5005               	movf	??___xxtofl^0,w,c
  3191  000764  1006               	iorwf	(??___xxtofl+1)^0,w,c
  3192  000766  1007               	iorwf	(??___xxtofl+2)^0,w,c
  3193  000768  1008               	iorwf	(??___xxtofl+3)^0,w,c
  3194  00076A  A4D8               	btfss	status,2,c
  3195  00076C  EFBA  F003         	goto	i2u176_41
  3196  000770  EFBC  F003         	goto	i2u176_40
  3197  000774                     i2u176_41:
  3198  000774  EF9F  F003         	goto	i2l2233
  3199  000778                     i2u176_40:
  3200  000778  EFCA  F003         	goto	i2l994
  3201  00077C                     i2l2237:
  3202  00077C  2A0A               	incf	___xxtofl@exp^0,f,c
  3203  00077E  0E01               	movlw	1
  3204  000780  260B               	addwf	___xxtofl@arg^0,f,c
  3205  000782  0E00               	movlw	0
  3206  000784  220C               	addwfc	(___xxtofl@arg+1)^0,f,c
  3207  000786  220D               	addwfc	(___xxtofl@arg+2)^0,f,c
  3208  000788  220E               	addwfc	(___xxtofl@arg+3)^0,f,c
  3209  00078A  90D8               	bcf	status,0,c
  3210  00078C  320E               	rrcf	(___xxtofl@arg+3)^0,f,c
  3211  00078E  320D               	rrcf	(___xxtofl@arg+2)^0,f,c
  3212  000790  320C               	rrcf	(___xxtofl@arg+1)^0,f,c
  3213  000792  320B               	rrcf	___xxtofl@arg^0,f,c
  3214  000794                     i2l994:
  3215  000794  0E00               	movlw	0
  3216  000796  140B               	andwf	___xxtofl@arg^0,w,c
  3217  000798  6E05               	movwf	??___xxtofl^0,c
  3218  00079A  0E00               	movlw	0
  3219  00079C  140C               	andwf	(___xxtofl@arg+1)^0,w,c
  3220  00079E  6E06               	movwf	(??___xxtofl+1)^0,c
  3221  0007A0  0E00               	movlw	0
  3222  0007A2  140D               	andwf	(___xxtofl@arg+2)^0,w,c
  3223  0007A4  6E07               	movwf	(??___xxtofl+2)^0,c
  3224  0007A6  0EFF               	movlw	255
  3225  0007A8  140E               	andwf	(___xxtofl@arg+3)^0,w,c
  3226  0007AA  6E08               	movwf	(??___xxtofl+3)^0,c
  3227  0007AC  5005               	movf	??___xxtofl^0,w,c
  3228  0007AE  1006               	iorwf	(??___xxtofl+1)^0,w,c
  3229  0007B0  1007               	iorwf	(??___xxtofl+2)^0,w,c
  3230  0007B2  1008               	iorwf	(??___xxtofl+3)^0,w,c
  3231  0007B4  A4D8               	btfss	status,2,c
  3232  0007B6  EFDF  F003         	goto	i2u177_41
  3233  0007BA  EFE1  F003         	goto	i2u177_40
  3234  0007BE                     i2u177_41:
  3235  0007BE  EFBE  F003         	goto	i2l2237
  3236  0007C2                     i2u177_40:
  3237  0007C2  EFE9  F003         	goto	i2l2245
  3238  0007C6                     i2l2243:
  3239  0007C6  060A               	decf	___xxtofl@exp^0,f,c
  3240  0007C8  90D8               	bcf	status,0,c
  3241  0007CA  360B               	rlcf	___xxtofl@arg^0,f,c
  3242  0007CC  360C               	rlcf	(___xxtofl@arg+1)^0,f,c
  3243  0007CE  360D               	rlcf	(___xxtofl@arg+2)^0,f,c
  3244  0007D0  360E               	rlcf	(___xxtofl@arg+3)^0,f,c
  3245  0007D2                     i2l2245:
  3246  0007D2  BE0D               	btfsc	(___xxtofl@arg+2)^0,7,c
  3247  0007D4  EFEE  F003         	goto	i2u178_41
  3248  0007D8  EFF0  F003         	goto	i2u178_40
  3249  0007DC                     i2u178_41:
  3250  0007DC  EFF8  F003         	goto	i2l1001
  3251  0007E0                     i2u178_40:
  3252  0007E0  0E02               	movlw	2
  3253  0007E2  600A               	cpfslt	___xxtofl@exp^0,c
  3254  0007E4  EFF6  F003         	goto	i2u179_41
  3255  0007E8  EFF8  F003         	goto	i2u179_40
  3256  0007EC                     i2u179_41:
  3257  0007EC  EFE3  F003         	goto	i2l2243
  3258  0007F0                     i2u179_40:
  3259  0007F0                     i2l1001:
  3260  0007F0  B00A               	btfsc	___xxtofl@exp^0,0,c
  3261  0007F2  EFFD  F003         	goto	i2u180_41
  3262  0007F6  EFFF  F003         	goto	i2u180_40
  3263  0007FA                     i2u180_41:
  3264  0007FA  EF00  F004         	goto	i2l2251
  3265  0007FE                     i2u180_40:
  3266  0007FE  9E0D               	bcf	(___xxtofl@arg+2)^0,7,c
  3267  000800                     i2l2251:
  3268  000800  90D8               	bcf	status,0,c
  3269  000802  320A               	rrcf	___xxtofl@exp^0,f,c
  3270  000804  C00A  F005         	movff	___xxtofl@exp,??___xxtofl
  3271  000808  6A06               	clrf	(??___xxtofl+1)^0,c
  3272  00080A  6A07               	clrf	(??___xxtofl+2)^0,c
  3273  00080C  6A08               	clrf	(??___xxtofl+3)^0,c
  3274  00080E  C005  F008         	movff	??___xxtofl,??___xxtofl+3
  3275  000812  6A07               	clrf	(??___xxtofl+2)^0,c
  3276  000814  6A06               	clrf	(??___xxtofl+1)^0,c
  3277  000816  6A05               	clrf	??___xxtofl^0,c
  3278  000818  5005               	movf	??___xxtofl^0,w,c
  3279  00081A  120B               	iorwf	___xxtofl@arg^0,f,c
  3280  00081C  5006               	movf	(??___xxtofl+1)^0,w,c
  3281  00081E  120C               	iorwf	(___xxtofl@arg+1)^0,f,c
  3282  000820  5007               	movf	(??___xxtofl+2)^0,w,c
  3283  000822  120D               	iorwf	(___xxtofl@arg+2)^0,f,c
  3284  000824  5008               	movf	(??___xxtofl+3)^0,w,c
  3285  000826  120E               	iorwf	(___xxtofl@arg+3)^0,f,c
  3286  000828  5009               	movf	___xxtofl@sign^0,w,c
  3287  00082A  B4D8               	btfsc	status,2,c
  3288  00082C  EF1A  F004         	goto	i2u181_41
  3289  000830  EF1C  F004         	goto	i2u181_40
  3290  000834                     i2u181_41:
  3291  000834  EF24  F004         	goto	i2l2261
  3292  000838                     i2u181_40:
  3293  000838  BE04               	btfsc	(___xxtofl@val+3)^0,7,c
  3294  00083A  EF23  F004         	goto	i2u182_40
  3295  00083E  EF21  F004         	goto	i2u182_41
  3296  000842                     i2u182_41:
  3297  000842  EF24  F004         	goto	i2l2261
  3298  000846                     i2u182_40:
  3299  000846  8E0E               	bsf	(___xxtofl@arg+3)^0,7,c
  3300  000848                     i2l2261:
  3301  000848  C00B  F001         	movff	___xxtofl@arg,?___xxtofl
  3302  00084C  C00C  F002         	movff	___xxtofl@arg+1,?___xxtofl+1
  3303  000850  C00D  F003         	movff	___xxtofl@arg+2,?___xxtofl+2
  3304  000854  C00E  F004         	movff	___xxtofl@arg+3,?___xxtofl+3
  3305  000858                     i2l990:
  3306  000858  0012               	return		;funcret
  3307  00085A                     __end_of___xxtofl:
  3308                           	opt callstack 0
  3309                           
  3310 ;; *************** function ___flmul *****************
  3311 ;; Defined at:
  3312 ;;		line 8 in file "/opt/microchip/xc8/v2.10/pic/sources/c99/common/sprcmul.c"
  3313 ;; Parameters:    Size  Location     Type
  3314 ;;  b               4   14[COMRAM] unsigned char 
  3315 ;;  a               4   18[COMRAM] unsigned char 
  3316 ;; Auto vars:     Size  Location     Type
  3317 ;;  prod            4   33[COMRAM] struct .
  3318 ;;  grs             4   27[COMRAM] unsigned long 
  3319 ;;  temp            2   37[COMRAM] struct .
  3320 ;;  bexp            1   32[COMRAM] unsigned char 
  3321 ;;  aexp            1   31[COMRAM] unsigned char 
  3322 ;;  sign            1   26[COMRAM] unsigned char 
  3323 ;; Return value:  Size  Location     Type
  3324 ;;                  4   14[COMRAM] unsigned char 
  3325 ;; Registers used:
  3326 ;;		wreg, status,2, status,0, prodl, prodh
  3327 ;; Tracked objects:
  3328 ;;		On entry : 0/0
  3329 ;;		On exit  : 0/0
  3330 ;;		Unchanged: 0/0
  3331 ;; Data sizes:     COMRAM   BANK0   BANK1   BANK2   BANK3   BANK4   BANK5   BANK6   BANK7
  3332 ;;      Params:         8       0       0       0       0       0       0       0       0
  3333 ;;      Locals:        13       0       0       0       0       0       0       0       0
  3334 ;;      Temps:          4       0       0       0       0       0       0       0       0
  3335 ;;      Totals:        25       0       0       0       0       0       0       0       0
  3336 ;;Total ram usage:       25 bytes
  3337 ;; Hardware stack levels used:    1
  3338 ;; This function calls:
  3339 ;;		Nothing
  3340 ;; This function is called by:
  3341 ;;		_INT_EX_0
  3342 ;; This function uses a non-reentrant model
  3343 ;;
  3344                           
  3345                           	psect	text20
  3346  00003A                     __ptext20:
  3347                           	opt callstack 0
  3348  00003A                     ___flmul:
  3349                           	opt callstack 24
  3350  00003A  5012               	movf	(___flmul@b+3)^0,w,c
  3351  00003C  0B80               	andlw	128
  3352  00003E  6E1B               	movwf	___flmul@sign^0,c
  3353  000040  5012               	movf	(___flmul@b+3)^0,w,c
  3354  000042  2412               	addwf	(___flmul@b+3)^0,w,c
  3355  000044  6E21               	movwf	___flmul@bexp^0,c
  3356  000046  AE11               	btfss	(___flmul@b+2)^0,7,c
  3357  000048  EF28  F000         	goto	i2u154_41
  3358  00004C  EF2A  F000         	goto	i2u154_40
  3359  000050                     i2u154_41:
  3360  000050  EF2B  F000         	goto	i2l2095
  3361  000054                     i2u154_40:
  3362  000054  8021               	bsf	___flmul@bexp^0,0,c
  3363  000056                     i2l2095:
  3364  000056  5021               	movf	___flmul@bexp^0,w,c
  3365  000058  B4D8               	btfsc	status,2,c
  3366  00005A  EF31  F000         	goto	i2u155_41
  3367  00005E  EF33  F000         	goto	i2u155_40
  3368  000062                     i2u155_41:
  3369  000062  EF46  F000         	goto	i2l2103
  3370  000066                     i2u155_40:
  3371  000066  2821               	incf	___flmul@bexp^0,w,c
  3372  000068  A4D8               	btfss	status,2,c
  3373  00006A  EF39  F000         	goto	i2u156_41
  3374  00006E  EF3B  F000         	goto	i2u156_40
  3375  000072                     i2u156_41:
  3376  000072  EF43  F000         	goto	i2l2101
  3377  000076                     i2u156_40:
  3378  000076  0E00               	movlw	0
  3379  000078  6E0F               	movwf	___flmul@b^0,c
  3380  00007A  0E00               	movlw	0
  3381  00007C  6E10               	movwf	(___flmul@b+1)^0,c
  3382  00007E  0E00               	movlw	0
  3383  000080  6E11               	movwf	(___flmul@b+2)^0,c
  3384  000082  0E00               	movlw	0
  3385  000084  6E12               	movwf	(___flmul@b+3)^0,c
  3386  000086                     i2l2101:
  3387  000086  8E11               	bsf	(___flmul@b+2)^0,7,c
  3388  000088  EF4E  F000         	goto	i2l2105
  3389  00008C                     i2l2103:
  3390  00008C  0E00               	movlw	0
  3391  00008E  6E0F               	movwf	___flmul@b^0,c
  3392  000090  0E00               	movlw	0
  3393  000092  6E10               	movwf	(___flmul@b+1)^0,c
  3394  000094  0E00               	movlw	0
  3395  000096  6E11               	movwf	(___flmul@b+2)^0,c
  3396  000098  0E00               	movlw	0
  3397  00009A  6E12               	movwf	(___flmul@b+3)^0,c
  3398  00009C                     i2l2105:
  3399  00009C  5016               	movf	(___flmul@a+3)^0,w,c
  3400  00009E  0B80               	andlw	128
  3401  0000A0  1A1B               	xorwf	___flmul@sign^0,f,c
  3402  0000A2  5016               	movf	(___flmul@a+3)^0,w,c
  3403  0000A4  2416               	addwf	(___flmul@a+3)^0,w,c
  3404  0000A6  6E20               	movwf	___flmul@aexp^0,c
  3405  0000A8  AE15               	btfss	(___flmul@a+2)^0,7,c
  3406  0000AA  EF59  F000         	goto	i2u157_41
  3407  0000AE  EF5B  F000         	goto	i2u157_40
  3408  0000B2                     i2u157_41:
  3409  0000B2  EF5C  F000         	goto	i2l2113
  3410  0000B6                     i2u157_40:
  3411  0000B6  8020               	bsf	___flmul@aexp^0,0,c
  3412  0000B8                     i2l2113:
  3413  0000B8  5020               	movf	___flmul@aexp^0,w,c
  3414  0000BA  B4D8               	btfsc	status,2,c
  3415  0000BC  EF62  F000         	goto	i2u158_41
  3416  0000C0  EF64  F000         	goto	i2u158_40
  3417  0000C4                     i2u158_41:
  3418  0000C4  EF77  F000         	goto	i2l2121
  3419  0000C8                     i2u158_40:
  3420  0000C8  2820               	incf	___flmul@aexp^0,w,c
  3421  0000CA  A4D8               	btfss	status,2,c
  3422  0000CC  EF6A  F000         	goto	i2u159_41
  3423  0000D0  EF6C  F000         	goto	i2u159_40
  3424  0000D4                     i2u159_41:
  3425  0000D4  EF74  F000         	goto	i2l2119
  3426  0000D8                     i2u159_40:
  3427  0000D8  0E00               	movlw	0
  3428  0000DA  6E13               	movwf	___flmul@a^0,c
  3429  0000DC  0E00               	movlw	0
  3430  0000DE  6E14               	movwf	(___flmul@a+1)^0,c
  3431  0000E0  0E00               	movlw	0
  3432  0000E2  6E15               	movwf	(___flmul@a+2)^0,c
  3433  0000E4  0E00               	movlw	0
  3434  0000E6  6E16               	movwf	(___flmul@a+3)^0,c
  3435  0000E8                     i2l2119:
  3436  0000E8  8E15               	bsf	(___flmul@a+2)^0,7,c
  3437  0000EA  EF7F  F000         	goto	i2l946
  3438  0000EE                     i2l2121:
  3439  0000EE  0E00               	movlw	0
  3440  0000F0  6E13               	movwf	___flmul@a^0,c
  3441  0000F2  0E00               	movlw	0
  3442  0000F4  6E14               	movwf	(___flmul@a+1)^0,c
  3443  0000F6  0E00               	movlw	0
  3444  0000F8  6E15               	movwf	(___flmul@a+2)^0,c
  3445  0000FA  0E00               	movlw	0
  3446  0000FC  6E16               	movwf	(___flmul@a+3)^0,c
  3447  0000FE                     i2l946:
  3448  0000FE  5020               	movf	___flmul@aexp^0,w,c
  3449  000100  B4D8               	btfsc	status,2,c
  3450  000102  EF85  F000         	goto	i2u160_41
  3451  000106  EF87  F000         	goto	i2u160_40
  3452  00010A                     i2u160_41:
  3453  00010A  EF8F  F000         	goto	i2l2125
  3454  00010E                     i2u160_40:
  3455  00010E  5021               	movf	___flmul@bexp^0,w,c
  3456  000110  A4D8               	btfss	status,2,c
  3457  000112  EF8D  F000         	goto	i2u161_41
  3458  000116  EF8F  F000         	goto	i2u161_40
  3459  00011A                     i2u161_41:
  3460  00011A  EF99  F000         	goto	i2l2129
  3461  00011E                     i2u161_40:
  3462  00011E                     i2l2125:
  3463  00011E  0E00               	movlw	0
  3464  000120  6E0F               	movwf	?___flmul^0,c
  3465  000122  0E00               	movlw	0
  3466  000124  6E10               	movwf	(?___flmul+1)^0,c
  3467  000126  0E00               	movlw	0
  3468  000128  6E11               	movwf	(?___flmul+2)^0,c
  3469  00012A  0E00               	movlw	0
  3470  00012C  6E12               	movwf	(?___flmul+3)^0,c
  3471  00012E  EF31  F002         	goto	i2l950
  3472  000132                     i2l2129:
  3473  000132  5015               	movf	(___flmul@a+2)^0,w,c
  3474  000134  020F               	mulwf	___flmul@b^0,c
  3475  000136  CFF3 F026          	movff	prodl,___flmul@temp
  3476  00013A  CFF4 F027          	movff	prodh,___flmul@temp+1
  3477  00013E  5026               	movf	___flmul@temp^0,w,c
  3478  000140  6E1C               	movwf	___flmul@grs^0,c
  3479  000142  6A1D               	clrf	(___flmul@grs+1)^0,c
  3480  000144  6A1E               	clrf	(___flmul@grs+2)^0,c
  3481  000146  6A1F               	clrf	(___flmul@grs+3)^0,c
  3482  000148  5027               	movf	(___flmul@temp+1)^0,w,c
  3483  00014A  6E22               	movwf	___flmul@prod^0,c
  3484  00014C  6A23               	clrf	(___flmul@prod+1)^0,c
  3485  00014E  6A24               	clrf	(___flmul@prod+2)^0,c
  3486  000150  6A25               	clrf	(___flmul@prod+3)^0,c
  3487  000152  5014               	movf	(___flmul@a+1)^0,w,c
  3488  000154  0210               	mulwf	(___flmul@b+1)^0,c
  3489  000156  CFF3 F026          	movff	prodl,___flmul@temp
  3490  00015A  CFF4 F027          	movff	prodh,___flmul@temp+1
  3491  00015E  5026               	movf	___flmul@temp^0,w,c
  3492  000160  261C               	addwf	___flmul@grs^0,f,c
  3493  000162  0E00               	movlw	0
  3494  000164  221D               	addwfc	(___flmul@grs+1)^0,f,c
  3495  000166  221E               	addwfc	(___flmul@grs+2)^0,f,c
  3496  000168  221F               	addwfc	(___flmul@grs+3)^0,f,c
  3497  00016A  5027               	movf	(___flmul@temp+1)^0,w,c
  3498  00016C  2622               	addwf	___flmul@prod^0,f,c
  3499  00016E  0E00               	movlw	0
  3500  000170  2223               	addwfc	(___flmul@prod+1)^0,f,c
  3501  000172  2224               	addwfc	(___flmul@prod+2)^0,f,c
  3502  000174  2225               	addwfc	(___flmul@prod+3)^0,f,c
  3503  000176  5013               	movf	___flmul@a^0,w,c
  3504  000178  0211               	mulwf	(___flmul@b+2)^0,c
  3505  00017A  CFF3 F026          	movff	prodl,___flmul@temp
  3506  00017E  CFF4 F027          	movff	prodh,___flmul@temp+1
  3507  000182  5026               	movf	___flmul@temp^0,w,c
  3508  000184  261C               	addwf	___flmul@grs^0,f,c
  3509  000186  0E00               	movlw	0
  3510  000188  221D               	addwfc	(___flmul@grs+1)^0,f,c
  3511  00018A  221E               	addwfc	(___flmul@grs+2)^0,f,c
  3512  00018C  221F               	addwfc	(___flmul@grs+3)^0,f,c
  3513  00018E  5027               	movf	(___flmul@temp+1)^0,w,c
  3514  000190  2622               	addwf	___flmul@prod^0,f,c
  3515  000192  0E00               	movlw	0
  3516  000194  2223               	addwfc	(___flmul@prod+1)^0,f,c
  3517  000196  2224               	addwfc	(___flmul@prod+2)^0,f,c
  3518  000198  2225               	addwfc	(___flmul@prod+3)^0,f,c
  3519  00019A  C01E  F01F         	movff	___flmul@grs+2,___flmul@grs+3
  3520  00019E  C01D  F01E         	movff	___flmul@grs+1,___flmul@grs+2
  3521  0001A2  C01C  F01D         	movff	___flmul@grs,___flmul@grs+1
  3522  0001A6  6A1C               	clrf	___flmul@grs^0,c
  3523  0001A8  5013               	movf	___flmul@a^0,w,c
  3524  0001AA  0210               	mulwf	(___flmul@b+1)^0,c
  3525  0001AC  CFF3 F026          	movff	prodl,___flmul@temp
  3526  0001B0  CFF4 F027          	movff	prodh,___flmul@temp+1
  3527  0001B4  5026               	movf	___flmul@temp^0,w,c
  3528  0001B6  261C               	addwf	___flmul@grs^0,f,c
  3529  0001B8  5027               	movf	(___flmul@temp+1)^0,w,c
  3530  0001BA  221D               	addwfc	(___flmul@grs+1)^0,f,c
  3531  0001BC  0E00               	movlw	0
  3532  0001BE  221E               	addwfc	(___flmul@grs+2)^0,f,c
  3533  0001C0  0E00               	movlw	0
  3534  0001C2  221F               	addwfc	(___flmul@grs+3)^0,f,c
  3535  0001C4  5014               	movf	(___flmul@a+1)^0,w,c
  3536  0001C6  020F               	mulwf	___flmul@b^0,c
  3537  0001C8  CFF3 F026          	movff	prodl,___flmul@temp
  3538  0001CC  CFF4 F027          	movff	prodh,___flmul@temp+1
  3539  0001D0  5026               	movf	___flmul@temp^0,w,c
  3540  0001D2  261C               	addwf	___flmul@grs^0,f,c
  3541  0001D4  5027               	movf	(___flmul@temp+1)^0,w,c
  3542  0001D6  221D               	addwfc	(___flmul@grs+1)^0,f,c
  3543  0001D8  0E00               	movlw	0
  3544  0001DA  221E               	addwfc	(___flmul@grs+2)^0,f,c
  3545  0001DC  0E00               	movlw	0
  3546  0001DE  221F               	addwfc	(___flmul@grs+3)^0,f,c
  3547  0001E0  C01E  F01F         	movff	___flmul@grs+2,___flmul@grs+3
  3548  0001E4  C01D  F01E         	movff	___flmul@grs+1,___flmul@grs+2
  3549  0001E8  C01C  F01D         	movff	___flmul@grs,___flmul@grs+1
  3550  0001EC  6A1C               	clrf	___flmul@grs^0,c
  3551  0001EE  5013               	movf	___flmul@a^0,w,c
  3552  0001F0  020F               	mulwf	___flmul@b^0,c
  3553  0001F2  CFF3 F026          	movff	prodl,___flmul@temp
  3554  0001F6  CFF4 F027          	movff	prodh,___flmul@temp+1
  3555  0001FA  5026               	movf	___flmul@temp^0,w,c
  3556  0001FC  261C               	addwf	___flmul@grs^0,f,c
  3557  0001FE  5027               	movf	(___flmul@temp+1)^0,w,c
  3558  000200  221D               	addwfc	(___flmul@grs+1)^0,f,c
  3559  000202  0E00               	movlw	0
  3560  000204  221E               	addwfc	(___flmul@grs+2)^0,f,c
  3561  000206  0E00               	movlw	0
  3562  000208  221F               	addwfc	(___flmul@grs+3)^0,f,c
  3563  00020A  5015               	movf	(___flmul@a+2)^0,w,c
  3564  00020C  0210               	mulwf	(___flmul@b+1)^0,c
  3565  00020E  CFF3 F026          	movff	prodl,___flmul@temp
  3566  000212  CFF4 F027          	movff	prodh,___flmul@temp+1
  3567  000216  5026               	movf	___flmul@temp^0,w,c
  3568  000218  2622               	addwf	___flmul@prod^0,f,c
  3569  00021A  5027               	movf	(___flmul@temp+1)^0,w,c
  3570  00021C  2223               	addwfc	(___flmul@prod+1)^0,f,c
  3571  00021E  0E00               	movlw	0
  3572  000220  2224               	addwfc	(___flmul@prod+2)^0,f,c
  3573  000222  0E00               	movlw	0
  3574  000224  2225               	addwfc	(___flmul@prod+3)^0,f,c
  3575  000226  5014               	movf	(___flmul@a+1)^0,w,c
  3576  000228  0211               	mulwf	(___flmul@b+2)^0,c
  3577  00022A  CFF3 F026          	movff	prodl,___flmul@temp
  3578  00022E  CFF4 F027          	movff	prodh,___flmul@temp+1
  3579  000232  5026               	movf	___flmul@temp^0,w,c
  3580  000234  2622               	addwf	___flmul@prod^0,f,c
  3581  000236  5027               	movf	(___flmul@temp+1)^0,w,c
  3582  000238  2223               	addwfc	(___flmul@prod+1)^0,f,c
  3583  00023A  0E00               	movlw	0
  3584  00023C  2224               	addwfc	(___flmul@prod+2)^0,f,c
  3585  00023E  0E00               	movlw	0
  3586  000240  2225               	addwfc	(___flmul@prod+3)^0,f,c
  3587  000242  5015               	movf	(___flmul@a+2)^0,w,c
  3588  000244  0211               	mulwf	(___flmul@b+2)^0,c
  3589  000246  CFF3 F026          	movff	prodl,___flmul@temp
  3590  00024A  CFF4 F027          	movff	prodh,___flmul@temp+1
  3591  00024E  5026               	movf	___flmul@temp^0,w,c
  3592  000250  6E17               	movwf	??___flmul^0,c
  3593  000252  5027               	movf	(___flmul@temp+1)^0,w,c
  3594  000254  6E18               	movwf	(??___flmul+1)^0,c
  3595  000256  6A19               	clrf	(??___flmul+2)^0,c
  3596  000258  6A1A               	clrf	(??___flmul+3)^0,c
  3597  00025A  C019  F01A         	movff	??___flmul+2,??___flmul+3
  3598  00025E  C018  F019         	movff	??___flmul+1,??___flmul+2
  3599  000262  C017  F018         	movff	??___flmul,??___flmul+1
  3600  000266  6A17               	clrf	??___flmul^0,c
  3601  000268  5017               	movf	??___flmul^0,w,c
  3602  00026A  2622               	addwf	___flmul@prod^0,f,c
  3603  00026C  5018               	movf	(??___flmul+1)^0,w,c
  3604  00026E  2223               	addwfc	(___flmul@prod+1)^0,f,c
  3605  000270  5019               	movf	(??___flmul+2)^0,w,c
  3606  000272  2224               	addwfc	(___flmul@prod+2)^0,f,c
  3607  000274  501A               	movf	(??___flmul+3)^0,w,c
  3608  000276  2225               	addwfc	(___flmul@prod+3)^0,f,c
  3609  000278  C01C  F017         	movff	___flmul@grs,??___flmul
  3610  00027C  C01D  F018         	movff	___flmul@grs+1,??___flmul+1
  3611  000280  C01E  F019         	movff	___flmul@grs+2,??___flmul+2
  3612  000284  C01F  F01A         	movff	___flmul@grs+3,??___flmul+3
  3613  000288  0E19               	movlw	25
  3614  00028A  EF4C  F001         	goto	i2u162_40
  3615  00028E                     i2u162_45:
  3616  00028E  90D8               	bcf	status,0,c
  3617  000290  321A               	rrcf	(??___flmul+3)^0,f,c
  3618  000292  3219               	rrcf	(??___flmul+2)^0,f,c
  3619  000294  3218               	rrcf	(??___flmul+1)^0,f,c
  3620  000296  3217               	rrcf	??___flmul^0,f,c
  3621  000298                     i2u162_40:
  3622  000298  2EE8               	decfsz	wreg,f,c
  3623  00029A  EF47  F001         	goto	i2u162_45
  3624  00029E  5017               	movf	??___flmul^0,w,c
  3625  0002A0  2622               	addwf	___flmul@prod^0,f,c
  3626  0002A2  5018               	movf	(??___flmul+1)^0,w,c
  3627  0002A4  2223               	addwfc	(___flmul@prod+1)^0,f,c
  3628  0002A6  5019               	movf	(??___flmul+2)^0,w,c
  3629  0002A8  2224               	addwfc	(___flmul@prod+2)^0,f,c
  3630  0002AA  501A               	movf	(??___flmul+3)^0,w,c
  3631  0002AC  2225               	addwfc	(___flmul@prod+3)^0,f,c
  3632  0002AE  C01E  F01F         	movff	___flmul@grs+2,___flmul@grs+3
  3633  0002B2  C01D  F01E         	movff	___flmul@grs+1,___flmul@grs+2
  3634  0002B6  C01C  F01D         	movff	___flmul@grs,___flmul@grs+1
  3635  0002BA  6A1C               	clrf	___flmul@grs^0,c
  3636  0002BC  5020               	movf	___flmul@aexp^0,w,c
  3637  0002BE  C021  F017         	movff	___flmul@bexp,??___flmul
  3638  0002C2  6A18               	clrf	(??___flmul+1)^0,c
  3639  0002C4  2617               	addwf	??___flmul^0,f,c
  3640  0002C6  0E00               	movlw	0
  3641  0002C8  2218               	addwfc	(??___flmul+1)^0,f,c
  3642  0002CA  0E82               	movlw	130
  3643  0002CC  2417               	addwf	??___flmul^0,w,c
  3644  0002CE  6E26               	movwf	___flmul@temp^0,c
  3645  0002D0  0EFF               	movlw	255
  3646  0002D2  2018               	addwfc	(??___flmul+1)^0,w,c
  3647  0002D4  6E27               	movwf	(___flmul@temp+1)^0,c
  3648  0002D6  EF82  F001         	goto	i2l2177
  3649  0002DA                     i2l2171:
  3650  0002DA  90D8               	bcf	status,0,c
  3651  0002DC  3622               	rlcf	___flmul@prod^0,f,c
  3652  0002DE  3623               	rlcf	(___flmul@prod+1)^0,f,c
  3653  0002E0  3624               	rlcf	(___flmul@prod+2)^0,f,c
  3654  0002E2  3625               	rlcf	(___flmul@prod+3)^0,f,c
  3655  0002E4  AE1F               	btfss	(___flmul@grs+3)^0,7,c
  3656  0002E6  EF77  F001         	goto	i2u163_41
  3657  0002EA  EF79  F001         	goto	i2u163_40
  3658  0002EE                     i2u163_41:
  3659  0002EE  EF7A  F001         	goto	i2l953
  3660  0002F2                     i2u163_40:
  3661  0002F2  8022               	bsf	___flmul@prod^0,0,c
  3662  0002F4                     i2l953:
  3663  0002F4  90D8               	bcf	status,0,c
  3664  0002F6  361C               	rlcf	___flmul@grs^0,f,c
  3665  0002F8  361D               	rlcf	(___flmul@grs+1)^0,f,c
  3666  0002FA  361E               	rlcf	(___flmul@grs+2)^0,f,c
  3667  0002FC  361F               	rlcf	(___flmul@grs+3)^0,f,c
  3668  0002FE  0626               	decf	___flmul@temp^0,f,c
  3669  000300  A0D8               	btfss	status,0,c
  3670  000302  0627               	decf	(___flmul@temp+1)^0,f,c
  3671  000304                     i2l2177:
  3672  000304  AE24               	btfss	(___flmul@prod+2)^0,7,c
  3673  000306  EF87  F001         	goto	i2u164_41
  3674  00030A  EF89  F001         	goto	i2u164_40
  3675  00030E                     i2u164_41:
  3676  00030E  EF6D  F001         	goto	i2l2171
  3677  000312                     i2u164_40:
  3678  000312  0E00               	movlw	0
  3679  000314  6E20               	movwf	___flmul@aexp^0,c
  3680  000316  AE1F               	btfss	(___flmul@grs+3)^0,7,c
  3681  000318  EF90  F001         	goto	i2u165_41
  3682  00031C  EF92  F001         	goto	i2u165_40
  3683  000320                     i2u165_41:
  3684  000320  EFB6  F001         	goto	i2l955
  3685  000324                     i2u165_40:
  3686  000324  0EFF               	movlw	255
  3687  000326  141C               	andwf	___flmul@grs^0,w,c
  3688  000328  6E17               	movwf	??___flmul^0,c
  3689  00032A  0EFF               	movlw	255
  3690  00032C  141D               	andwf	(___flmul@grs+1)^0,w,c
  3691  00032E  6E18               	movwf	(??___flmul+1)^0,c
  3692  000330  0EFF               	movlw	255
  3693  000332  141E               	andwf	(___flmul@grs+2)^0,w,c
  3694  000334  6E19               	movwf	(??___flmul+2)^0,c
  3695  000336  0E7F               	movlw	127
  3696  000338  141F               	andwf	(___flmul@grs+3)^0,w,c
  3697  00033A  6E1A               	movwf	(??___flmul+3)^0,c
  3698  00033C  5017               	movf	??___flmul^0,w,c
  3699  00033E  1018               	iorwf	(??___flmul+1)^0,w,c
  3700  000340  1019               	iorwf	(??___flmul+2)^0,w,c
  3701  000342  101A               	iorwf	(??___flmul+3)^0,w,c
  3702  000344  B4D8               	btfsc	status,2,c
  3703  000346  EFA7  F001         	goto	i2u166_41
  3704  00034A  EFA9  F001         	goto	i2u166_40
  3705  00034E                     i2u166_41:
  3706  00034E  EFAD  F001         	goto	i2l956
  3707  000352                     i2u166_40:
  3708  000352                     i2l2185:
  3709  000352  0E01               	movlw	1
  3710  000354  6E20               	movwf	___flmul@aexp^0,c
  3711  000356  EFB6  F001         	goto	i2l955
  3712  00035A                     i2l956:
  3713  00035A  A022               	btfss	___flmul@prod^0,0,c
  3714  00035C  EFB2  F001         	goto	i2u167_41
  3715  000360  EFB4  F001         	goto	i2u167_40
  3716  000364                     i2u167_41:
  3717  000364  EFB6  F001         	goto	i2l955
  3718  000368                     i2u167_40:
  3719  000368  EFA9  F001         	goto	i2l2185
  3720  00036C                     i2l955:
  3721  00036C  5020               	movf	___flmul@aexp^0,w,c
  3722  00036E  B4D8               	btfsc	status,2,c
  3723  000370  EFBC  F001         	goto	i2u168_41
  3724  000374  EFBE  F001         	goto	i2u168_40
  3725  000378                     i2u168_41:
  3726  000378  EFE2  F001         	goto	i2l2197
  3727  00037C                     i2u168_40:
  3728  00037C  0E01               	movlw	1
  3729  00037E  2622               	addwf	___flmul@prod^0,f,c
  3730  000380  0E00               	movlw	0
  3731  000382  2223               	addwfc	(___flmul@prod+1)^0,f,c
  3732  000384  2224               	addwfc	(___flmul@prod+2)^0,f,c
  3733  000386  2225               	addwfc	(___flmul@prod+3)^0,f,c
  3734  000388  A025               	btfss	(___flmul@prod+3)^0,0,c
  3735  00038A  EFC9  F001         	goto	i2u169_41
  3736  00038E  EFCB  F001         	goto	i2u169_40
  3737  000392                     i2u169_41:
  3738  000392  EFE2  F001         	goto	i2l2197
  3739  000396                     i2u169_40:
  3740  000396  C022  F017         	movff	___flmul@prod,??___flmul
  3741  00039A  C023  F018         	movff	___flmul@prod+1,??___flmul+1
  3742  00039E  C024  F019         	movff	___flmul@prod+2,??___flmul+2
  3743  0003A2  C025  F01A         	movff	___flmul@prod+3,??___flmul+3
  3744  0003A6  341A               	rlcf	(??___flmul+3)^0,w,c
  3745  0003A8  321A               	rrcf	(??___flmul+3)^0,f,c
  3746  0003AA  3219               	rrcf	(??___flmul+2)^0,f,c
  3747  0003AC  3218               	rrcf	(??___flmul+1)^0,f,c
  3748  0003AE  3217               	rrcf	??___flmul^0,f,c
  3749  0003B0  C017  F022         	movff	??___flmul,___flmul@prod
  3750  0003B4  C018  F023         	movff	??___flmul+1,___flmul@prod+1
  3751  0003B8  C019  F024         	movff	??___flmul+2,___flmul@prod+2
  3752  0003BC  C01A  F025         	movff	??___flmul+3,___flmul@prod+3
  3753  0003C0  4A26               	infsnz	___flmul@temp^0,f,c
  3754  0003C2  2A27               	incf	(___flmul@temp+1)^0,f,c
  3755  0003C4                     i2l2197:
  3756  0003C4  BE27               	btfsc	(___flmul@temp+1)^0,7,c
  3757  0003C6  EFED  F001         	goto	i2u170_41
  3758  0003CA  5027               	movf	(___flmul@temp+1)^0,w,c
  3759  0003CC  E108               	bnz	i2u170_40
  3760  0003CE  2826               	incf	___flmul@temp^0,w,c
  3761  0003D0  A0D8               	btfss	status,0,c
  3762  0003D2  EFED  F001         	goto	i2u170_41
  3763  0003D6  EFEF  F001         	goto	i2u170_40
  3764  0003DA                     i2u170_41:
  3765  0003DA  EFF9  F001         	goto	i2l2201
  3766  0003DE                     i2u170_40:
  3767  0003DE  0E00               	movlw	0
  3768  0003E0  6E22               	movwf	___flmul@prod^0,c
  3769  0003E2  0E00               	movlw	0
  3770  0003E4  6E23               	movwf	(___flmul@prod+1)^0,c
  3771  0003E6  0E80               	movlw	128
  3772  0003E8  6E24               	movwf	(___flmul@prod+2)^0,c
  3773  0003EA  0E7F               	movlw	127
  3774  0003EC  6E25               	movwf	(___flmul@prod+3)^0,c
  3775  0003EE  EF27  F002         	goto	i2l2213
  3776  0003F2                     i2l2201:
  3777  0003F2  BE27               	btfsc	(___flmul@temp+1)^0,7,c
  3778  0003F4  EF06  F002         	goto	i2u171_40
  3779  0003F8  5027               	movf	(___flmul@temp+1)^0,w,c
  3780  0003FA  E106               	bnz	i2u171_41
  3781  0003FC  0426               	decf	___flmul@temp^0,w,c
  3782  0003FE  B0D8               	btfsc	status,0,c
  3783  000400  EF04  F002         	goto	i2u171_41
  3784  000404  EF06  F002         	goto	i2u171_40
  3785  000408                     i2u171_41:
  3786  000408  EF12  F002         	goto	i2l963
  3787  00040C                     i2u171_40:
  3788  00040C  0E00               	movlw	0
  3789  00040E  6E22               	movwf	___flmul@prod^0,c
  3790  000410  0E00               	movlw	0
  3791  000412  6E23               	movwf	(___flmul@prod+1)^0,c
  3792  000414  0E00               	movlw	0
  3793  000416  6E24               	movwf	(___flmul@prod+2)^0,c
  3794  000418  0E00               	movlw	0
  3795  00041A  6E25               	movwf	(___flmul@prod+3)^0,c
  3796  00041C  0E00               	movlw	0
  3797  00041E  6E1B               	movwf	___flmul@sign^0,c
  3798  000420  EF27  F002         	goto	i2l2213
  3799  000424                     i2l963:
  3800  000424  C026  F021         	movff	___flmul@temp,___flmul@bexp
  3801  000428  0EFF               	movlw	255
  3802  00042A  1622               	andwf	___flmul@prod^0,f,c
  3803  00042C  0EFF               	movlw	255
  3804  00042E  1623               	andwf	(___flmul@prod+1)^0,f,c
  3805  000430  0E7F               	movlw	127
  3806  000432  1624               	andwf	(___flmul@prod+2)^0,f,c
  3807  000434  0E00               	movlw	0
  3808  000436  1625               	andwf	(___flmul@prod+3)^0,f,c
  3809  000438  A021               	btfss	___flmul@bexp^0,0,c
  3810  00043A  EF21  F002         	goto	i2u172_41
  3811  00043E  EF23  F002         	goto	i2u172_40
  3812  000442                     i2u172_41:
  3813  000442  EF24  F002         	goto	i2l2211
  3814  000446                     i2u172_40:
  3815  000446  8E24               	bsf	(___flmul@prod+2)^0,7,c
  3816  000448                     i2l2211:
  3817  000448  90D8               	bcf	status,0,c
  3818  00044A  3021               	rrcf	___flmul@bexp^0,w,c
  3819  00044C  6E25               	movwf	(___flmul@prod+3)^0,c
  3820  00044E                     i2l2213:
  3821  00044E  501B               	movf	___flmul@sign^0,w,c
  3822  000450  1225               	iorwf	(___flmul@prod+3)^0,f,c
  3823  000452  C022  F00F         	movff	___flmul@prod,?___flmul
  3824  000456  C023  F010         	movff	___flmul@prod+1,?___flmul+1
  3825  00045A  C024  F011         	movff	___flmul@prod+2,?___flmul+2
  3826  00045E  C025  F012         	movff	___flmul@prod+3,?___flmul+3
  3827  000462                     i2l950:
  3828  000462  0012               	return		;funcret
  3829  000464                     __end_of___flmul:
  3830                           	opt callstack 0
  3831                           
  3832 ;; *************** function _ADC_Read *****************
  3833 ;; Defined at:
  3834 ;;		line 19 in file "adc.c"
  3835 ;; Parameters:    Size  Location     Type
  3836 ;;  channel         2    0[COMRAM] int 
  3837 ;; Auto vars:     Size  Location     Type
  3838 ;;  digital         2    6[COMRAM] int 
  3839 ;; Return value:  Size  Location     Type
  3840 ;;                  2    0[COMRAM] int 
  3841 ;; Registers used:
  3842 ;;		wreg, status,2, status,0
  3843 ;; Tracked objects:
  3844 ;;		On entry : 0/0
  3845 ;;		On exit  : 0/0
  3846 ;;		Unchanged: 0/0
  3847 ;; Data sizes:     COMRAM   BANK0   BANK1   BANK2   BANK3   BANK4   BANK5   BANK6   BANK7
  3848 ;;      Params:         2       0       0       0       0       0       0       0       0
  3849 ;;      Locals:         2       0       0       0       0       0       0       0       0
  3850 ;;      Temps:          4       0       0       0       0       0       0       0       0
  3851 ;;      Totals:         8       0       0       0       0       0       0       0       0
  3852 ;;Total ram usage:        8 bytes
  3853 ;; Hardware stack levels used:    1
  3854 ;; This function calls:
  3855 ;;		Nothing
  3856 ;; This function is called by:
  3857 ;;		_INT_EX_0
  3858 ;; This function uses a non-reentrant model
  3859 ;;
  3860                           
  3861                           	psect	text21
  3862  000ED8                     __ptext21:
  3863                           	opt callstack 0
  3864  000ED8                     _ADC_Read:
  3865                           	opt callstack 24
  3866  000ED8                     
  3867                           ;adc.c: 19: int ADC_Read(int channel);adc.c: 20: {;adc.c: 22:     int digital;;adc.c: 23
      +                          :     ADCON0 =(ADCON0 & 0b11000011)|((channel<<2) & 0b00111100);
  3868  000ED8  C001  F003         	movff	ADC_Read@channel,??_ADC_Read
  3869  000EDC  90D8               	bcf	status,0,c
  3870  000EDE  3603               	rlcf	??_ADC_Read^0,f,c
  3871  000EE0  90D8               	bcf	status,0,c
  3872  000EE2  3603               	rlcf	??_ADC_Read^0,f,c
  3873  000EE4  0E3C               	movlw	60
  3874  000EE6  1603               	andwf	??_ADC_Read^0,f,c
  3875  000EE8  50C2               	movf	194,w,c	;volatile
  3876  000EEA  0BC3               	andlw	195
  3877  000EEC  1003               	iorwf	??_ADC_Read^0,w,c
  3878  000EEE  6EC2               	movwf	194,c	;volatile
  3879                           
  3880                           ;adc.c: 26:     ADCON0 |= ((1<<ADON)|(1<<GO));
  3881  000EF0  B2C2               	btfsc	4034,1,c	;volatile
  3882  000EF2  EF7D  F007         	goto	i2u145_41
  3883  000EF6  EF81  F007         	goto	i2u145_40
  3884  000EFA                     i2u145_41:
  3885  000EFA  6A03               	clrf	??_ADC_Read^0,c
  3886  000EFC  2A03               	incf	??_ADC_Read^0,f,c
  3887  000EFE  EF82  F007         	goto	i2u146_48
  3888  000F02                     i2u145_40:
  3889  000F02  6A03               	clrf	??_ADC_Read^0,c
  3890  000F04                     i2u146_48:
  3891  000F04  0E01               	movlw	1
  3892  000F06  6E04               	movwf	(??_ADC_Read+1)^0,c
  3893  000F08  2A03               	incf	??_ADC_Read^0,f,c
  3894  000F0A  EF89  F007         	goto	i2u147_44
  3895  000F0E                     i2u147_45:
  3896  000F0E  90D8               	bcf	status,0,c
  3897  000F10  3604               	rlcf	(??_ADC_Read+1)^0,f,c
  3898  000F12                     i2u147_44:
  3899  000F12  2E03               	decfsz	??_ADC_Read^0,f,c
  3900  000F14  EF87  F007         	goto	i2u147_45
  3901  000F18  B0C2               	btfsc	4034,0,c	;volatile
  3902  000F1A  EF91  F007         	goto	i2u148_41
  3903  000F1E  EF95  F007         	goto	i2u148_40
  3904  000F22                     i2u148_41:
  3905  000F22  6A05               	clrf	(??_ADC_Read+2)^0,c
  3906  000F24  2A05               	incf	(??_ADC_Read+2)^0,f,c
  3907  000F26  EF96  F007         	goto	i2u149_48
  3908  000F2A                     i2u148_40:
  3909  000F2A  6A05               	clrf	(??_ADC_Read+2)^0,c
  3910  000F2C                     i2u149_48:
  3911  000F2C  0E01               	movlw	1
  3912  000F2E  6E06               	movwf	(??_ADC_Read+3)^0,c
  3913  000F30  2A05               	incf	(??_ADC_Read+2)^0,f,c
  3914  000F32  EF9D  F007         	goto	i2u150_44
  3915  000F36                     i2u150_45:
  3916  000F36  90D8               	bcf	status,0,c
  3917  000F38  3606               	rlcf	(??_ADC_Read+3)^0,f,c
  3918  000F3A                     i2u150_44:
  3919  000F3A  2E05               	decfsz	(??_ADC_Read+2)^0,f,c
  3920  000F3C  EF9B  F007         	goto	i2u150_45
  3921  000F40  5006               	movf	(??_ADC_Read+3)^0,w,c
  3922  000F42  1004               	iorwf	(??_ADC_Read+1)^0,w,c
  3923  000F44  12C2               	iorwf	194,f,c	;volatile
  3924  000F46                     i2l242:
  3925  000F46  B2C2               	btfsc	194,1,c	;volatile
  3926  000F48  EFA8  F007         	goto	i2u151_41
  3927  000F4C  EFAA  F007         	goto	i2u151_40
  3928  000F50                     i2u151_41:
  3929  000F50  EFA3  F007         	goto	i2l242
  3930  000F54                     i2u151_40:
  3931  000F54                     
  3932                           ;adc.c: 31:    digital = (ADRESH*256) | (ADRESL);
  3933  000F54  50C3               	movf	195,w,c	;volatile
  3934  000F56  CFC4 F003          	movff	4036,??_ADC_Read	;volatile
  3935  000F5A  6A04               	clrf	(??_ADC_Read+1)^0,c
  3936  000F5C  C003  F004         	movff	??_ADC_Read,??_ADC_Read+1
  3937  000F60  6A03               	clrf	??_ADC_Read^0,c
  3938  000F62  1003               	iorwf	??_ADC_Read^0,w,c
  3939  000F64  6E07               	movwf	ADC_Read@digital^0,c
  3940  000F66  5004               	movf	(??_ADC_Read+1)^0,w,c
  3941  000F68  6E08               	movwf	(ADC_Read@digital+1)^0,c
  3942  000F6A                     
  3943                           ;adc.c: 34:     return(digital);
  3944  000F6A  C007  F001         	movff	ADC_Read@digital,?_ADC_Read
  3945  000F6E  C008  F002         	movff	ADC_Read@digital+1,?_ADC_Read+1
  3946  000F72  0012               	return		;funcret
  3947  000F74                     __end_of_ADC_Read:
  3948                           	opt callstack 0
  3949  0000                     
  3950                           	psect	rparam
  3951  0000                     
  3952                           	psect	temp
  3953  00003A                     btemp:
  3954                           	opt callstack 0
  3955  00003A                     	ds	1
  3956  0000                     int$flags	set	btemp
  3957  0000                     wtemp8	set	btemp+1
  3958  0000                     ttemp5	set	btemp+1
  3959  0000                     ttemp6	set	btemp+4
  3960  0000                     ttemp7	set	btemp+8
  3961                           tosu	equ	0xFFF
  3962                           tosh	equ	0xFFE
  3963                           tosl	equ	0xFFD
  3964                           stkptr	equ	0xFFC
  3965                           pclatu	equ	0xFFB
  3966                           pclath	equ	0xFFA
  3967                           pcl	equ	0xFF9
  3968                           tblptru	equ	0xFF8
  3969                           tblptrh	equ	0xFF7
  3970                           tblptrl	equ	0xFF6
  3971                           tablat	equ	0xFF5
  3972                           prodh	equ	0xFF4
  3973                           prodl	equ	0xFF3
  3974                           indf0	equ	0xFEF
  3975                           postinc0	equ	0xFEE
  3976                           postdec0	equ	0xFED
  3977                           preinc0	equ	0xFEC
  3978                           plusw0	equ	0xFEB
  3979                           fsr0h	equ	0xFEA
  3980                           fsr0l	equ	0xFE9
  3981                           wreg	equ	0xFE8
  3982                           indf1	equ	0xFE7
  3983                           postinc1	equ	0xFE6
  3984                           postdec1	equ	0xFE5
  3985                           preinc1	equ	0xFE4
  3986                           plusw1	equ	0xFE3
  3987                           fsr1h	equ	0xFE2
  3988                           fsr1l	equ	0xFE1
  3989                           bsr	equ	0xFE0
  3990                           indf2	equ	0xFDF
  3991                           postinc2	equ	0xFDE
  3992                           postdec2	equ	0xFDD
  3993                           preinc2	equ	0xFDC
  3994                           plusw2	equ	0xFDB
  3995                           fsr2h	equ	0xFDA
  3996                           fsr2l	equ	0xFD9
  3997                           status	equ	0xFD8


Data Sizes:
    Strings     0
    Constant    0
    Data        4
    BSS         6
    Persistent  0
    Stack       0

Auto Spaces:
    Space          Size  Autos    Used
    COMRAM           94     53      57
    BANK0           160     49      55
    BANK1           256      0       0
    BANK2           256      0       0
    BANK3           256      0       0
    BANK4           256      0       0
    BANK5           256      0       0
    BANK6           256      0       0
    BANK7           256      0       0

Pointer List with Targets:

    None.

Critical Paths under _main in COMRAM

    None.

Critical Paths under _INT_EXT_1 in COMRAM

    None.

Critical Paths under _INT_EX_0 in COMRAM

    _INT_EX_0->___flmul
    ___flmul->___xxtofl

Critical Paths under _main in BANK0

    _main->_Dutty_Pwm
    _Dutty_Pwm->_mostrar_dec
    _mostrar_inc->___lwdiv
    _mostrar_dec->_PWM_generar
    _PWM_generar->___lldiv

Critical Paths under _INT_EXT_1 in BANK0

    None.

Critical Paths under _INT_EX_0 in BANK0

    None.

Critical Paths under _main in BANK1

    None.

Critical Paths under _INT_EXT_1 in BANK1

    None.

Critical Paths under _INT_EX_0 in BANK1

    None.

Critical Paths under _main in BANK2

    None.

Critical Paths under _INT_EXT_1 in BANK2

    None.

Critical Paths under _INT_EX_0 in BANK2

    None.

Critical Paths under _main in BANK3

    None.

Critical Paths under _INT_EXT_1 in BANK3

    None.

Critical Paths under _INT_EX_0 in BANK3

    None.

Critical Paths under _main in BANK4

    None.

Critical Paths under _INT_EXT_1 in BANK4

    None.

Critical Paths under _INT_EX_0 in BANK4

    None.

Critical Paths under _main in BANK5

    None.

Critical Paths under _INT_EXT_1 in BANK5

    None.

Critical Paths under _INT_EX_0 in BANK5

    None.

Critical Paths under _main in BANK6

    None.

Critical Paths under _INT_EXT_1 in BANK6

    None.

Critical Paths under _INT_EX_0 in BANK6

    None.

Critical Paths under _main in BANK7

    None.

Critical Paths under _INT_EXT_1 in BANK7

    None.

Critical Paths under _INT_EX_0 in BANK7

    None.

Call Graph Tables:

 ---------------------------------------------------------------------------------
 (Depth) Function   	        Calls       Base Space   Used Autos Params    Refs
 ---------------------------------------------------------------------------------
 (0) _main                                                 5     5      0    7482
                                             48 BANK0      1     1      0
                           _ADC_Init
                          _Dutty_Pwm
                             _declet
                     _eeprom_guardar
                        _eeprom_leer
 ---------------------------------------------------------------------------------
 (1) _eeprom_leer                                          2     0      2     148
                                              1 BANK0      2     0      2
 ---------------------------------------------------------------------------------
 (1) _eeprom_guardar                                       3     0      3     448
                                              1 BANK0      3     0      3
 ---------------------------------------------------------------------------------
 (1) _declet                                               0     0      0       0
 ---------------------------------------------------------------------------------
 (1) _Dutty_Pwm                                            8     4      4    6886
                                             40 BANK0      8     4      4
                        _PWM_generar
                            _delay_s
                        _mostrar_dec
                        _mostrar_inc
 ---------------------------------------------------------------------------------
 (2) _mostrar_inc                                          6     4      2    1004
                                              8 BANK0      6     4      2
                            ___lwdiv
                            _segment
 ---------------------------------------------------------------------------------
 (3) _segment                                              2     0      2     296
                                              1 BANK0      2     0      2
 ---------------------------------------------------------------------------------
 (2) _mostrar_dec                                          6     4      2    3078
                                             34 BANK0      6     4      2
                        _PWM_generar
                            ___lwdiv
                           _segment2
 ---------------------------------------------------------------------------------
 (3) _segment2                                             2     0      2     296
                                              1 BANK0      2     0      2
 ---------------------------------------------------------------------------------
 (3) ___lwdiv                                              7     3      4     466
                                              1 BANK0      7     3      4
 ---------------------------------------------------------------------------------
 (3) _PWM_generar                                         20    16      4    2008
                                             14 BANK0     20    16      4
                            ___lldiv
                             ___lmul
 ---------------------------------------------------------------------------------
 (4) ___lmul                                              12     4      8     370
                                              1 BANK0     12     4      8
 ---------------------------------------------------------------------------------
 (4) ___lldiv                                             13     5      8     466
                                              1 BANK0     13     5      8
 ---------------------------------------------------------------------------------
 (2) _delay_s                                              4     2      2     175
                                              1 BANK0      4     2      2
 ---------------------------------------------------------------------------------
 (1) _ADC_Init                                             0     0      0       0
 ---------------------------------------------------------------------------------
 Estimated maximum stack depth 4
 ---------------------------------------------------------------------------------
 (Depth) Function   	        Calls       Base Space   Used Autos Params    Refs
 ---------------------------------------------------------------------------------
 (5) _INT_EXT_1                                            1     1      0       0
                                              0 BANK0      1     1      0
 ---------------------------------------------------------------------------------
 Estimated maximum stack depth 5
 ---------------------------------------------------------------------------------
 (Depth) Function   	        Calls       Base Space   Used Autos Params    Refs
 ---------------------------------------------------------------------------------
 (6) _INT_EX_0                                            16    16      0    2479
                                             39 COMRAM    14    14      0
                           _ADC_Read
                            ___flmul
                           ___xxtofl
                   i2_eeprom_guardar
                      i2_eeprom_leer
 ---------------------------------------------------------------------------------
 (7) i2_eeprom_leer                                        2     0      2      48
                                              0 COMRAM     2     0      2
 ---------------------------------------------------------------------------------
 (7) i2_eeprom_guardar                                     3     0      3      96
                                              0 COMRAM     3     0      3
 ---------------------------------------------------------------------------------
 (7) ___xxtofl                                            14    10      4     398
                                              0 COMRAM    14    10      4
 ---------------------------------------------------------------------------------
 (7) ___flmul                                             25    17      8    1744
                                             14 COMRAM    25    17      8
                           ___xxtofl (ARG)
 ---------------------------------------------------------------------------------
 (7) _ADC_Read                                             8     6      2     121
                                              0 COMRAM     8     6      2
 ---------------------------------------------------------------------------------
 Estimated maximum stack depth 7
 ---------------------------------------------------------------------------------

 Call Graph Graphs:

 _main (ROOT)
   _ADC_Init
   _Dutty_Pwm
     _PWM_generar
       ___lldiv
       ___lmul
     _delay_s
     _mostrar_dec
       _PWM_generar
         ___lldiv
         ___lmul
       ___lwdiv
       _segment2
     _mostrar_inc
       ___lwdiv
       _segment
   _declet
   _eeprom_guardar
   _eeprom_leer

 _INT_EXT_1 (ROOT)

 _INT_EX_0 (ROOT)
   _ADC_Read
   ___flmul
     ___xxtofl (ARG)
   ___xxtofl
   i2_eeprom_guardar
   i2_eeprom_leer

 Address spaces:
Name               Size   Autos  Total    Cost      Usage
BIGRAM             7FF      0       0      21        0.0%
EEDATA             100      0       0       0        0.0%
BITBANK7           100      0       0      19        0.0%
BANK7              100      0       0      20        0.0%
BITBANK6           100      0       0      17        0.0%
BANK6              100      0       0      18        0.0%
BITBANK5           100      0       0      15        0.0%
BANK5              100      0       0      16        0.0%
BITBANK4           100      0       0      13        0.0%
BANK4              100      0       0      14        0.0%
BITBANK3           100      0       0      11        0.0%
BANK3              100      0       0      12        0.0%
BITBANK2           100      0       0       9        0.0%
BANK2              100      0       0      10        0.0%
BITBANK1           100      0       0       7        0.0%
BANK1              100      0       0       8        0.0%
BITBANK0            A0      0       0       4        0.0%
BANK0               A0     31      37       5       34.4%
BITCOMRAM           5E      0       0       0        0.0%
COMRAM              5E     35      39       1       60.6%
BITSFR_1             0      0       0     200        0.0%
SFR_1                0      0       0     200        0.0%
BITSFR               0      0       0     200        0.0%
SFR                  0      0       0     200        0.0%
STACK                0      0       0       2        0.0%
NULL                 0      0       0       0        0.0%
ABS                  0      0      70       6        0.0%
DATA                 0      0      70       3        0.0%
CODE                 0      0       0       0        0.0%


Microchip Technology PIC18 Macro Assembler V2.10 build 88905656 
Symbol Table                                                                                   Wed May 19 14:26:42 2021

                       l87 06A4                         _GO 007E11                         bsr 000FE0  
             __CFG_CP0$OFF 000000               __CFG_CP1$OFF 000000               __CFG_CP2$OFF 000000  
             __CFG_CP3$OFF 000000          PWM_generar@PR2cal 007A                        l200 117C  
                      l207 0CCE                        l147 0D94                        l163 0ACA  
                      l139 10BE                        l260 11A4                        l261 11A8  
                      l239 11E6                        l343 1044                        l191 0BEC  
                      l344 1054                        l264 11F4                        l185 0BEC  
                      l169 0ACA                        l194 1104                        l258 1196  
                      l197 1168                        l366 0E3A                        l359 0E2A  
                      l830 0FE8                        l823 0FE0                        _CEN 0093  
             __CFG_CPB$OFF 000000                        _PR2 000FBB               __CFG_CPD$OFF 000000  
        eeprom_guardar@DIR 0061                        wreg 000FE8               ___flmul@aexp 0020  
             ___flmul@bexp 0021               ___flmul@sign 001B               ___flmul@temp 0026  
             ___flmul@prod 0022               __CFG_LVP$OFF 000000                       l2001 0D1E  
                     l2011 0D68                       l2003 0D26                       l2021 1146  
                     l2013 0D6E                       l2005 0D3E                       l2023 1160  
                     l2007 0D52                       l2015 0D7E                       l2031 11E8  
                     l2017 0D90                       l2009 0D64                       l2025 117E  
                     l2033 11F0                       l2051 11D6                       l2019 1142  
                     l2027 118C                       l2035 11F2                       l2061 0C20  
                     l2053 0BEE                       l2029 1194                       l2063 0C2E  
                     l2047 10C0                       l2081 0C9C                       l2065 0C3A  
                     l2049 1102                       l2083 0CA8                       l2075 0C70  
                     l2067 0C40                       l2059 0C00                       l2331 0E7C  
                     l2085 0CAE                       l2077 0C7C                       l2069 0C5C  
                     l2333 0E8E                       l2325 0E3C                       l2087 0CCA  
                     l2079 0C90                       l2335 0EA8                       l2327 0E4A  
                     l1801 0FFC                       l2337 0EBA                       l2329 0E64  
                     l1811 0DA8                       l1803 100A                       l1821 0DEA  
                     l1813 0DBE                       l1805 101A                       l1901 0A66  
                     l1823 0E08                       l1815 0DC6                       l1807 1024  
                     l1831 0464                       l1911 0AA6                       l1903 0A6E  
                     l1825 0E18                       l1817 0DD2                       l1809 0D96  
                     l1841 04F6                       l1833 0466                       l1921 0B04  
                     l1913 0ABA                       l1905 0A82                       l1827 0E1A  
                     l1819 0DE0                       l1851 0572                       l1843 0514  
                     l1835 0486                       l1931 0B44                       l1923 0B0C  
                     l1915 0ACC                       l1907 0A8A                       l1829 0E24  
                     l1861 0638                       l1853 058E                       l1845 054A  
                     l1837 04B6                       l1941 0B90                       l1933 0B58  
                     l1925 0B20                       l1917 0AE0                       l1909 0A9E  
                     l1871 069E                       l1863 065A                       l1855 05BE  
                     l1847 0564                       l1839 04EE                       l1951 0BD0  
                     l1943 0B98                       l1935 0B60                       l1927 0B28  
                     l1919 0AF0                       l1873 06A0                       l1865 065E  
                     l1857 0626                       l1849 056E                       l1961 0F98  
                     l1953 0BE4                       l1945 0BAC                       l1937 0B74  
                     l1929 0B3C                       l1881 09DA                       l1867 0664  
                     l1859 062E                       l1971 0FD2                       l1963 0FA0  
                     l1955 0F74                       l1947 0BB4                       l1939 0B7C  
                     l1891 0A1A                       l1883 09E2                       l1875 09AA  
                     l1869 069A                       l1973 0FD4                       l1965 0FAE  
                     l1957 0F7E                       l1949 0BC8                       l1893 0A2E  
                     l1885 09F6                       l1877 09BE                       l1981 107E  
                     l1799 0FEA                       l1975 0FDA                       l1967 0FB4  
                     l1959 0F90                       l1895 0A36                       l1887 09FE  
                     l1879 09C6                       l1991 10B2                       l1983 1090  
                     l1969 0FCA                       l1993 0CD0                       l1897 0A4A  
                     l1889 0A12                       l1985 1098                       l1977 1056  
                     l1995 0CEE                       l1899 0A52                       l1987 10AA  
                     l1979 1074                       l1997 0CF8                       l1989 10AE  
                     l1999 0D0C                       _CEN2 0091                       _ADON 007E10  
                     u1100 0564                       u1101 0560                       u1030 100A  
                     u1031 1006                       u1040 1044                       u1120 0684  
                     u1200 0A82                       u1041 1040                       u1201 0A7E  
                     u1050 0DBE                       u1210 0A9E                       u1130 09BE  
                     u1051 0DBA                       u1115 05D0                       u1211 0A9A  
                     u1131 09BA                       u1060 0DE0                       u1300 0BAC  
                     u1220 0ABA                       u1140 09DA                       u1061 0DDC  
                     u1125 067A                       u1301 0BA8                       u1221 0AB6  
                     u1141 09D6                       u1070 0E08                       u1310 0BC8  
                     u1230 0AE0                       u1150 09F6                       u1071 0E04  
                     u1311 0BC4                       u1231 0ADC                       u1151 09F2  
                     u1080 04D8                       u1320 0BE4                       u1240 0B04  
                     u1400 0D52                       u1160 0A12                       u1321 0BE0  
                     u1241 0B00                       u1401 0D4E                       u1161 0A0E  
                     u1090 0534                       u1330 0F90                       u1250 0B20  
                     u1410 0D64                       u1170 0A2E                       u1331 0F8C  
                     u1251 0B1C                       u1411 0D60                       u1171 0A2A  
                     u1340 0FAE                       u1260 0B3C                       u1420 0D90  
                     u1180 0A4A                       u1085 04CC                       u1341 0FAA  
                     u1261 0B38                       u1421 0D8C                       u1181 0A46  
                     _LATA 000F89                       u1430 117C                       u1350 0FCA  
                     u1270 0B58                       u1190 0A66                       _LATB 000F8A  
                     u1431 1178                       u1095 052A                       u1351 0FC6  
                     u1271 0B54                       u1191 0A62                       u1280 0B74  
                     u1360 1090                       u1520 0C5C                       u1440 11A4  
                     u1281 0B70                       u1361 108C                       u1521 0C58  
                     u1441 11A0                       _LATE 000F8D                       u1290 0B90  
                     u1370 10AA                       u1530 0CCA                       u1291 0B8C  
                     u1371 10A6                       u1531 0CC6                       u1380 0D0C  
                     u1381 0D08                       u1390 0D1E                       u1391 0D1A  
                     u1900 0E8E                       u1901 0E8A                       u1910 0EBA  
                     u1911 0EB6                       u1957 1152                       i1l54 002E  
                     i2l42 0890                       i2l44 095C                       i2l48 099E  
       eeprom_guardar@DATE 0063                       _TMR2 000FBC                       _flag 0038  
              _PWM_generar 0464                       _main 0E3C                       fsr1l 000FE1  
                     btemp 003A              __CFG_BORV$190 000000           __end_of_ADC_Init 11E8  
         __end_of_ADC_Read 0F74                       prodh 000FF4                       prodl 000FF3  
                     start 0036              __CFG_IESO$OFF 000000             delay_s@seconds 0061  
            __CFG_MCLRE$ON 000000               ___param_bank 000000         __size_of_INT_EXT_1 001E  
                    ?_main 0001                      _EEADR 000FA9            __end_of___flmul 0464  
          __end_of___lldiv 0E3C                      _T2CON 000FBA           __end_of_INT_EX_0 09AA  
          __end_of___lwdiv 0FEA                      i2l242 0F46                      i2l260 11D0  
                    i2l245 0F72                      i2l261 11D4                      i2l264 1202  
                    i2l258 11C2                      i2l950 0462                      i2l953 02F4  
                    i2l946 00FE                      i2l963 0424                      i2l955 036C  
                    i2l956 035A                      i2l990 0858                      i2l994 0794  
                    i2l987 06FC                      _PORTA 000F80                      _PORTB 000F81  
                    _PORTC 000F82                      _PORTD 000F83                      _PORTE 000F84  
                    _TRISA 000F92                      _TRISB 000F93                      _TRISC 000F94  
                    _TRISE 000F96            __end_of_delay_s 117E              __CFG_WRT0$OFF 000000  
            __CFG_WRT1$OFF 000000              __CFG_WRT2$OFF 000000        ___lmul@multiplicand 0065  
            __CFG_WRT3$OFF 000000             __CFG_EBTR0$OFF 000000             __CFG_FCMEN$OFF 000000  
           __CFG_EBTR1$OFF 000000             __CFG_EBTR2$OFF 000000             __CFG_EBTR3$OFF 000000  
            __CFG_WRTB$OFF 000000              __CFG_WRTC$OFF 000000              __CFG_WRTD$OFF 000000  
           __CFG_EBTRB$OFF 000000                      _delay 0095                 Dutty_Pwm@i 008C  
               Dutty_Pwm@k 008E                      _eprom 0036            __end_of_segment 0ACC  
                    tablat 000FF5             eeprom_leer@DIR 0061                      ttemp5 003B  
                    ttemp6 003E                      ttemp7 0042                      status 000FD8  
           __CFG_T3CMX$RC0 000000                      wtemp8 003B             __CFG_ICPRT$OFF 000000  
           __CFG_PBADEN$ON 000000            __initialization 1106          ?i2_eeprom_guardar 0001  
             __end_of_main 0ED8         ??i2_eeprom_guardar 0004                     ??_main 0090  
            __activetblptr 000002             __CFG_SDOMX$RB3 000000            __CFG_CCP2MX$RC1 000000  
                   _ADCON0 000FC2                     _ADCON1 000FC1                     _ADCON2 000FC0  
         ??_eeprom_guardar 0064                     _ADRESH 000FC4                     _ADRESL 000FC3  
                   _EEDATA 000FA8                     _CCPR2L 000F90                     _EECON2 000FA7  
                   _ANSELA 000F5B                     _ANSELB 000F5C                     _ANSELC 000F5D  
                   _ANSELD 000F5E                     _ANSELE 000F5F          __end_of_INT_EXT_1 0036  
                   i1l2321 001E                     i1l2323 002C                     i2l1001 07F0  
                   i2l2101 0086                     i2l2111 00B6                     i2l2103 008C  
                   i2l2041 0F54                     i2l2201 03F2                     i2l2121 00EE  
                   i2l2113 00B8                     i2l2105 009C                     i2l2043 0F6A  
                   i2l2211 0448                     i2l2203 040C                     i2l2131 013E  
                   i2l2123 010E                     i2l2115 00C8                     i2l2107 00A2  
                   i2l2205 0428                     i2l2213 044E                     i2l2141 018E  
                   i2l2133 0148                     i2l2125 011E                     i2l2117 00D8  
                   i2l2109 00A8                     i2l2221 06B8                     i2l2301 08E4  
                   i2l2039 0ED8                     i2l2215 0452                     i2l2207 0438  
                   i2l2151 01D0                     i2l2143 019A                     i2l2135 015E  
                   i2l2119 00E8                     i2l2231 0736                     i2l2223 06C6  
                   i2l2311 096A                     i2l2303 08F8                     i2l2209 0446  
                   i2l2161 0232                     i2l2153 01E0                     i2l2145 01A8  
                   i2l2137 016A                     i2l2129 0132                     i2l2241 078A  
                   i2l2233 073E                     i2l2225 070C                     i2l2313 0980  
                   i2l2305 0934                     i2l2171 02DA                     i2l2163 024E  
                   i2l2155 01FA                     i2l2147 01B4                     i2l2139 0182  
                   i2l2091 0046                     i2l2251 0800                     i2l2243 07C6  
                   i2l2235 074A                     i2l2227 0722                     i2l2219 06A8  
                   i2l2315 0988                     i2l2307 0942                     i2l2181 0316  
                   i2l2173 02E4                     i2l2165 0278                     i2l2157 020A  
                   i2l2149 01C4                     i2l2093 0054                     i2l2261 0848  
                   i2l2253 0804                     i2l2245 07D2                     i2l2237 077C  
                   i2l2317 098A                     i2l2309 0956                     i2l2191 0388  
                   i2l2183 0324                     i2l2175 02F2                     i2l2167 02AE  
                   i2l2159 0226                     i2l2095 0056                     i2l2255 0828  
                   i2l2247 07E0                     i2l2239 077E                     i2l2271 11F6  
                   i2l2319 098C                     i2l2193 0396                     i2l2185 0352  
                   i2l2177 0304                     i2l2169 02BC                     i2l2097 0066  
                   i2l2089 003A                     i2l2257 0838                     i2l2249 07FE  
                   i2l2265 11AA                     i2l2273 11FE                     i2l2281 086A  
                   i2l2195 03C0                     i2l2179 0312                     i2l2099 0076  
                   i2l2259 0846                     i2l2267 11B8                     i2l2275 1200  
                   i2l2291 08C8                     i2l2283 0876                     i2l2189 037C  
                   i2l2197 03C4                     i2l2269 11C0                     i2l2293 08D0  
                   i2l2285 0884             __CFG_WDTEN$OFF 000000                     i2l2199 03DE  
                   i2l2295 08D2                     i2l2287 08A4                     i2l2279 0862  
                   i2l2297 08DC                     i2l2289 08B4                     i2l2299 08E0  
                   _OSCCON 000FD3           __end_of___xxtofl 085A             __CFG_XINST$OFF 000000  
     __size_of_eeprom_leer 000E         __size_of_Dutty_Pwm 00E2                     ___lmul 0FEA  
           __CFG_STVREN$ON 000000                     _declet 10C0                  ??___flmul 0017  
                ??___lldiv 0069       PWM_generar@AuxCCPR2L 007E                  ??___lwdiv 0065  
          ADC_Read@channel 0001            ADC_Read@digital 0007                  ??_delay_s 0063  
         __end_of_segment2 0BEE               ?_mostrar_dec 0082               ?_mostrar_inc 0068  
                ?_ADC_Init 0001                  ?_ADC_Read 0001     __size_ofi2_eeprom_leer 000E  
                ??_segment 0063                     tblptrh 000FF7                     tblptrl 000FF6  
                   tblptru 000FF8       __CFG_LS48MHZ$SYS24X4 000000               ___xxtofl@arg 000B  
             ___xxtofl@exp 000A               ___xxtofl@val 0001                 __accesstop 0060  
  __end_of__initialization 1134              ___rparam_used 000001                  ?_INT_EX_0 0001  
           __pcstackCOMRAM 0001               __pidataBANK0 1204            __CFG_PCLKEN$OFF 000000  
               ??_ADC_Init 0061                 ??_ADC_Read 0003          __end_of_Dutty_Pwm 0CD0  
                INT_EX_0@i 0032                  INT_EX_0@j 0034                 __pbssBANK0 0095  
             ?_PWM_generar 006E              i2_eeprom_leer 11F6                 ??_INT_EX_0 0028  
        __CFG_PLLSEL$PLL4X 000000                    ?___lmul 0061                    ?_declet 0001  
                  _CCP2CON 000F97             ___lmul@product 0069                  ?___xxtofl 0001  
           ?i2_eeprom_leer 0001                  ?_segment2 0061                    __Hparam 0000  
                  __Lparam 0000            __size_of___lmul 006C                    ___flmul 003A  
                  ___lldiv 0D96            __size_of_declet 0046                    ___lwdiv 0F74  
                  __pcinit 1106      PWM_generar@AuxCCP2CON 0078                    _delay_s 1142  
                  __ramtop 0800                    __ptext0 0E3C                    __ptext1 11E8  
                  __ptext2 117E                    __ptext3 10C0                    __ptext4 0BEE  
                  __ptext5 1056                    __ptext6 09AA                    __ptext7 0CD0  
                  __ptext8 0ACC                    __ptext9 0F74                  _T2CONbits 000FBA  
               ??___xxtofl 0005                    _segment 09AA  __size_ofi2_eeprom_guardar 002C  
     __size_of_mostrar_dec 00C6       __size_of_mostrar_inc 006A             __pintcode_body 085A  
     end_of_initialization 1134       i2eeprom_guardar@DATE 0003              __Lmediumconst 0000  
                  int_func 085A                  _INT_EXT_1 0018            ___lldiv@divisor 0065  
               ??_segment2 0063            ___lldiv@counter 006D                    postdec1 000FE5  
                  postinc0 000FEE                  _PORTBbits 000F81                  _PORTDbits 000F83  
            ___xxtofl@sign 0009                  _TRISCbits 000F94                  _TRISDbits 000F95  
        __size_of_ADC_Init 0012          __size_of_ADC_Read 009C                ___flmul@grs 001C  
          ??i2_eeprom_leer 0003              ??_eeprom_leer 0063                 ?_INT_EXT_1 0001  
     __size_of_PWM_generar 0242          __size_of_INT_EX_0 09A2             __end_of___lmul 1056  
           __end_of_declet 1106         mostrar_dec@por_pwm 0084        start_initialization 1106  
                _Dutty_Pwm 0BEE            __CFG_nLPBOR$OFF 000000    __size_of_eeprom_guardar 002C  
                 ??___lmul 0069        __end_of_eeprom_leer 11F6                   ??_declet 0061  
         segment2@centenas 0061                __pdataBANK0 0091                  ___flmul@a 0013  
                ___flmul@b 000F                __pbssCOMRAM 0036           i2_eeprom_guardar 11AA  
            __pcstackBANK0 0060            __CFG_nPWRTEN$ON 000000          __size_of___xxtofl 01B4  
               ?_Dutty_Pwm 0088                ??_INT_EXT_1 0060            INT_EX_0@digital 0030  
         ___lwdiv@dividend 0061                  __pintcode 0008          __size_of_segment2 0122  
                 ?___flmul 000F                   ?___lldiv 0061                   ?___lwdiv 0061  
              __pintcodelo 0018                   ?_delay_s 0061     PWM_generar@prescalador 0076  
           Dutty_Pwm@delay 008A                   _ADC_Init 11D6                   _ADC_Read 0ED8  
                 ?_segment 0061           ___lwdiv@quotient 0065         mostrar_inc@por_pwm 006A  
                 _LATBbits 000F8A                   _LATEbits 000F8D        i2eeprom_guardar@DIR 0001  
              _eeprom_leer 11E8                   _INT_EX_0 0008                   i1u189_20 002C  
                 i1u189_21 0028                   i2u150_44 0F3A                   i2u150_45 0F36  
                 i2u151_40 0F54                   i2u151_41 0F50                   i2u160_40 010E  
                 i2u160_41 010A                   i2u145_40 0F02                   i2u161_40 011E  
                 i2u145_41 0EFA                   i2u161_41 011A                   i2u170_40 03DE  
                 i2u162_40 0298                   i2u154_40 0054                   i2u170_41 03DA  
                 i2u154_41 0050                   i2u162_45 028E                   i2u146_48 0F04  
                 i2u171_40 040C                   i2u163_40 02F2                   i2u155_40 0066  
                 i2u171_41 0408                   i2u163_41 02EE                   i2u155_41 0062  
                 i2u147_44 0F12                   i2u147_45 0F0E                   i2u148_40 0F2A  
                 i2u172_40 0446                   i2u164_40 0312                   i2u156_40 0076  
                 i2u180_40 07FE                   i2u148_41 0F22                   i2u172_41 0442  
                 i2u164_41 030E                   i2u156_41 0072                   i2u180_41 07FA  
                 i2u165_40 0324                   i2u157_40 00B6                   i2u181_40 0838  
                 i2u173_40 06B8                   i2u165_41 0320                   i2u157_41 00B2  
                 i2u181_41 0834                   i2u173_41 06B4                   i2u149_48 0F2C  
                 i2u166_40 0352                   i2u158_40 00C8                   i2u182_40 0846  
                 i2u174_40 06C6                   i2u166_41 034E                   i2u158_41 00C4  
                 i2u182_41 0842                   i2u174_41 06C2                   i2u167_40 0368  
                 i2u159_40 00D8                   i2u175_40 0722                   i2u183_40 11D0  
                 i2u167_41 0364                   i2u159_41 00D4                   i2u175_41 071E  
                 i2u183_41 11CC                   i2u168_40 037C                   i2u176_40 0778  
                 i2u184_40 0884                   i2u168_41 0378                   i2u176_41 0774  
                 i2u184_41 0880                   i2u169_40 0396                   i2u177_40 07C2  
                 i2u185_40 08A4                   i2u169_41 0392                   i2u177_41 07BE  
                 i2u185_41 08A0                   i2u178_40 07E0                   i2u186_40 0956  
                 i2u178_41 07DC                   i2u186_41 0952                   i2u179_40 07F0  
                 i2u187_40 096A                   i2u179_41 07EC                   i2u187_41 0966  
                 _PIR2bits 000FA1                   i2u188_40 099E                   i2u188_41 099A  
                 i2u196_47 093A                   i2u197_47 0974                   _RCONbits 000FD0  
         __CFG_WDTPS$32768 000000                 _ADCON0bits 000FC2              ??_mostrar_dec 0084  
            ??_mostrar_inc 006A            PWM_generar@fpwm 0070            PWM_generar@duty 006E  
        __CFG_CFGPLLEN$OFF 000000          ___lmul@multiplier 0061                _INTCON2bits 000FF1  
              _INTCON3bits 000FF0                  copy_data0 111A                ??_Dutty_Pwm 008C  
               _EECON1bits 000FA6             _eeprom_guardar 117E                   __Hrparam 0000  
                 __Lrparam 0000         __CFG_BOREN$SBORDIS 000000           __size_of___flmul 042A  
         __size_of___lldiv 00A6           __size_of___lwdiv 0076            mostrar_dec@duty 0082  
         __size_of_delay_s 003C                   ___xxtofl 06A6            ___lwdiv@divisor 0063  
          ___lwdiv@counter 0067           __size_of_segment 0122                   __ptext10 0464  
                 __ptext11 0FEA                   __ptext20 003A                   __ptext12 0D96  
                 __ptext21 0ED8                   __ptext13 1142                   __ptext14 11D6  
                 __ptext17 11F6                   __ptext18 11AA                   __ptext19 06A6  
          mostrar_inc@duty 0068        __end_of_mostrar_dec 0D96        __end_of_mostrar_inc 10C0  
            Dutty_Pwm@fpwm 0088              ??_PWM_generar 0072     __end_of_eeprom_guardar 11AA  
            __size_of_main 009C      __end_ofi2_eeprom_leer 1204                   _segment2 0ACC  
 __end_ofi2_eeprom_guardar 11D6                   int$flags 003A                 _INTCONbits 000FF2  
           mostrar_dec@par 0086                   intlevel1 0000                   intlevel2 0000  
           mostrar_inc@par 006C           ___lldiv@dividend 0061            ?_eeprom_guardar 0061  
      __end_of_PWM_generar 06A6       __CFG_CPUDIV$NOCLKDIV 000000            segment@centenas 0061  
         i2eeprom_leer@DIR 0001           ___lldiv@quotient 0069                _mostrar_dec 0CD0  
              _mostrar_inc 1056         __CFG_FOSC$INTOSCIO 000000               ?_eeprom_leer 0061  
